	.syntax unified
	.arch armv7-a
	.eabi_attribute 27, 3
	.eabi_attribute 28, 1
	.fpu vfpv3-d16
	.eabi_attribute 20, 1
	.eabi_attribute 21, 1
	.eabi_attribute 23, 3
	.eabi_attribute 24, 1
	.eabi_attribute 25, 1
	.eabi_attribute 26, 2
	.eabi_attribute 30, 6
	.eabi_attribute 34, 1
	.eabi_attribute 18, 4
	.thumb
	.file	"hb-ot-layout.cc"
	.global	__popcountsi2
	.section	.text._ZL14_hb_popcount32j,"ax",%progbits
	.align	2
	.thumb
	.thumb_func
	.type	_ZL14_hb_popcount32j, %function
_ZL14_hb_popcount32j:
	.fnstart
.LFB6:
	@ args = 0, pretend = 0, frame = 8
	@ frame_needed = 1, uses_anonymous_args = 0
	push	{r7, lr}
	sub	sp, sp, #8
	add	r7, sp, #0
	str	r0, [r7, #4]
	ldr	r0, [r7, #4]
	bl	__popcountsi2(PLT)
	mov	r3, r0
	mov	r0, r3
	adds	r7, r7, #8
	mov	sp, r7
	@ sp needed
	pop	{r7, pc}
	.cantunwind
	.fnend
	.size	_ZL14_hb_popcount32j, .-_ZL14_hb_popcount32j
	.section	.text._ZL7_hb_ctzj,"ax",%progbits
	.align	2
	.thumb
	.thumb_func
	.type	_ZL7_hb_ctzj, %function
_ZL7_hb_ctzj:
	.fnstart
.LFB8:
	@ args = 0, pretend = 0, frame = 16
	@ frame_needed = 1, uses_anonymous_args = 0
	@ link register save eliminated.
	push	{r7}
	sub	sp, sp, #20
	add	r7, sp, #0
	str	r0, [r7, #4]
	movs	r3, #0
	str	r3, [r7, #12]
	ldr	r3, [r7, #4]
	cmp	r3, #0
	bne	.L4
	movs	r3, #0
	b	.L5
.L4:
	b	.L6
.L7:
	ldr	r3, [r7, #12]
	adds	r3, r3, #1
	str	r3, [r7, #12]
	ldr	r3, [r7, #4]
	lsrs	r3, r3, #1
	str	r3, [r7, #4]
.L6:
	ldr	r3, [r7, #4]
	and	r3, r3, #1
	cmp	r3, #0
	beq	.L7
	ldr	r3, [r7, #12]
.L5:
	mov	r0, r3
	adds	r7, r7, #20
	mov	sp, r7
	@ sp needed
	ldr	r7, [sp], #4
	bx	lr
	.cantunwind
	.fnend
	.size	_ZL7_hb_ctzj, .-_ZL7_hb_ctzj
	.global	__aeabi_uidiv
	.section	.text._ZL30_hb_unsigned_int_mul_overflowsjj,"ax",%progbits
	.align	2
	.thumb
	.thumb_func
	.type	_ZL30_hb_unsigned_int_mul_overflowsjj, %function
_ZL30_hb_unsigned_int_mul_overflowsjj:
	.fnstart
.LFB9:
	@ args = 0, pretend = 0, frame = 8
	@ frame_needed = 1, uses_anonymous_args = 0
	push	{r7, lr}
	sub	sp, sp, #8
	add	r7, sp, #0
	str	r0, [r7, #4]
	str	r1, [r7]
	ldr	r3, [r7]
	cmp	r3, #0
	beq	.L9
	mov	r0, #-1
	ldr	r1, [r7]
	bl	__aeabi_uidiv(PLT)
	mov	r3, r0
	mov	r2, r3
	ldr	r3, [r7, #4]
	cmp	r2, r3
	bhi	.L9
	movs	r3, #1
	b	.L10
.L9:
	movs	r3, #0
.L10:
	mov	r0, r3
	adds	r7, r7, #8
	mov	sp, r7
	@ sp needed
	pop	{r7, pc}
	.cantunwind
	.fnend
	.size	_ZL30_hb_unsigned_int_mul_overflowsjj, .-_ZL30_hb_unsigned_int_mul_overflowsjj
	.section	.text._Z13_hb_debug_msgILi0EEvPKcPKvS1_bjiS1_z,"ax",%progbits
	.align	2
	.thumb
	.thumb_func
	.type	_Z13_hb_debug_msgILi0EEvPKcPKvS1_bjiS1_z, %function
_Z13_hb_debug_msgILi0EEvPKcPKvS1_bjiS1_z:
	.fnstart
.LFB41:
	@ args = 12, pretend = 0, frame = 16
	@ frame_needed = 1, uses_anonymous_args = 1
	@ link register save eliminated.
	push	{r7}
	sub	sp, sp, #20
	add	r7, sp, #0
	str	r0, [r7, #12]
	str	r1, [r7, #8]
	str	r2, [r7, #4]
	strb	r3, [r7, #3]
	adds	r7, r7, #20
	mov	sp, r7
	@ sp needed
	ldr	r7, [sp], #4
	bx	lr
	.cantunwind
	.fnend
	.size	_Z13_hb_debug_msgILi0EEvPKcPKvS1_bjiS1_z, .-_Z13_hb_debug_msgILi0EEvPKcPKvS1_bjiS1_z
	.section	.text._ZN10hb_mutex_t4initEv,"axG",%progbits,_ZN10hb_mutex_t4initEv,comdat
	.align	2
	.weak	_ZN10hb_mutex_t4initEv
	.thumb
	.thumb_func
	.type	_ZN10hb_mutex_t4initEv, %function
_ZN10hb_mutex_t4initEv:
	.fnstart
.LFB59:
	@ args = 0, pretend = 0, frame = 8
	@ frame_needed = 1, uses_anonymous_args = 0
	@ link register save eliminated.
	push	{r7}
	sub	sp, sp, #12
	add	r7, sp, #0
	str	r0, [r7, #4]
	adds	r7, r7, #12
	mov	sp, r7
	@ sp needed
	ldr	r7, [sp], #4
	bx	lr
	.cantunwind
	.fnend
	.size	_ZN10hb_mutex_t4initEv, .-_ZN10hb_mutex_t4initEv
	.section	.text._ZN20hb_reference_count_t4initEi,"axG",%progbits,_ZN20hb_reference_count_t4initEi,comdat
	.align	2
	.weak	_ZN20hb_reference_count_t4initEi
	.thumb
	.thumb_func
	.type	_ZN20hb_reference_count_t4initEi, %function
_ZN20hb_reference_count_t4initEi:
	.fnstart
.LFB63:
	@ args = 0, pretend = 0, frame = 8
	@ frame_needed = 1, uses_anonymous_args = 0
	@ link register save eliminated.
	push	{r7}
	sub	sp, sp, #12
	add	r7, sp, #0
	str	r0, [r7, #4]
	str	r1, [r7]
	ldr	r3, [r7, #4]
	ldr	r2, [r7]
	str	r2, [r3]
	adds	r7, r7, #12
	mov	sp, r7
	@ sp needed
	ldr	r7, [sp], #4
	bx	lr
	.cantunwind
	.fnend
	.size	_ZN20hb_reference_count_t4initEi, .-_ZN20hb_reference_count_t4initEi
	.section	.text._ZNK20hb_reference_count_t10is_invalidEv,"axG",%progbits,_ZNK20hb_reference_count_t10is_invalidEv,comdat
	.align	2
	.weak	_ZNK20hb_reference_count_t10is_invalidEv
	.thumb
	.thumb_func
	.type	_ZNK20hb_reference_count_t10is_invalidEv, %function
_ZNK20hb_reference_count_t10is_invalidEv:
	.fnstart
.LFB67:
	@ args = 0, pretend = 0, frame = 8
	@ frame_needed = 1, uses_anonymous_args = 0
	@ link register save eliminated.
	push	{r7}
	sub	sp, sp, #12
	add	r7, sp, #0
	str	r0, [r7, #4]
	ldr	r3, [r7, #4]
	ldr	r3, [r3]
	cmp	r3, #-1
	ite	eq
	moveq	r3, #1
	movne	r3, #0
	uxtb	r3, r3
	mov	r0, r3
	adds	r7, r7, #12
	mov	sp, r7
	@ sp needed
	ldr	r7, [sp], #4
	bx	lr
	.cantunwind
	.fnend
	.size	_ZNK20hb_reference_count_t10is_invalidEv, .-_ZNK20hb_reference_count_t10is_invalidEv
	.section	.text._ZN20hb_user_data_array_t4initEv,"axG",%progbits,_ZN20hb_user_data_array_t4initEv,comdat
	.align	2
	.weak	_ZN20hb_user_data_array_t4initEv
	.thumb
	.thumb_func
	.type	_ZN20hb_user_data_array_t4initEv, %function
_ZN20hb_user_data_array_t4initEv:
	.fnstart
.LFB71:
	@ args = 0, pretend = 0, frame = 8
	@ frame_needed = 1, uses_anonymous_args = 0
	push	{r7, lr}
	.save {r7, lr}
	.pad #8
	sub	sp, sp, #8
	.setfp r7, sp, #0
	add	r7, sp, #0
	str	r0, [r7, #4]
	ldr	r3, [r7, #4]
	mov	r0, r3
	bl	_ZN10hb_mutex_t4initEv(PLT)
	ldr	r3, [r7, #4]
	adds	r3, r3, #4
	mov	r0, r3
	bl	_ZN17hb_lockable_set_tIN20hb_user_data_array_t19hb_user_data_item_tE10hb_mutex_tE4initEv(PLT)
	adds	r7, r7, #8
	mov	sp, r7
	@ sp needed
	pop	{r7, pc}
	.fnend
	.size	_ZN20hb_user_data_array_t4initEv, .-_ZN20hb_user_data_array_t4initEv
	.section	.text._ZNK9hb_face_t15reference_tableEj,"axG",%progbits,_ZNK9hb_face_t15reference_tableEj,comdat
	.align	2
	.weak	_ZNK9hb_face_t15reference_tableEj
	.thumb
	.thumb_func
	.type	_ZNK9hb_face_t15reference_tableEj, %function
_ZNK9hb_face_t15reference_tableEj:
	.fnstart
.LFB84:
	@ args = 0, pretend = 0, frame = 16
	@ frame_needed = 1, uses_anonymous_args = 0
	push	{r7, lr}
	.save {r7, lr}
	.pad #16
	sub	sp, sp, #16
	.setfp r7, sp, #0
	add	r7, sp, #0
	str	r0, [r7, #4]
	str	r1, [r7]
	ldr	r3, [r7, #4]
	ldr	r3, [r3, #48]
	cmp	r3, #0
	bne	.L19
	bl	hb_blob_get_empty(PLT)
	mov	r3, r0
	b	.L20
.L19:
	ldr	r3, [r7, #4]
	ldr	r3, [r3, #48]
	ldr	r2, [r7, #4]
	ldr	r2, [r2, #52]
	ldr	r0, [r7, #4]
	ldr	r1, [r7]
	blx	r3
	mov	r3, r0
	str	r3, [r7, #12]
	ldr	r3, [r7, #12]
	cmp	r3, #0
	bne	.L21
	bl	hb_blob_get_empty(PLT)
	mov	r3, r0
	b	.L20
.L21:
	ldr	r3, [r7, #12]
.L20:
	mov	r0, r3
	adds	r7, r7, #16
	mov	sp, r7
	@ sp needed
	pop	{r7, pc}
	.fnend
	.size	_ZNK9hb_face_t15reference_tableEj, .-_ZNK9hb_face_t15reference_tableEj
	.section	.text._ZNK9hb_face_t8get_upemEv,"axG",%progbits,_ZNK9hb_face_t8get_upemEv,comdat
	.align	2
	.weak	_ZNK9hb_face_t8get_upemEv
	.thumb
	.thumb_func
	.type	_ZNK9hb_face_t8get_upemEv, %function
_ZNK9hb_face_t8get_upemEv:
	.fnstart
.LFB85:
	@ args = 0, pretend = 0, frame = 8
	@ frame_needed = 1, uses_anonymous_args = 0
	push	{r7, lr}
	.save {r7, lr}
	.pad #8
	sub	sp, sp, #8
	.setfp r7, sp, #0
	add	r7, sp, #0
	str	r0, [r7, #4]
	ldr	r3, [r7, #4]
	ldr	r3, [r3, #64]
	cmp	r3, #0
	bne	.L23
	ldr	r0, [r7, #4]
	bl	_ZNK9hb_face_t9load_upemEv(PLT)
.L23:
	ldr	r3, [r7, #4]
	ldr	r3, [r3, #64]
	mov	r0, r3
	adds	r7, r7, #8
	mov	sp, r7
	@ sp needed
	pop	{r7, pc}
	.fnend
	.size	_ZNK9hb_face_t8get_upemEv, .-_ZNK9hb_face_t8get_upemEv
	.section	.text._ZN9hb_font_t10em_scale_xEs,"axG",%progbits,_ZN9hb_font_t10em_scale_xEs,comdat
	.align	2
	.weak	_ZN9hb_font_t10em_scale_xEs
	.thumb
	.thumb_func
	.type	_ZN9hb_font_t10em_scale_xEs, %function
_ZN9hb_font_t10em_scale_xEs:
	.fnstart
.LFB89:
	@ args = 0, pretend = 0, frame = 8
	@ frame_needed = 1, uses_anonymous_args = 0
	push	{r7, lr}
	.save {r7, lr}
	.pad #8
	sub	sp, sp, #8
	.setfp r7, sp, #0
	add	r7, sp, #0
	str	r0, [r7, #4]
	mov	r3, r1
	strh	r3, [r7, #2]	@ movhi
	ldr	r3, [r7, #4]
	ldr	r3, [r3, #56]
	ldrsh	r2, [r7, #2]
	ldr	r0, [r7, #4]
	mov	r1, r2
	mov	r2, r3
	bl	_ZN9hb_font_t8em_scaleEsi(PLT)
	mov	r3, r0
	mov	r0, r3
	adds	r7, r7, #8
	mov	sp, r7
	@ sp needed
	pop	{r7, pc}
	.fnend
	.size	_ZN9hb_font_t10em_scale_xEs, .-_ZN9hb_font_t10em_scale_xEs
	.section	.text._ZN9hb_font_t10em_scale_yEs,"axG",%progbits,_ZN9hb_font_t10em_scale_yEs,comdat
	.align	2
	.weak	_ZN9hb_font_t10em_scale_yEs
	.thumb
	.thumb_func
	.type	_ZN9hb_font_t10em_scale_yEs, %function
_ZN9hb_font_t10em_scale_yEs:
	.fnstart
.LFB90:
	@ args = 0, pretend = 0, frame = 8
	@ frame_needed = 1, uses_anonymous_args = 0
	push	{r7, lr}
	.save {r7, lr}
	.pad #8
	sub	sp, sp, #8
	.setfp r7, sp, #0
	add	r7, sp, #0
	str	r0, [r7, #4]
	mov	r3, r1
	strh	r3, [r7, #2]	@ movhi
	ldr	r3, [r7, #4]
	ldr	r3, [r3, #60]
	ldrsh	r2, [r7, #2]
	ldr	r0, [r7, #4]
	mov	r1, r2
	mov	r2, r3
	bl	_ZN9hb_font_t8em_scaleEsi(PLT)
	mov	r3, r0
	mov	r0, r3
	adds	r7, r7, #8
	mov	sp, r7
	@ sp needed
	pop	{r7, pc}
	.fnend
	.size	_ZN9hb_font_t10em_scale_yEs, .-_ZN9hb_font_t10em_scale_yEs
	.section	.text._ZN9hb_font_t19get_glyph_h_advanceEj,"axG",%progbits,_ZN9hb_font_t19get_glyph_h_advanceEj,comdat
	.align	2
	.weak	_ZN9hb_font_t19get_glyph_h_advanceEj
	.thumb
	.thumb_func
	.type	_ZN9hb_font_t19get_glyph_h_advanceEj, %function
_ZN9hb_font_t19get_glyph_h_advanceEj:
	.fnstart
.LFB99:
	@ args = 0, pretend = 0, frame = 8
	@ frame_needed = 1, uses_anonymous_args = 0
	push	{r4, r7, lr}
	.save {r4, r7, lr}
	.pad #12
	sub	sp, sp, #12
	.setfp r7, sp, #0
	add	r7, sp, #0
	str	r0, [r7, #4]
	str	r1, [r7]
	ldr	r3, [r7, #4]
	ldr	r3, [r3, #72]
	ldr	r4, [r3, #52]
	ldr	r3, [r7, #4]
	ldr	r2, [r3, #76]
	ldr	r3, [r7, #4]
	ldr	r3, [r3, #72]
	ldr	r3, [r3, #96]
	ldr	r0, [r7, #4]
	mov	r1, r2
	ldr	r2, [r7]
	blx	r4
	mov	r3, r0
	mov	r0, r3
	adds	r7, r7, #12
	mov	sp, r7
	@ sp needed
	pop	{r4, r7, pc}
	.fnend
	.size	_ZN9hb_font_t19get_glyph_h_advanceEj, .-_ZN9hb_font_t19get_glyph_h_advanceEj
	.section	.text._ZN9hb_font_t18get_glyph_h_originEjPiS0_,"axG",%progbits,_ZN9hb_font_t18get_glyph_h_originEjPiS0_,comdat
	.align	2
	.weak	_ZN9hb_font_t18get_glyph_h_originEjPiS0_
	.thumb
	.thumb_func
	.type	_ZN9hb_font_t18get_glyph_h_originEjPiS0_, %function
_ZN9hb_font_t18get_glyph_h_originEjPiS0_:
	.fnstart
.LFB101:
	@ args = 0, pretend = 0, frame = 16
	@ frame_needed = 1, uses_anonymous_args = 0
	push	{r4, r7, lr}
	.save {r4, r7, lr}
	.pad #28
	sub	sp, sp, #28
	.setfp r7, sp, #8
	add	r7, sp, #8
	str	r0, [r7, #12]
	str	r1, [r7, #8]
	str	r2, [r7, #4]
	str	r3, [r7]
	ldr	r3, [r7]
	movs	r2, #0
	str	r2, [r3]
	ldr	r3, [r7]
	ldr	r2, [r3]
	ldr	r3, [r7, #4]
	str	r2, [r3]
	ldr	r3, [r7, #12]
	ldr	r3, [r3, #72]
	ldr	r4, [r3, #60]
	ldr	r3, [r7, #12]
	ldr	r3, [r3, #76]
	ldr	r2, [r7, #12]
	ldr	r2, [r2, #72]
	ldr	r2, [r2, #104]
	ldr	r1, [r7]
	str	r1, [sp]
	str	r2, [sp, #4]
	ldr	r0, [r7, #12]
	mov	r1, r3
	ldr	r2, [r7, #8]
	ldr	r3, [r7, #4]
	blx	r4
	mov	r3, r0
	mov	r0, r3
	adds	r7, r7, #20
	mov	sp, r7
	@ sp needed
	pop	{r4, r7, pc}
	.fnend
	.size	_ZN9hb_font_t18get_glyph_h_originEjPiS0_, .-_ZN9hb_font_t18get_glyph_h_originEjPiS0_
	.section	.text._ZN9hb_font_t18get_glyph_v_originEjPiS0_,"axG",%progbits,_ZN9hb_font_t18get_glyph_v_originEjPiS0_,comdat
	.align	2
	.weak	_ZN9hb_font_t18get_glyph_v_originEjPiS0_
	.thumb
	.thumb_func
	.type	_ZN9hb_font_t18get_glyph_v_originEjPiS0_, %function
_ZN9hb_font_t18get_glyph_v_originEjPiS0_:
	.fnstart
.LFB102:
	@ args = 0, pretend = 0, frame = 16
	@ frame_needed = 1, uses_anonymous_args = 0
	push	{r4, r7, lr}
	.save {r4, r7, lr}
	.pad #28
	sub	sp, sp, #28
	.setfp r7, sp, #8
	add	r7, sp, #8
	str	r0, [r7, #12]
	str	r1, [r7, #8]
	str	r2, [r7, #4]
	str	r3, [r7]
	ldr	r3, [r7]
	movs	r2, #0
	str	r2, [r3]
	ldr	r3, [r7]
	ldr	r2, [r3]
	ldr	r3, [r7, #4]
	str	r2, [r3]
	ldr	r3, [r7, #12]
	ldr	r3, [r3, #72]
	ldr	r4, [r3, #64]
	ldr	r3, [r7, #12]
	ldr	r3, [r3, #76]
	ldr	r2, [r7, #12]
	ldr	r2, [r2, #72]
	ldr	r2, [r2, #108]
	ldr	r1, [r7]
	str	r1, [sp]
	str	r2, [sp, #4]
	ldr	r0, [r7, #12]
	mov	r1, r3
	ldr	r2, [r7, #8]
	ldr	r3, [r7, #4]
	blx	r4
	mov	r3, r0
	mov	r0, r3
	adds	r7, r7, #20
	mov	sp, r7
	@ sp needed
	pop	{r4, r7, pc}
	.fnend
	.size	_ZN9hb_font_t18get_glyph_v_originEjPiS0_, .-_ZN9hb_font_t18get_glyph_v_originEjPiS0_
	.section	.text._ZN9hb_font_t23get_glyph_contour_pointEjjPiS0_,"axG",%progbits,_ZN9hb_font_t23get_glyph_contour_pointEjjPiS0_,comdat
	.align	2
	.weak	_ZN9hb_font_t23get_glyph_contour_pointEjjPiS0_
	.thumb
	.thumb_func
	.type	_ZN9hb_font_t23get_glyph_contour_pointEjjPiS0_, %function
_ZN9hb_font_t23get_glyph_contour_pointEjjPiS0_:
	.fnstart
.LFB106:
	@ args = 4, pretend = 0, frame = 16
	@ frame_needed = 1, uses_anonymous_args = 0
	push	{r4, r7, lr}
	.save {r4, r7, lr}
	.pad #36
	sub	sp, sp, #36
	.setfp r7, sp, #16
	add	r7, sp, #16
	str	r0, [r7, #12]
	str	r1, [r7, #8]
	str	r2, [r7, #4]
	str	r3, [r7]
	ldr	r3, [r7, #32]
	movs	r2, #0
	str	r2, [r3]
	ldr	r3, [r7, #32]
	ldr	r2, [r3]
	ldr	r3, [r7]
	str	r2, [r3]
	ldr	r3, [r7, #12]
	ldr	r3, [r3, #72]
	ldr	r4, [r3, #80]
	ldr	r3, [r7, #12]
	ldr	r3, [r3, #76]
	ldr	r2, [r7, #12]
	ldr	r2, [r2, #72]
	ldr	r2, [r2, #124]
	ldr	r1, [r7]
	str	r1, [sp]
	ldr	r1, [r7, #32]
	str	r1, [sp, #4]
	str	r2, [sp, #8]
	ldr	r0, [r7, #12]
	mov	r1, r3
	ldr	r2, [r7, #8]
	ldr	r3, [r7, #4]
	blx	r4
	mov	r3, r0
	mov	r0, r3
	adds	r7, r7, #20
	mov	sp, r7
	@ sp needed
	pop	{r4, r7, pc}
	.fnend
	.size	_ZN9hb_font_t23get_glyph_contour_pointEjjPiS0_, .-_ZN9hb_font_t23get_glyph_contour_pointEjjPiS0_
	.section	.text._ZN9hb_font_t29guess_v_origin_minus_h_originEjPiS0_,"axG",%progbits,_ZN9hb_font_t29guess_v_origin_minus_h_originEjPiS0_,comdat
	.align	2
	.weak	_ZN9hb_font_t29guess_v_origin_minus_h_originEjPiS0_
	.thumb
	.thumb_func
	.type	_ZN9hb_font_t29guess_v_origin_minus_h_originEjPiS0_, %function
_ZN9hb_font_t29guess_v_origin_minus_h_originEjPiS0_:
	.fnstart
.LFB110:
	@ args = 0, pretend = 0, frame = 16
	@ frame_needed = 1, uses_anonymous_args = 0
	push	{r7, lr}
	.save {r7, lr}
	.pad #16
	sub	sp, sp, #16
	.setfp r7, sp, #0
	add	r7, sp, #0
	str	r0, [r7, #12]
	str	r1, [r7, #8]
	str	r2, [r7, #4]
	str	r3, [r7]
	ldr	r0, [r7, #12]
	ldr	r1, [r7, #8]
	bl	_ZN9hb_font_t19get_glyph_h_advanceEj(PLT)
	mov	r3, r0
	lsrs	r2, r3, #31
	add	r3, r3, r2
	asrs	r3, r3, #1
	mov	r2, r3
	ldr	r3, [r7, #4]
	str	r2, [r3]
	ldr	r3, [r7, #12]
	ldr	r2, [r3, #60]
	ldr	r3, [r7]
	str	r2, [r3]
	adds	r7, r7, #16
	mov	sp, r7
	@ sp needed
	pop	{r7, pc}
	.fnend
	.size	_ZN9hb_font_t29guess_v_origin_minus_h_originEjPiS0_, .-_ZN9hb_font_t29guess_v_origin_minus_h_originEjPiS0_
	.section	.text._ZN9hb_font_t30get_glyph_origin_for_directionEj14hb_direction_tPiS1_,"axG",%progbits,_ZN9hb_font_t30get_glyph_origin_for_directionEj14hb_direction_tPiS1_,comdat
	.align	2
	.weak	_ZN9hb_font_t30get_glyph_origin_for_directionEj14hb_direction_tPiS1_
	.thumb
	.thumb_func
	.type	_ZN9hb_font_t30get_glyph_origin_for_directionEj14hb_direction_tPiS1_, %function
_ZN9hb_font_t30get_glyph_origin_for_directionEj14hb_direction_tPiS1_:
	.fnstart
.LFB111:
	@ args = 4, pretend = 0, frame = 32
	@ frame_needed = 1, uses_anonymous_args = 0
	push	{r7, lr}
	.save {r7, lr}
	.pad #32
	sub	sp, sp, #32
	.setfp r7, sp, #0
	add	r7, sp, #0
	str	r0, [r7, #12]
	str	r1, [r7, #8]
	str	r2, [r7, #4]
	str	r3, [r7]
	ldr	r3, [r7, #4]
	bic	r3, r3, #1
	cmp	r3, #4
	bne	.L39
	ldr	r0, [r7, #12]
	ldr	r1, [r7, #8]
	ldr	r2, [r7]
	ldr	r3, [r7, #40]
	bl	_ZN9hb_font_t18get_glyph_h_originEjPiS0_(PLT)
	mov	r3, r0
	cmp	r3, #0
	bne	.L40
	ldr	r0, [r7, #12]
	ldr	r1, [r7, #8]
	ldr	r2, [r7]
	ldr	r3, [r7, #40]
	bl	_ZN9hb_font_t18get_glyph_v_originEjPiS0_(PLT)
	mov	r3, r0
	cmp	r3, #0
	beq	.L40
	movs	r3, #1
	b	.L41
.L40:
	movs	r3, #0
.L41:
	cmp	r3, #0
	beq	.L42
	add	r2, r7, #28
	add	r3, r7, #24
	ldr	r0, [r7, #12]
	ldr	r1, [r7, #8]
	bl	_ZN9hb_font_t29guess_v_origin_minus_h_originEjPiS0_(PLT)
	ldr	r3, [r7]
	ldr	r2, [r3]
	ldr	r3, [r7, #28]
	subs	r2, r2, r3
	ldr	r3, [r7]
	str	r2, [r3]
	ldr	r3, [r7, #40]
	ldr	r2, [r3]
	ldr	r3, [r7, #24]
	subs	r2, r2, r3
	ldr	r3, [r7, #40]
	str	r2, [r3]
.L42:
	b	.L38
.L39:
	ldr	r0, [r7, #12]
	ldr	r1, [r7, #8]
	ldr	r2, [r7]
	ldr	r3, [r7, #40]
	bl	_ZN9hb_font_t18get_glyph_v_originEjPiS0_(PLT)
	mov	r3, r0
	cmp	r3, #0
	bne	.L44
	ldr	r0, [r7, #12]
	ldr	r1, [r7, #8]
	ldr	r2, [r7]
	ldr	r3, [r7, #40]
	bl	_ZN9hb_font_t18get_glyph_h_originEjPiS0_(PLT)
	mov	r3, r0
	cmp	r3, #0
	beq	.L44
	movs	r3, #1
	b	.L45
.L44:
	movs	r3, #0
.L45:
	cmp	r3, #0
	beq	.L38
	add	r2, r7, #20
	add	r3, r7, #16
	ldr	r0, [r7, #12]
	ldr	r1, [r7, #8]
	bl	_ZN9hb_font_t29guess_v_origin_minus_h_originEjPiS0_(PLT)
	ldr	r3, [r7]
	ldr	r2, [r3]
	ldr	r3, [r7, #20]
	add	r2, r2, r3
	ldr	r3, [r7]
	str	r2, [r3]
	ldr	r3, [r7, #40]
	ldr	r2, [r3]
	ldr	r3, [r7, #16]
	add	r2, r2, r3
	ldr	r3, [r7, #40]
	str	r2, [r3]
.L38:
	adds	r7, r7, #32
	mov	sp, r7
	@ sp needed
	pop	{r7, pc}
	.fnend
	.size	_ZN9hb_font_t30get_glyph_origin_for_directionEj14hb_direction_tPiS1_, .-_ZN9hb_font_t30get_glyph_origin_for_directionEj14hb_direction_tPiS1_
	.section	.text._ZN9hb_font_t35subtract_glyph_origin_for_directionEj14hb_direction_tPiS1_,"axG",%progbits,_ZN9hb_font_t35subtract_glyph_origin_for_directionEj14hb_direction_tPiS1_,comdat
	.align	2
	.weak	_ZN9hb_font_t35subtract_glyph_origin_for_directionEj14hb_direction_tPiS1_
	.thumb
	.thumb_func
	.type	_ZN9hb_font_t35subtract_glyph_origin_for_directionEj14hb_direction_tPiS1_, %function
_ZN9hb_font_t35subtract_glyph_origin_for_directionEj14hb_direction_tPiS1_:
	.fnstart
.LFB113:
	@ args = 4, pretend = 0, frame = 24
	@ frame_needed = 1, uses_anonymous_args = 0
	push	{r7, lr}
	.save {r7, lr}
	.pad #32
	sub	sp, sp, #32
	.setfp r7, sp, #8
	add	r7, sp, #8
	str	r0, [r7, #12]
	str	r1, [r7, #8]
	str	r2, [r7, #4]
	str	r3, [r7]
	add	r3, r7, #20
	add	r2, r7, #16
	str	r2, [sp]
	ldr	r0, [r7, #12]
	ldr	r1, [r7, #8]
	ldr	r2, [r7, #4]
	bl	_ZN9hb_font_t30get_glyph_origin_for_directionEj14hb_direction_tPiS1_(PLT)
	ldr	r3, [r7]
	ldr	r2, [r3]
	ldr	r3, [r7, #20]
	subs	r2, r2, r3
	ldr	r3, [r7]
	str	r2, [r3]
	ldr	r3, [r7, #32]
	ldr	r2, [r3]
	ldr	r3, [r7, #16]
	subs	r2, r2, r3
	ldr	r3, [r7, #32]
	str	r2, [r3]
	adds	r7, r7, #24
	mov	sp, r7
	@ sp needed
	pop	{r7, pc}
	.fnend
	.size	_ZN9hb_font_t35subtract_glyph_origin_for_directionEj14hb_direction_tPiS1_, .-_ZN9hb_font_t35subtract_glyph_origin_for_directionEj14hb_direction_tPiS1_
	.section	.text._ZN9hb_font_t34get_glyph_contour_point_for_originEjj14hb_direction_tPiS1_,"axG",%progbits,_ZN9hb_font_t34get_glyph_contour_point_for_originEjj14hb_direction_tPiS1_,comdat
	.align	2
	.weak	_ZN9hb_font_t34get_glyph_contour_point_for_originEjj14hb_direction_tPiS1_
	.thumb
	.thumb_func
	.type	_ZN9hb_font_t34get_glyph_contour_point_for_originEjj14hb_direction_tPiS1_, %function
_ZN9hb_font_t34get_glyph_contour_point_for_originEjj14hb_direction_tPiS1_:
	.fnstart
.LFB116:
	@ args = 8, pretend = 0, frame = 24
	@ frame_needed = 1, uses_anonymous_args = 0
	push	{r7, lr}
	.save {r7, lr}
	.pad #32
	sub	sp, sp, #32
	.setfp r7, sp, #8
	add	r7, sp, #8
	str	r0, [r7, #12]
	str	r1, [r7, #8]
	str	r2, [r7, #4]
	str	r3, [r7]
	ldr	r3, [r7, #36]
	str	r3, [sp]
	ldr	r0, [r7, #12]
	ldr	r1, [r7, #8]
	ldr	r2, [r7, #4]
	ldr	r3, [r7, #32]
	bl	_ZN9hb_font_t23get_glyph_contour_pointEjjPiS0_(PLT)
	mov	r3, r0
	str	r3, [r7, #20]
	ldr	r3, [r7, #20]
	cmp	r3, #0
	beq	.L48
	ldr	r3, [r7, #36]
	str	r3, [sp]
	ldr	r0, [r7, #12]
	ldr	r1, [r7, #8]
	ldr	r2, [r7]
	ldr	r3, [r7, #32]
	bl	_ZN9hb_font_t35subtract_glyph_origin_for_directionEj14hb_direction_tPiS1_(PLT)
.L48:
	ldr	r3, [r7, #20]
	mov	r0, r3
	adds	r7, r7, #24
	mov	sp, r7
	@ sp needed
	pop	{r7, pc}
	.fnend
	.size	_ZN9hb_font_t34get_glyph_contour_point_for_originEjj14hb_direction_tPiS1_, .-_ZN9hb_font_t34get_glyph_contour_point_for_originEjj14hb_direction_tPiS1_
	.global	__aeabi_ldivmod
	.section	.text._ZN9hb_font_t8em_scaleEsi,"axG",%progbits,_ZN9hb_font_t8em_scaleEsi,comdat
	.align	2
	.weak	_ZN9hb_font_t8em_scaleEsi
	.thumb
	.thumb_func
	.type	_ZN9hb_font_t8em_scaleEsi, %function
_ZN9hb_font_t8em_scaleEsi:
	.fnstart
.LFB119:
	@ args = 0, pretend = 0, frame = 16
	@ frame_needed = 1, uses_anonymous_args = 0
	push	{r4, r5, r6, r7, lr}
	.save {r4, r5, r6, r7, lr}
	.pad #20
	sub	sp, sp, #20
	.setfp r7, sp, #0
	add	r7, sp, #0
	str	r0, [r7, #12]
	mov	r3, r1
	str	r2, [r7, #4]
	strh	r3, [r7, #10]	@ movhi
	ldrsh	r0, [r7, #10]
	asr	r1, r0, #31
	ldr	r3, [r7, #4]
	mov	r2, r3
	asr	r3, r2, #31
	mul	r5, r2, r1
	mul	r4, r0, r3
	adds	r6, r5, r4
	umull	r4, r5, r0, r2
	adds	r3, r6, r5
	mov	r5, r3
	ldr	r3, [r7, #12]
	ldr	r3, [r3, #52]
	mov	r0, r3
	bl	_ZNK9hb_face_t8get_upemEv(PLT)
	mov	r3, r0
	mov	r2, r3
	mov	r3, #0
	mov	r0, r4
	mov	r1, r5
	bl	__aeabi_ldivmod(PLT)
	mov	r2, r0
	mov	r3, r1
	mov	r3, r2
	mov	r0, r3
	adds	r7, r7, #20
	mov	sp, r7
	@ sp needed
	pop	{r4, r5, r6, r7, pc}
	.fnend
	.size	_ZN9hb_font_t8em_scaleEsi, .-_ZN9hb_font_t8em_scaleEsi
	.section	.text._ZN11hb_buffer_t3curEj,"axG",%progbits,_ZN11hb_buffer_t3curEj,comdat
	.align	2
	.weak	_ZN11hb_buffer_t3curEj
	.thumb
	.thumb_func
	.type	_ZN11hb_buffer_t3curEj, %function
_ZN11hb_buffer_t3curEj:
	.fnstart
.LFB133:
	@ args = 0, pretend = 0, frame = 8
	@ frame_needed = 1, uses_anonymous_args = 0
	@ link register save eliminated.
	push	{r7}
	sub	sp, sp, #12
	add	r7, sp, #0
	str	r0, [r7, #4]
	str	r1, [r7]
	ldr	r3, [r7, #4]
	ldr	r1, [r3, #100]
	ldr	r3, [r7, #4]
	ldr	r2, [r3, #84]
	ldr	r3, [r7]
	add	r2, r2, r3
	mov	r3, r2
	lsls	r3, r3, #2
	add	r3, r3, r2
	lsls	r3, r3, #2
	add	r3, r3, r1
	mov	r0, r3
	adds	r7, r7, #12
	mov	sp, r7
	@ sp needed
	ldr	r7, [sp], #4
	bx	lr
	.cantunwind
	.fnend
	.size	_ZN11hb_buffer_t3curEj, .-_ZN11hb_buffer_t3curEj
	.section	.text._ZN11hb_buffer_t7cur_posEj,"axG",%progbits,_ZN11hb_buffer_t7cur_posEj,comdat
	.align	2
	.weak	_ZN11hb_buffer_t7cur_posEj
	.thumb
	.thumb_func
	.type	_ZN11hb_buffer_t7cur_posEj, %function
_ZN11hb_buffer_t7cur_posEj:
	.fnstart
.LFB135:
	@ args = 0, pretend = 0, frame = 8
	@ frame_needed = 1, uses_anonymous_args = 0
	@ link register save eliminated.
	push	{r7}
	sub	sp, sp, #12
	add	r7, sp, #0
	str	r0, [r7, #4]
	str	r1, [r7]
	ldr	r3, [r7, #4]
	ldr	r1, [r3, #108]
	ldr	r3, [r7, #4]
	ldr	r2, [r3, #84]
	ldr	r3, [r7]
	add	r2, r2, r3
	mov	r3, r2
	lsls	r3, r3, #2
	add	r3, r3, r2
	lsls	r3, r3, #2
	add	r3, r3, r1
	mov	r0, r3
	adds	r7, r7, #12
	mov	sp, r7
	@ sp needed
	ldr	r7, [sp], #4
	bx	lr
	.cantunwind
	.fnend
	.size	_ZN11hb_buffer_t7cur_posEj, .-_ZN11hb_buffer_t7cur_posEj
	.section	.text._ZNK11hb_buffer_t19has_separate_outputEv,"axG",%progbits,_ZNK11hb_buffer_t19has_separate_outputEv,comdat
	.align	2
	.weak	_ZNK11hb_buffer_t19has_separate_outputEv
	.thumb
	.thumb_func
	.type	_ZNK11hb_buffer_t19has_separate_outputEv, %function
_ZNK11hb_buffer_t19has_separate_outputEv:
	.fnstart
.LFB139:
	@ args = 0, pretend = 0, frame = 8
	@ frame_needed = 1, uses_anonymous_args = 0
	@ link register save eliminated.
	push	{r7}
	sub	sp, sp, #12
	add	r7, sp, #0
	str	r0, [r7, #4]
	ldr	r3, [r7, #4]
	ldr	r2, [r3, #100]
	ldr	r3, [r7, #4]
	ldr	r3, [r3, #104]
	cmp	r2, r3
	ite	ne
	movne	r3, #1
	moveq	r3, #0
	uxtb	r3, r3
	mov	r0, r3
	adds	r7, r7, #12
	mov	sp, r7
	@ sp needed
	ldr	r7, [sp], #4
	bx	lr
	.cantunwind
	.fnend
	.size	_ZNK11hb_buffer_t19has_separate_outputEv, .-_ZNK11hb_buffer_t19has_separate_outputEv
	.section	.text._ZNK11hb_buffer_t13backtrack_lenEv,"axG",%progbits,_ZNK11hb_buffer_t13backtrack_lenEv,comdat
	.align	2
	.weak	_ZNK11hb_buffer_t13backtrack_lenEv
	.thumb
	.thumb_func
	.type	_ZNK11hb_buffer_t13backtrack_lenEv, %function
_ZNK11hb_buffer_t13backtrack_lenEv:
	.fnstart
.LFB140:
	@ args = 0, pretend = 0, frame = 8
	@ frame_needed = 1, uses_anonymous_args = 0
	@ link register save eliminated.
	push	{r7}
	sub	sp, sp, #12
	add	r7, sp, #0
	str	r0, [r7, #4]
	ldr	r3, [r7, #4]
	ldrb	r3, [r3, #81]	@ zero_extendqisi2
	cmp	r3, #0
	beq	.L59
	ldr	r3, [r7, #4]
	ldr	r3, [r3, #92]
	b	.L60
.L59:
	ldr	r3, [r7, #4]
	ldr	r3, [r3, #84]
.L60:
	mov	r0, r3
	adds	r7, r7, #12
	mov	sp, r7
	@ sp needed
	ldr	r7, [sp], #4
	bx	lr
	.cantunwind
	.fnend
	.size	_ZNK11hb_buffer_t13backtrack_lenEv, .-_ZNK11hb_buffer_t13backtrack_lenEv
	.section	.text._ZNK11hb_buffer_t13lookahead_lenEv,"axG",%progbits,_ZNK11hb_buffer_t13lookahead_lenEv,comdat
	.align	2
	.weak	_ZNK11hb_buffer_t13lookahead_lenEv
	.thumb
	.thumb_func
	.type	_ZNK11hb_buffer_t13lookahead_lenEv, %function
_ZNK11hb_buffer_t13lookahead_lenEv:
	.fnstart
.LFB141:
	@ args = 0, pretend = 0, frame = 8
	@ frame_needed = 1, uses_anonymous_args = 0
	@ link register save eliminated.
	push	{r7}
	sub	sp, sp, #12
	add	r7, sp, #0
	str	r0, [r7, #4]
	ldr	r3, [r7, #4]
	ldr	r2, [r3, #88]
	ldr	r3, [r7, #4]
	ldr	r3, [r3, #84]
	subs	r3, r2, r3
	mov	r0, r3
	adds	r7, r7, #12
	mov	sp, r7
	@ sp needed
	ldr	r7, [sp], #4
	bx	lr
	.cantunwind
	.fnend
	.size	_ZNK11hb_buffer_t13lookahead_lenEv, .-_ZNK11hb_buffer_t13lookahead_lenEv
	.section	.text._ZN11hb_buffer_t11next_serialEv,"axG",%progbits,_ZN11hb_buffer_t11next_serialEv,comdat
	.align	2
	.weak	_ZN11hb_buffer_t11next_serialEv
	.thumb
	.thumb_func
	.type	_ZN11hb_buffer_t11next_serialEv, %function
_ZN11hb_buffer_t11next_serialEv:
	.fnstart
.LFB142:
	@ args = 0, pretend = 0, frame = 8
	@ frame_needed = 1, uses_anonymous_args = 0
	@ link register save eliminated.
	push	{r7}
	sub	sp, sp, #12
	add	r7, sp, #0
	str	r0, [r7, #4]
	ldr	r3, [r7, #4]
	ldr	r3, [r3, #112]
	adds	r1, r3, #1
	ldr	r2, [r7, #4]
	str	r1, [r2, #112]
	mov	r0, r3
	adds	r7, r7, #12
	mov	sp, r7
	@ sp needed
	ldr	r7, [sp], #4
	bx	lr
	.cantunwind
	.fnend
	.size	_ZN11hb_buffer_t11next_serialEv, .-_ZN11hb_buffer_t11next_serialEv
	.section	.text._ZN11hb_buffer_t10next_glyphEv,"axG",%progbits,_ZN11hb_buffer_t10next_glyphEv,comdat
	.align	2
	.weak	_ZN11hb_buffer_t10next_glyphEv
	.thumb
	.thumb_func
	.type	_ZN11hb_buffer_t10next_glyphEv, %function
_ZN11hb_buffer_t10next_glyphEv:
	.fnstart
.LFB143:
	@ args = 0, pretend = 0, frame = 8
	@ frame_needed = 1, uses_anonymous_args = 0
	push	{r4, r5, r7, lr}
	.save {r4, r5, r7, lr}
	.pad #8
	sub	sp, sp, #8
	.setfp r7, sp, #0
	add	r7, sp, #0
	str	r0, [r7, #4]
	ldr	r3, [r7, #4]
	ldrb	r3, [r3, #81]	@ zero_extendqisi2
	cmp	r3, #0
	beq	.L67
	ldr	r3, [r7, #4]
	ldr	r2, [r3, #104]
	ldr	r3, [r7, #4]
	ldr	r3, [r3, #100]
	cmp	r2, r3
	bne	.L68
	ldr	r3, [r7, #4]
	ldr	r2, [r3, #92]
	ldr	r3, [r7, #4]
	ldr	r3, [r3, #84]
	cmp	r2, r3
	beq	.L69
.L68:
	ldr	r0, [r7, #4]
	movs	r1, #1
	movs	r2, #1
	bl	_ZN11hb_buffer_t13make_room_forEjj(PLT)
	mov	r3, r0
	eor	r3, r3, #1
	uxtb	r3, r3
	cmp	r3, #0
	beq	.L70
	b	.L66
.L70:
	ldr	r3, [r7, #4]
	ldr	r1, [r3, #104]
	ldr	r3, [r7, #4]
	ldr	r2, [r3, #92]
	mov	r3, r2
	lsls	r3, r3, #2
	add	r3, r3, r2
	lsls	r3, r3, #2
	add	r1, r1, r3
	ldr	r3, [r7, #4]
	ldr	r0, [r3, #100]
	ldr	r3, [r7, #4]
	ldr	r2, [r3, #84]
	mov	r3, r2
	lsls	r3, r3, #2
	add	r3, r3, r2
	lsls	r3, r3, #2
	add	r3, r3, r0
	mov	r4, r1
	mov	r5, r3
	ldmia	r5!, {r0, r1, r2, r3}
	stmia	r4!, {r0, r1, r2, r3}
	ldr	r3, [r5]
	str	r3, [r4]
.L69:
	ldr	r3, [r7, #4]
	ldr	r3, [r3, #92]
	adds	r2, r3, #1
	ldr	r3, [r7, #4]
	str	r2, [r3, #92]
.L67:
	ldr	r3, [r7, #4]
	ldr	r3, [r3, #84]
	adds	r2, r3, #1
	ldr	r3, [r7, #4]
	str	r2, [r3, #84]
.L66:
	adds	r7, r7, #8
	mov	sp, r7
	@ sp needed
	pop	{r4, r5, r7, pc}
	.fnend
	.size	_ZN11hb_buffer_t10next_glyphEv, .-_ZN11hb_buffer_t10next_glyphEv
	.section	.text._ZN11hb_buffer_t10skip_glyphEv,"axG",%progbits,_ZN11hb_buffer_t10skip_glyphEv,comdat
	.align	2
	.weak	_ZN11hb_buffer_t10skip_glyphEv
	.thumb
	.thumb_func
	.type	_ZN11hb_buffer_t10skip_glyphEv, %function
_ZN11hb_buffer_t10skip_glyphEv:
	.fnstart
.LFB144:
	@ args = 0, pretend = 0, frame = 8
	@ frame_needed = 1, uses_anonymous_args = 0
	@ link register save eliminated.
	push	{r7}
	sub	sp, sp, #12
	add	r7, sp, #0
	str	r0, [r7, #4]
	ldr	r3, [r7, #4]
	ldr	r3, [r3, #84]
	adds	r2, r3, #1
	ldr	r3, [r7, #4]
	str	r2, [r3, #84]
	adds	r7, r7, #12
	mov	sp, r7
	@ sp needed
	ldr	r7, [sp], #4
	bx	lr
	.cantunwind
	.fnend
	.size	_ZN11hb_buffer_t10skip_glyphEv, .-_ZN11hb_buffer_t10skip_glyphEv
	.section	.text._ZN8hb_set_t4initEv,"axG",%progbits,_ZN8hb_set_t4initEv,comdat
	.align	2
	.weak	_ZN8hb_set_t4initEv
	.thumb
	.thumb_func
	.type	_ZN8hb_set_t4initEv, %function
_ZN8hb_set_t4initEv:
	.fnstart
.LFB162:
	@ args = 0, pretend = 0, frame = 8
	@ frame_needed = 1, uses_anonymous_args = 0
	push	{r7, lr}
	.save {r7, lr}
	.pad #8
	sub	sp, sp, #8
	.setfp r7, sp, #0
	add	r7, sp, #0
	str	r0, [r7, #4]
	ldr	r0, [r7, #4]
	bl	_Z14hb_object_initI8hb_set_tEvPT_(PLT)
	ldr	r0, [r7, #4]
	bl	_ZN8hb_set_t5clearEv(PLT)
	adds	r7, r7, #8
	mov	sp, r7
	@ sp needed
	pop	{r7, pc}
	.fnend
	.size	_ZN8hb_set_t4initEv, .-_ZN8hb_set_t4initEv
	.section	.text._ZN8hb_set_t4finiEv,"axG",%progbits,_ZN8hb_set_t4finiEv,comdat
	.align	2
	.weak	_ZN8hb_set_t4finiEv
	.thumb
	.thumb_func
	.type	_ZN8hb_set_t4finiEv, %function
_ZN8hb_set_t4finiEv:
	.fnstart
.LFB163:
	@ args = 0, pretend = 0, frame = 8
	@ frame_needed = 1, uses_anonymous_args = 0
	@ link register save eliminated.
	push	{r7}
	sub	sp, sp, #12
	add	r7, sp, #0
	str	r0, [r7, #4]
	adds	r7, r7, #12
	mov	sp, r7
	@ sp needed
	ldr	r7, [sp], #4
	bx	lr
	.cantunwind
	.fnend
	.size	_ZN8hb_set_t4finiEv, .-_ZN8hb_set_t4finiEv
	.section	.text._ZN8hb_set_t5clearEv,"axG",%progbits,_ZN8hb_set_t5clearEv,comdat
	.align	2
	.weak	_ZN8hb_set_t5clearEv
	.thumb
	.thumb_func
	.type	_ZN8hb_set_t5clearEv, %function
_ZN8hb_set_t5clearEv:
	.fnstart
.LFB164:
	@ args = 0, pretend = 0, frame = 8
	@ frame_needed = 1, uses_anonymous_args = 0
	push	{r7, lr}
	.save {r7, lr}
	.pad #8
	sub	sp, sp, #8
	.setfp r7, sp, #0
	add	r7, sp, #0
	str	r0, [r7, #4]
	ldr	r0, [r7, #4]
	bl	_Z18hb_object_is_inertI8hb_set_tEbPKT_(PLT)
	mov	r3, r0
	cmp	r3, #0
	beq	.L76
	b	.L75
.L76:
	ldr	r3, [r7, #4]
	movs	r2, #0
	strb	r2, [r3, #44]
	ldr	r3, [r7, #4]
	adds	r3, r3, #48
	mov	r0, r3
	movs	r1, #0
	mov	r2, #8192
	bl	memset(PLT)
.L75:
	adds	r7, r7, #8
	mov	sp, r7
	@ sp needed
	pop	{r7, pc}
	.fnend
	.size	_ZN8hb_set_t5clearEv, .-_ZN8hb_set_t5clearEv
	.section	.text._ZN8hb_set_t3addEj,"axG",%progbits,_ZN8hb_set_t3addEj,comdat
	.align	2
	.weak	_ZN8hb_set_t3addEj
	.thumb
	.thumb_func
	.type	_ZN8hb_set_t3addEj, %function
_ZN8hb_set_t3addEj:
	.fnstart
.LFB166:
	@ args = 0, pretend = 0, frame = 8
	@ frame_needed = 1, uses_anonymous_args = 0
	push	{r4, r7, lr}
	.save {r4, r7, lr}
	.pad #12
	sub	sp, sp, #12
	.setfp r7, sp, #0
	add	r7, sp, #0
	str	r0, [r7, #4]
	str	r1, [r7]
	ldr	r3, [r7, #4]
	ldrb	r3, [r3, #44]	@ zero_extendqisi2
	cmp	r3, #0
	beq	.L79
	b	.L78
.L79:
	ldr	r3, [r7]
	cmp	r3, #-1
	bne	.L81
	b	.L78
.L81:
	ldr	r3, [r7]
	cmp	r3, #65536
	bcc	.L82
	b	.L78
.L82:
	ldr	r0, [r7, #4]
	ldr	r1, [r7]
	bl	_ZNK8hb_set_t4maskEj(PLT)
	mov	r4, r0
	ldr	r0, [r7, #4]
	ldr	r1, [r7]
	bl	_ZN8hb_set_t3eltEj(PLT)
	mov	r3, r0
	ldr	r2, [r3]
	orrs	r2, r2, r4
	str	r2, [r3]
.L78:
	adds	r7, r7, #12
	mov	sp, r7
	@ sp needed
	pop	{r4, r7, pc}
	.fnend
	.size	_ZN8hb_set_t3addEj, .-_ZN8hb_set_t3addEj
	.section	.text._ZN8hb_set_t9add_rangeEjj,"axG",%progbits,_ZN8hb_set_t9add_rangeEjj,comdat
	.align	2
	.weak	_ZN8hb_set_t9add_rangeEjj
	.thumb
	.thumb_func
	.type	_ZN8hb_set_t9add_rangeEjj, %function
_ZN8hb_set_t9add_rangeEjj:
	.fnstart
.LFB167:
	@ args = 0, pretend = 0, frame = 24
	@ frame_needed = 1, uses_anonymous_args = 0
	push	{r7, lr}
	.save {r7, lr}
	.pad #24
	sub	sp, sp, #24
	.setfp r7, sp, #0
	add	r7, sp, #0
	str	r0, [r7, #12]
	str	r1, [r7, #8]
	str	r2, [r7, #4]
	ldr	r3, [r7, #12]
	ldrb	r3, [r3, #44]	@ zero_extendqisi2
	cmp	r3, #0
	beq	.L84
	b	.L83
.L84:
	ldr	r3, [r7, #8]
	str	r3, [r7, #20]
	b	.L86
.L87:
	ldr	r0, [r7, #12]
	ldr	r1, [r7, #20]
	bl	_ZN8hb_set_t3addEj(PLT)
	ldr	r3, [r7, #20]
	adds	r3, r3, #1
	str	r3, [r7, #20]
.L86:
	ldr	r3, [r7, #4]
	adds	r2, r3, #1
	ldr	r3, [r7, #20]
	cmp	r2, r3
	bhi	.L87
.L83:
	adds	r7, r7, #24
	mov	sp, r7
	@ sp needed
	pop	{r7, pc}
	.fnend
	.size	_ZN8hb_set_t9add_rangeEjj, .-_ZN8hb_set_t9add_rangeEjj
	.section	.text._ZNK8hb_set_t3hasEj,"axG",%progbits,_ZNK8hb_set_t3hasEj,comdat
	.align	2
	.weak	_ZNK8hb_set_t3hasEj
	.thumb
	.thumb_func
	.type	_ZNK8hb_set_t3hasEj, %function
_ZNK8hb_set_t3hasEj:
	.fnstart
.LFB170:
	@ args = 0, pretend = 0, frame = 8
	@ frame_needed = 1, uses_anonymous_args = 0
	push	{r4, r7, lr}
	.save {r4, r7, lr}
	.pad #12
	sub	sp, sp, #12
	.setfp r7, sp, #0
	add	r7, sp, #0
	str	r0, [r7, #4]
	str	r1, [r7]
	ldr	r3, [r7]
	cmp	r3, #65536
	bcc	.L89
	movs	r3, #0
	b	.L90
.L89:
	ldr	r0, [r7, #4]
	ldr	r1, [r7]
	bl	_ZNK8hb_set_t3eltEj(PLT)
	mov	r4, r0
	ldr	r0, [r7, #4]
	ldr	r1, [r7]
	bl	_ZNK8hb_set_t4maskEj(PLT)
	mov	r3, r0
	ands	r3, r3, r4
	cmp	r3, #0
	ite	ne
	movne	r3, #1
	moveq	r3, #0
	uxtb	r3, r3
.L90:
	mov	r0, r3
	adds	r7, r7, #12
	mov	sp, r7
	@ sp needed
	pop	{r4, r7, pc}
	.fnend
	.size	_ZNK8hb_set_t3hasEj, .-_ZNK8hb_set_t3hasEj
	.section	.text._ZNK8hb_set_t10intersectsEjj,"axG",%progbits,_ZNK8hb_set_t10intersectsEjj,comdat
	.align	2
	.weak	_ZNK8hb_set_t10intersectsEjj
	.thumb
	.thumb_func
	.type	_ZNK8hb_set_t10intersectsEjj, %function
_ZNK8hb_set_t10intersectsEjj:
	.fnstart
.LFB171:
	@ args = 0, pretend = 0, frame = 24
	@ frame_needed = 1, uses_anonymous_args = 0
	push	{r7, lr}
	.save {r7, lr}
	.pad #24
	sub	sp, sp, #24
	.setfp r7, sp, #0
	add	r7, sp, #0
	str	r0, [r7, #12]
	str	r1, [r7, #8]
	str	r2, [r7, #4]
	ldr	r3, [r7, #8]
	cmp	r3, #65536
	bcc	.L92
	movs	r3, #0
	b	.L93
.L92:
	ldr	r3, [r7, #4]
	cmp	r3, #65536
	bcc	.L94
	movw	r3, #65535
	str	r3, [r7, #4]
.L94:
	ldr	r3, [r7, #4]
	adds	r3, r3, #1
	str	r3, [r7, #16]
	ldr	r3, [r7, #8]
	str	r3, [r7, #20]
	b	.L95
.L97:
	ldr	r0, [r7, #12]
	ldr	r1, [r7, #20]
	bl	_ZNK8hb_set_t3hasEj(PLT)
	mov	r3, r0
	cmp	r3, #0
	beq	.L96
	movs	r3, #1
	b	.L93
.L96:
	ldr	r3, [r7, #20]
	adds	r3, r3, #1
	str	r3, [r7, #20]
.L95:
	ldr	r2, [r7, #20]
	ldr	r3, [r7, #16]
	cmp	r2, r3
	bcc	.L97
	movs	r3, #0
.L93:
	mov	r0, r3
	adds	r7, r7, #24
	mov	sp, r7
	@ sp needed
	pop	{r7, pc}
	.fnend
	.size	_ZNK8hb_set_t10intersectsEjj, .-_ZNK8hb_set_t10intersectsEjj
	.section	.text._ZN8hb_set_t3eltEj,"axG",%progbits,_ZN8hb_set_t3eltEj,comdat
	.align	2
	.weak	_ZN8hb_set_t3eltEj
	.thumb
	.thumb_func
	.type	_ZN8hb_set_t3eltEj, %function
_ZN8hb_set_t3eltEj:
	.fnstart
.LFB184:
	@ args = 0, pretend = 0, frame = 8
	@ frame_needed = 1, uses_anonymous_args = 0
	@ link register save eliminated.
	push	{r7}
	sub	sp, sp, #12
	add	r7, sp, #0
	str	r0, [r7, #4]
	str	r1, [r7]
	ldr	r3, [r7]
	lsrs	r3, r3, #5
	adds	r3, r3, #12
	lsls	r3, r3, #2
	ldr	r2, [r7, #4]
	add	r3, r3, r2
	mov	r0, r3
	adds	r7, r7, #12
	mov	sp, r7
	@ sp needed
	ldr	r7, [sp], #4
	bx	lr
	.cantunwind
	.fnend
	.size	_ZN8hb_set_t3eltEj, .-_ZN8hb_set_t3eltEj
	.section	.text._ZNK8hb_set_t3eltEj,"axG",%progbits,_ZNK8hb_set_t3eltEj,comdat
	.align	2
	.weak	_ZNK8hb_set_t3eltEj
	.thumb
	.thumb_func
	.type	_ZNK8hb_set_t3eltEj, %function
_ZNK8hb_set_t3eltEj:
	.fnstart
.LFB185:
	@ args = 0, pretend = 0, frame = 8
	@ frame_needed = 1, uses_anonymous_args = 0
	@ link register save eliminated.
	push	{r7}
	sub	sp, sp, #12
	add	r7, sp, #0
	str	r0, [r7, #4]
	str	r1, [r7]
	ldr	r3, [r7]
	lsrs	r2, r3, #5
	ldr	r3, [r7, #4]
	adds	r2, r2, #12
	ldr	r3, [r3, r2, lsl #2]
	mov	r0, r3
	adds	r7, r7, #12
	mov	sp, r7
	@ sp needed
	ldr	r7, [sp], #4
	bx	lr
	.cantunwind
	.fnend
	.size	_ZNK8hb_set_t3eltEj, .-_ZNK8hb_set_t3eltEj
	.section	.text._ZNK8hb_set_t4maskEj,"axG",%progbits,_ZNK8hb_set_t4maskEj,comdat
	.align	2
	.weak	_ZNK8hb_set_t4maskEj
	.thumb
	.thumb_func
	.type	_ZNK8hb_set_t4maskEj, %function
_ZNK8hb_set_t4maskEj:
	.fnstart
.LFB186:
	@ args = 0, pretend = 0, frame = 8
	@ frame_needed = 1, uses_anonymous_args = 0
	@ link register save eliminated.
	push	{r7}
	sub	sp, sp, #12
	add	r7, sp, #0
	str	r0, [r7, #4]
	str	r1, [r7]
	ldr	r3, [r7]
	and	r3, r3, #31
	movs	r2, #1
	lsl	r3, r2, r3
	mov	r0, r3
	adds	r7, r7, #12
	mov	sp, r7
	@ sp needed
	ldr	r7, [sp], #4
	bx	lr
	.cantunwind
	.fnend
	.size	_ZNK8hb_set_t4maskEj, .-_ZNK8hb_set_t4maskEj
	.section	.text._ZN33hb_ot_layout_lookup_accelerator_t4finiEv,"axG",%progbits,_ZN33hb_ot_layout_lookup_accelerator_t4finiEv,comdat
	.align	2
	.weak	_ZN33hb_ot_layout_lookup_accelerator_t4finiEv
	.thumb
	.thumb_func
	.type	_ZN33hb_ot_layout_lookup_accelerator_t4finiEv, %function
_ZN33hb_ot_layout_lookup_accelerator_t4finiEv:
	.fnstart
.LFB188:
	@ args = 0, pretend = 0, frame = 8
	@ frame_needed = 1, uses_anonymous_args = 0
	@ link register save eliminated.
	push	{r7}
	sub	sp, sp, #12
	add	r7, sp, #0
	str	r0, [r7, #4]
	adds	r7, r7, #12
	mov	sp, r7
	@ sp needed
	ldr	r7, [sp], #4
	bx	lr
	.cantunwind
	.fnend
	.size	_ZN33hb_ot_layout_lookup_accelerator_t4finiEv, .-_ZN33hb_ot_layout_lookup_accelerator_t4finiEv
	.section	.text._ZL35_hb_glyph_info_set_general_categoryP15hb_glyph_info_t29hb_unicode_general_category_t,"ax",%progbits
	.align	2
	.thumb
	.thumb_func
	.type	_ZL35_hb_glyph_info_set_general_categoryP15hb_glyph_info_t29hb_unicode_general_category_t, %function
_ZL35_hb_glyph_info_set_general_categoryP15hb_glyph_info_t29hb_unicode_general_category_t:
	.fnstart
.LFB190:
	@ args = 0, pretend = 0, frame = 8
	@ frame_needed = 1, uses_anonymous_args = 0
	@ link register save eliminated.
	push	{r7}
	sub	sp, sp, #12
	add	r7, sp, #0
	str	r0, [r7, #4]
	str	r1, [r7]
	ldr	r3, [r7, #4]
	ldrb	r3, [r3, #16]	@ zero_extendqisi2
	bic	r3, r3, #31
	uxtb	r2, r3
	ldr	r3, [r7]
	uxtb	r3, r3
	orrs	r3, r3, r2
	uxtb	r2, r3
	ldr	r3, [r7, #4]
	strb	r2, [r3, #16]
	adds	r7, r7, #12
	mov	sp, r7
	@ sp needed
	ldr	r7, [sp], #4
	bx	lr
	.cantunwind
	.fnend
	.size	_ZL35_hb_glyph_info_set_general_categoryP15hb_glyph_info_t29hb_unicode_general_category_t, .-_ZL35_hb_glyph_info_set_general_categoryP15hb_glyph_info_t29hb_unicode_general_category_t
	.section	.text._ZL35_hb_glyph_info_get_general_categoryPK15hb_glyph_info_t,"ax",%progbits
	.align	2
	.thumb
	.thumb_func
	.type	_ZL35_hb_glyph_info_get_general_categoryPK15hb_glyph_info_t, %function
_ZL35_hb_glyph_info_get_general_categoryPK15hb_glyph_info_t:
	.fnstart
.LFB191:
	@ args = 0, pretend = 0, frame = 8
	@ frame_needed = 1, uses_anonymous_args = 0
	@ link register save eliminated.
	push	{r7}
	sub	sp, sp, #12
	add	r7, sp, #0
	str	r0, [r7, #4]
	ldr	r3, [r7, #4]
	ldrb	r3, [r3, #16]	@ zero_extendqisi2
	and	r3, r3, #31
	mov	r0, r3
	adds	r7, r7, #12
	mov	sp, r7
	@ sp needed
	ldr	r7, [sp], #4
	bx	lr
	.cantunwind
	.fnend
	.size	_ZL35_hb_glyph_info_get_general_categoryPK15hb_glyph_info_t, .-_ZL35_hb_glyph_info_get_general_categoryPK15hb_glyph_info_t
	.section	.text._ZL43_hb_glyph_info_set_modified_combining_classP15hb_glyph_info_tj,"ax",%progbits
	.align	2
	.thumb
	.thumb_func
	.type	_ZL43_hb_glyph_info_set_modified_combining_classP15hb_glyph_info_tj, %function
_ZL43_hb_glyph_info_set_modified_combining_classP15hb_glyph_info_tj:
	.fnstart
.LFB192:
	@ args = 0, pretend = 0, frame = 8
	@ frame_needed = 1, uses_anonymous_args = 0
	@ link register save eliminated.
	push	{r7}
	sub	sp, sp, #12
	add	r7, sp, #0
	str	r0, [r7, #4]
	str	r1, [r7]
	ldr	r3, [r7]
	uxtb	r2, r3
	ldr	r3, [r7, #4]
	strb	r2, [r3, #17]
	adds	r7, r7, #12
	mov	sp, r7
	@ sp needed
	ldr	r7, [sp], #4
	bx	lr
	.cantunwind
	.fnend
	.size	_ZL43_hb_glyph_info_set_modified_combining_classP15hb_glyph_info_tj, .-_ZL43_hb_glyph_info_set_modified_combining_classP15hb_glyph_info_tj
	.section	.text._ZL35_hb_glyph_info_is_default_ignorablePK15hb_glyph_info_t,"ax",%progbits
	.align	2
	.thumb
	.thumb_func
	.type	_ZL35_hb_glyph_info_is_default_ignorablePK15hb_glyph_info_t, %function
_ZL35_hb_glyph_info_is_default_ignorablePK15hb_glyph_info_t:
	.fnstart
.LFB194:
	@ args = 0, pretend = 0, frame = 8
	@ frame_needed = 1, uses_anonymous_args = 0
	@ link register save eliminated.
	push	{r7}
	sub	sp, sp, #12
	add	r7, sp, #0
	str	r0, [r7, #4]
	ldr	r3, [r7, #4]
	ldrb	r3, [r3, #16]	@ zero_extendqisi2
	uxtb	r3, r3
	lsrs	r3, r3, #7
	uxtb	r3, r3
	mov	r0, r3
	adds	r7, r7, #12
	mov	sp, r7
	@ sp needed
	ldr	r7, [sp], #4
	bx	lr
	.cantunwind
	.fnend
	.size	_ZL35_hb_glyph_info_is_default_ignorablePK15hb_glyph_info_t, .-_ZL35_hb_glyph_info_is_default_ignorablePK15hb_glyph_info_t
	.section	.text._ZL22_hb_glyph_info_is_zwnjPK15hb_glyph_info_t,"ax",%progbits
	.align	2
	.thumb
	.thumb_func
	.type	_ZL22_hb_glyph_info_is_zwnjPK15hb_glyph_info_t, %function
_ZL22_hb_glyph_info_is_zwnjPK15hb_glyph_info_t:
	.fnstart
.LFB195:
	@ args = 0, pretend = 0, frame = 8
	@ frame_needed = 1, uses_anonymous_args = 0
	@ link register save eliminated.
	push	{r7}
	sub	sp, sp, #12
	add	r7, sp, #0
	str	r0, [r7, #4]
	ldr	r3, [r7, #4]
	ldrb	r3, [r3, #16]	@ zero_extendqisi2
	and	r3, r3, #64
	cmp	r3, #0
	ite	ne
	movne	r3, #1
	moveq	r3, #0
	uxtb	r3, r3
	mov	r0, r3
	adds	r7, r7, #12
	mov	sp, r7
	@ sp needed
	ldr	r7, [sp], #4
	bx	lr
	.cantunwind
	.fnend
	.size	_ZL22_hb_glyph_info_is_zwnjPK15hb_glyph_info_t, .-_ZL22_hb_glyph_info_is_zwnjPK15hb_glyph_info_t
	.section	.text._ZL21_hb_glyph_info_is_zwjPK15hb_glyph_info_t,"ax",%progbits
	.align	2
	.thumb
	.thumb_func
	.type	_ZL21_hb_glyph_info_is_zwjPK15hb_glyph_info_t, %function
_ZL21_hb_glyph_info_is_zwjPK15hb_glyph_info_t:
	.fnstart
.LFB196:
	@ args = 0, pretend = 0, frame = 8
	@ frame_needed = 1, uses_anonymous_args = 0
	@ link register save eliminated.
	push	{r7}
	sub	sp, sp, #12
	add	r7, sp, #0
	str	r0, [r7, #4]
	ldr	r3, [r7, #4]
	ldrb	r3, [r3, #16]	@ zero_extendqisi2
	and	r3, r3, #32
	cmp	r3, #0
	ite	ne
	movne	r3, #1
	moveq	r3, #0
	uxtb	r3, r3
	mov	r0, r3
	adds	r7, r7, #12
	mov	sp, r7
	@ sp needed
	ldr	r7, [sp], #4
	bx	lr
	.cantunwind
	.fnend
	.size	_ZL21_hb_glyph_info_is_zwjPK15hb_glyph_info_t, .-_ZL21_hb_glyph_info_is_zwjPK15hb_glyph_info_t
	.section	.text._ZL30_hb_glyph_info_clear_lig_propsP15hb_glyph_info_t,"ax",%progbits
	.align	2
	.thumb
	.thumb_func
	.type	_ZL30_hb_glyph_info_clear_lig_propsP15hb_glyph_info_t, %function
_ZL30_hb_glyph_info_clear_lig_propsP15hb_glyph_info_t:
	.fnstart
.LFB198:
	@ args = 0, pretend = 0, frame = 8
	@ frame_needed = 1, uses_anonymous_args = 0
	@ link register save eliminated.
	push	{r7}
	sub	sp, sp, #12
	add	r7, sp, #0
	str	r0, [r7, #4]
	ldr	r3, [r7, #4]
	movs	r2, #0
	strb	r2, [r3, #14]
	adds	r7, r7, #12
	mov	sp, r7
	@ sp needed
	ldr	r7, [sp], #4
	bx	lr
	.cantunwind
	.fnend
	.size	_ZL30_hb_glyph_info_clear_lig_propsP15hb_glyph_info_t, .-_ZL30_hb_glyph_info_clear_lig_propsP15hb_glyph_info_t
	.section	.text._ZL41_hb_glyph_info_set_lig_props_for_ligatureP15hb_glyph_info_tjj,"ax",%progbits
	.align	2
	.thumb
	.thumb_func
	.type	_ZL41_hb_glyph_info_set_lig_props_for_ligatureP15hb_glyph_info_tjj, %function
_ZL41_hb_glyph_info_set_lig_props_for_ligatureP15hb_glyph_info_tjj:
	.fnstart
.LFB199:
	@ args = 0, pretend = 0, frame = 16
	@ frame_needed = 1, uses_anonymous_args = 0
	@ link register save eliminated.
	push	{r7}
	sub	sp, sp, #20
	add	r7, sp, #0
	str	r0, [r7, #12]
	str	r1, [r7, #8]
	str	r2, [r7, #4]
	ldr	r3, [r7, #8]
	uxtb	r3, r3
	lsls	r3, r3, #5
	uxtb	r2, r3
	ldr	r3, [r7, #4]
	uxtb	r3, r3
	and	r3, r3, #15
	uxtb	r3, r3
	orrs	r3, r3, r2
	uxtb	r3, r3
	orr	r3, r3, #16
	uxtb	r2, r3
	ldr	r3, [r7, #12]
	strb	r2, [r3, #14]
	adds	r7, r7, #20
	mov	sp, r7
	@ sp needed
	ldr	r7, [sp], #4
	bx	lr
	.cantunwind
	.fnend
	.size	_ZL41_hb_glyph_info_set_lig_props_for_ligatureP15hb_glyph_info_tjj, .-_ZL41_hb_glyph_info_set_lig_props_for_ligatureP15hb_glyph_info_tjj
	.section	.text._ZL37_hb_glyph_info_set_lig_props_for_markP15hb_glyph_info_tjj,"ax",%progbits
	.align	2
	.thumb
	.thumb_func
	.type	_ZL37_hb_glyph_info_set_lig_props_for_markP15hb_glyph_info_tjj, %function
_ZL37_hb_glyph_info_set_lig_props_for_markP15hb_glyph_info_tjj:
	.fnstart
.LFB200:
	@ args = 0, pretend = 0, frame = 16
	@ frame_needed = 1, uses_anonymous_args = 0
	@ link register save eliminated.
	push	{r7}
	sub	sp, sp, #20
	add	r7, sp, #0
	str	r0, [r7, #12]
	str	r1, [r7, #8]
	str	r2, [r7, #4]
	ldr	r3, [r7, #8]
	uxtb	r3, r3
	lsls	r3, r3, #5
	uxtb	r2, r3
	ldr	r3, [r7, #4]
	uxtb	r3, r3
	and	r3, r3, #15
	uxtb	r3, r3
	orrs	r3, r3, r2
	uxtb	r2, r3
	ldr	r3, [r7, #12]
	strb	r2, [r3, #14]
	adds	r7, r7, #20
	mov	sp, r7
	@ sp needed
	ldr	r7, [sp], #4
	bx	lr
	.cantunwind
	.fnend
	.size	_ZL37_hb_glyph_info_set_lig_props_for_markP15hb_glyph_info_tjj, .-_ZL37_hb_glyph_info_set_lig_props_for_markP15hb_glyph_info_tjj
	.section	.text._ZL42_hb_glyph_info_set_lig_props_for_componentP15hb_glyph_info_tj,"ax",%progbits
	.align	2
	.thumb
	.thumb_func
	.type	_ZL42_hb_glyph_info_set_lig_props_for_componentP15hb_glyph_info_tj, %function
_ZL42_hb_glyph_info_set_lig_props_for_componentP15hb_glyph_info_tj:
	.fnstart
.LFB201:
	@ args = 0, pretend = 0, frame = 8
	@ frame_needed = 1, uses_anonymous_args = 0
	push	{r7, lr}
	sub	sp, sp, #8
	add	r7, sp, #0
	str	r0, [r7, #4]
	str	r1, [r7]
	ldr	r0, [r7, #4]
	movs	r1, #0
	ldr	r2, [r7]
	bl	_ZL37_hb_glyph_info_set_lig_props_for_markP15hb_glyph_info_tjj(PLT)
	adds	r7, r7, #8
	mov	sp, r7
	@ sp needed
	pop	{r7, pc}
	.cantunwind
	.fnend
	.size	_ZL42_hb_glyph_info_set_lig_props_for_componentP15hb_glyph_info_tj, .-_ZL42_hb_glyph_info_set_lig_props_for_componentP15hb_glyph_info_tj
	.section	.text._ZL25_hb_glyph_info_get_lig_idPK15hb_glyph_info_t,"ax",%progbits
	.align	2
	.thumb
	.thumb_func
	.type	_ZL25_hb_glyph_info_get_lig_idPK15hb_glyph_info_t, %function
_ZL25_hb_glyph_info_get_lig_idPK15hb_glyph_info_t:
	.fnstart
.LFB202:
	@ args = 0, pretend = 0, frame = 8
	@ frame_needed = 1, uses_anonymous_args = 0
	@ link register save eliminated.
	push	{r7}
	sub	sp, sp, #12
	add	r7, sp, #0
	str	r0, [r7, #4]
	ldr	r3, [r7, #4]
	ldrb	r3, [r3, #14]	@ zero_extendqisi2
	asrs	r3, r3, #5
	mov	r0, r3
	adds	r7, r7, #12
	mov	sp, r7
	@ sp needed
	ldr	r7, [sp], #4
	bx	lr
	.cantunwind
	.fnend
	.size	_ZL25_hb_glyph_info_get_lig_idPK15hb_glyph_info_t, .-_ZL25_hb_glyph_info_get_lig_idPK15hb_glyph_info_t
	.section	.text._ZL31_hb_glyph_info_ligated_internalPK15hb_glyph_info_t,"ax",%progbits
	.align	2
	.thumb
	.thumb_func
	.type	_ZL31_hb_glyph_info_ligated_internalPK15hb_glyph_info_t, %function
_ZL31_hb_glyph_info_ligated_internalPK15hb_glyph_info_t:
	.fnstart
.LFB203:
	@ args = 0, pretend = 0, frame = 8
	@ frame_needed = 1, uses_anonymous_args = 0
	@ link register save eliminated.
	push	{r7}
	sub	sp, sp, #12
	add	r7, sp, #0
	str	r0, [r7, #4]
	ldr	r3, [r7, #4]
	ldrb	r3, [r3, #14]	@ zero_extendqisi2
	and	r3, r3, #16
	cmp	r3, #0
	ite	ne
	movne	r3, #1
	moveq	r3, #0
	uxtb	r3, r3
	mov	r0, r3
	adds	r7, r7, #12
	mov	sp, r7
	@ sp needed
	ldr	r7, [sp], #4
	bx	lr
	.cantunwind
	.fnend
	.size	_ZL31_hb_glyph_info_ligated_internalPK15hb_glyph_info_t, .-_ZL31_hb_glyph_info_ligated_internalPK15hb_glyph_info_t
	.section	.text._ZL27_hb_glyph_info_get_lig_compPK15hb_glyph_info_t,"ax",%progbits
	.align	2
	.thumb
	.thumb_func
	.type	_ZL27_hb_glyph_info_get_lig_compPK15hb_glyph_info_t, %function
_ZL27_hb_glyph_info_get_lig_compPK15hb_glyph_info_t:
	.fnstart
.LFB204:
	@ args = 0, pretend = 0, frame = 8
	@ frame_needed = 1, uses_anonymous_args = 0
	push	{r7, lr}
	sub	sp, sp, #8
	add	r7, sp, #0
	str	r0, [r7, #4]
	ldr	r0, [r7, #4]
	bl	_ZL31_hb_glyph_info_ligated_internalPK15hb_glyph_info_t(PLT)
	mov	r3, r0
	cmp	r3, #0
	beq	.L124
	movs	r3, #0
	b	.L125
.L124:
	ldr	r3, [r7, #4]
	ldrb	r3, [r3, #14]	@ zero_extendqisi2
	and	r3, r3, #15
.L125:
	mov	r0, r3
	adds	r7, r7, #8
	mov	sp, r7
	@ sp needed
	pop	{r7, pc}
	.cantunwind
	.fnend
	.size	_ZL27_hb_glyph_info_get_lig_compPK15hb_glyph_info_t, .-_ZL27_hb_glyph_info_get_lig_compPK15hb_glyph_info_t
	.section	.text._ZL32_hb_glyph_info_get_lig_num_compsPK15hb_glyph_info_t,"ax",%progbits
	.align	2
	.thumb
	.thumb_func
	.type	_ZL32_hb_glyph_info_get_lig_num_compsPK15hb_glyph_info_t, %function
_ZL32_hb_glyph_info_get_lig_num_compsPK15hb_glyph_info_t:
	.fnstart
.LFB205:
	@ args = 0, pretend = 0, frame = 8
	@ frame_needed = 1, uses_anonymous_args = 0
	push	{r7, lr}
	sub	sp, sp, #8
	add	r7, sp, #0
	str	r0, [r7, #4]
	ldr	r3, [r7, #4]
	ldrh	r3, [r3, #12]
	and	r3, r3, #4
	cmp	r3, #0
	beq	.L127
	ldr	r0, [r7, #4]
	bl	_ZL31_hb_glyph_info_ligated_internalPK15hb_glyph_info_t(PLT)
	mov	r3, r0
	cmp	r3, #0
	beq	.L127
	movs	r3, #1
	b	.L128
.L127:
	movs	r3, #0
.L128:
	cmp	r3, #0
	beq	.L129
	ldr	r3, [r7, #4]
	ldrb	r3, [r3, #14]	@ zero_extendqisi2
	and	r3, r3, #15
	b	.L130
.L129:
	movs	r3, #1
.L130:
	mov	r0, r3
	adds	r7, r7, #8
	mov	sp, r7
	@ sp needed
	pop	{r7, pc}
	.cantunwind
	.fnend
	.size	_ZL32_hb_glyph_info_get_lig_num_compsPK15hb_glyph_info_t, .-_ZL32_hb_glyph_info_get_lig_num_compsPK15hb_glyph_info_t
	.section	.text._ZL19_hb_allocate_lig_idP11hb_buffer_t,"ax",%progbits
	.align	2
	.thumb
	.thumb_func
	.type	_ZL19_hb_allocate_lig_idP11hb_buffer_t, %function
_ZL19_hb_allocate_lig_idP11hb_buffer_t:
	.fnstart
.LFB206:
	@ args = 0, pretend = 0, frame = 16
	@ frame_needed = 1, uses_anonymous_args = 0
	push	{r7, lr}
	.save {r7, lr}
	.pad #16
	sub	sp, sp, #16
	.setfp r7, sp, #0
	add	r7, sp, #0
	str	r0, [r7, #4]
	ldr	r0, [r7, #4]
	bl	_ZN11hb_buffer_t11next_serialEv(PLT)
	mov	r3, r0
	uxtb	r3, r3
	and	r3, r3, #7
	strb	r3, [r7, #15]
	ldrb	r3, [r7, #15]	@ zero_extendqisi2
	cmp	r3, #0
	bne	.L132
	ldr	r0, [r7, #4]
	bl	_ZL19_hb_allocate_lig_idP11hb_buffer_t(PLT)
	mov	r3, r0
	strb	r3, [r7, #15]
.L132:
	ldrb	r3, [r7, #15]	@ zero_extendqisi2
	mov	r0, r3
	adds	r7, r7, #16
	mov	sp, r7
	@ sp needed
	pop	{r7, pc}
	.fnend
	.size	_ZL19_hb_allocate_lig_idP11hb_buffer_t, .-_ZL19_hb_allocate_lig_idP11hb_buffer_t
	.section	.text._ZL30_hb_glyph_info_set_glyph_propsP15hb_glyph_info_tj,"ax",%progbits
	.align	2
	.thumb
	.thumb_func
	.type	_ZL30_hb_glyph_info_set_glyph_propsP15hb_glyph_info_tj, %function
_ZL30_hb_glyph_info_set_glyph_propsP15hb_glyph_info_tj:
	.fnstart
.LFB207:
	@ args = 0, pretend = 0, frame = 8
	@ frame_needed = 1, uses_anonymous_args = 0
	@ link register save eliminated.
	push	{r7}
	sub	sp, sp, #12
	add	r7, sp, #0
	str	r0, [r7, #4]
	str	r1, [r7]
	ldr	r3, [r7]
	uxth	r2, r3
	ldr	r3, [r7, #4]
	strh	r2, [r3, #12]	@ movhi
	adds	r7, r7, #12
	mov	sp, r7
	@ sp needed
	ldr	r7, [sp], #4
	bx	lr
	.cantunwind
	.fnend
	.size	_ZL30_hb_glyph_info_set_glyph_propsP15hb_glyph_info_tj, .-_ZL30_hb_glyph_info_set_glyph_propsP15hb_glyph_info_tj
	.section	.text._ZL30_hb_glyph_info_get_glyph_propsPK15hb_glyph_info_t,"ax",%progbits
	.align	2
	.thumb
	.thumb_func
	.type	_ZL30_hb_glyph_info_get_glyph_propsPK15hb_glyph_info_t, %function
_ZL30_hb_glyph_info_get_glyph_propsPK15hb_glyph_info_t:
	.fnstart
.LFB208:
	@ args = 0, pretend = 0, frame = 8
	@ frame_needed = 1, uses_anonymous_args = 0
	@ link register save eliminated.
	push	{r7}
	sub	sp, sp, #12
	add	r7, sp, #0
	str	r0, [r7, #4]
	ldr	r3, [r7, #4]
	ldrh	r3, [r3, #12]
	mov	r0, r3
	adds	r7, r7, #12
	mov	sp, r7
	@ sp needed
	ldr	r7, [sp], #4
	bx	lr
	.cantunwind
	.fnend
	.size	_ZL30_hb_glyph_info_get_glyph_propsPK15hb_glyph_info_t, .-_ZL30_hb_glyph_info_get_glyph_propsPK15hb_glyph_info_t
	.section	.text._ZL28_hb_glyph_info_is_base_glyphPK15hb_glyph_info_t,"ax",%progbits
	.align	2
	.thumb
	.thumb_func
	.type	_ZL28_hb_glyph_info_is_base_glyphPK15hb_glyph_info_t, %function
_ZL28_hb_glyph_info_is_base_glyphPK15hb_glyph_info_t:
	.fnstart
.LFB209:
	@ args = 0, pretend = 0, frame = 8
	@ frame_needed = 1, uses_anonymous_args = 0
	@ link register save eliminated.
	push	{r7}
	sub	sp, sp, #12
	add	r7, sp, #0
	str	r0, [r7, #4]
	ldr	r3, [r7, #4]
	ldrh	r3, [r3, #12]
	and	r3, r3, #2
	cmp	r3, #0
	ite	ne
	movne	r3, #1
	moveq	r3, #0
	uxtb	r3, r3
	mov	r0, r3
	adds	r7, r7, #12
	mov	sp, r7
	@ sp needed
	ldr	r7, [sp], #4
	bx	lr
	.cantunwind
	.fnend
	.size	_ZL28_hb_glyph_info_is_base_glyphPK15hb_glyph_info_t, .-_ZL28_hb_glyph_info_is_base_glyphPK15hb_glyph_info_t
	.section	.text._ZL26_hb_glyph_info_is_ligaturePK15hb_glyph_info_t,"ax",%progbits
	.align	2
	.thumb
	.thumb_func
	.type	_ZL26_hb_glyph_info_is_ligaturePK15hb_glyph_info_t, %function
_ZL26_hb_glyph_info_is_ligaturePK15hb_glyph_info_t:
	.fnstart
.LFB210:
	@ args = 0, pretend = 0, frame = 8
	@ frame_needed = 1, uses_anonymous_args = 0
	@ link register save eliminated.
	push	{r7}
	sub	sp, sp, #12
	add	r7, sp, #0
	str	r0, [r7, #4]
	ldr	r3, [r7, #4]
	ldrh	r3, [r3, #12]
	and	r3, r3, #4
	cmp	r3, #0
	ite	ne
	movne	r3, #1
	moveq	r3, #0
	uxtb	r3, r3
	mov	r0, r3
	adds	r7, r7, #12
	mov	sp, r7
	@ sp needed
	ldr	r7, [sp], #4
	bx	lr
	.cantunwind
	.fnend
	.size	_ZL26_hb_glyph_info_is_ligaturePK15hb_glyph_info_t, .-_ZL26_hb_glyph_info_is_ligaturePK15hb_glyph_info_t
	.section	.text._ZL22_hb_glyph_info_is_markPK15hb_glyph_info_t,"ax",%progbits
	.align	2
	.thumb
	.thumb_func
	.type	_ZL22_hb_glyph_info_is_markPK15hb_glyph_info_t, %function
_ZL22_hb_glyph_info_is_markPK15hb_glyph_info_t:
	.fnstart
.LFB211:
	@ args = 0, pretend = 0, frame = 8
	@ frame_needed = 1, uses_anonymous_args = 0
	@ link register save eliminated.
	push	{r7}
	sub	sp, sp, #12
	add	r7, sp, #0
	str	r0, [r7, #4]
	ldr	r3, [r7, #4]
	ldrh	r3, [r3, #12]
	and	r3, r3, #8
	cmp	r3, #0
	ite	ne
	movne	r3, #1
	moveq	r3, #0
	uxtb	r3, r3
	mov	r0, r3
	adds	r7, r7, #12
	mov	sp, r7
	@ sp needed
	ldr	r7, [sp], #4
	bx	lr
	.cantunwind
	.fnend
	.size	_ZL22_hb_glyph_info_is_markPK15hb_glyph_info_t, .-_ZL22_hb_glyph_info_is_markPK15hb_glyph_info_t
	.section	.text._ZL22_hb_glyph_info_ligatedPK15hb_glyph_info_t,"ax",%progbits
	.align	2
	.thumb
	.thumb_func
	.type	_ZL22_hb_glyph_info_ligatedPK15hb_glyph_info_t, %function
_ZL22_hb_glyph_info_ligatedPK15hb_glyph_info_t:
	.fnstart
.LFB213:
	@ args = 0, pretend = 0, frame = 8
	@ frame_needed = 1, uses_anonymous_args = 0
	@ link register save eliminated.
	push	{r7}
	sub	sp, sp, #12
	add	r7, sp, #0
	str	r0, [r7, #4]
	ldr	r3, [r7, #4]
	ldrh	r3, [r3, #12]
	and	r3, r3, #32
	cmp	r3, #0
	ite	ne
	movne	r3, #1
	moveq	r3, #0
	uxtb	r3, r3
	mov	r0, r3
	adds	r7, r7, #12
	mov	sp, r7
	@ sp needed
	ldr	r7, [sp], #4
	bx	lr
	.cantunwind
	.fnend
	.size	_ZL22_hb_glyph_info_ligatedPK15hb_glyph_info_t, .-_ZL22_hb_glyph_info_ligatedPK15hb_glyph_info_t
	.section	.rodata
	.align	2
.LC0:
	.ascii	"glyph_props\000"
	.align	2
.LC1:
	.ascii	"lig_props\000"
	.align	2
.LC2:
	.ascii	"syllable\000"
	.section	.text._ZL31_hb_buffer_assert_gsubgpos_varsP11hb_buffer_t,"ax",%progbits
	.align	2
	.thumb
	.thumb_func
	.type	_ZL31_hb_buffer_assert_gsubgpos_varsP11hb_buffer_t, %function
_ZL31_hb_buffer_assert_gsubgpos_varsP11hb_buffer_t:
	.fnstart
.LFB222:
	@ args = 0, pretend = 0, frame = 8
	@ frame_needed = 1, uses_anonymous_args = 0
	push	{r7, lr}
	.save {r7, lr}
	.pad #8
	sub	sp, sp, #8
	.setfp r7, sp, #0
	add	r7, sp, #0
	str	r0, [r7, #4]
	ldr	r0, [r7, #4]
	movs	r1, #0
	movs	r2, #2
	ldr	r3, .L146
.LPIC0:
	add	r3, pc
	bl	_ZN11hb_buffer_t10assert_varEjjPKc(PLT)
	ldr	r0, [r7, #4]
	movs	r1, #2
	movs	r2, #1
	ldr	r3, .L146+4
.LPIC1:
	add	r3, pc
	bl	_ZN11hb_buffer_t10assert_varEjjPKc(PLT)
	ldr	r0, [r7, #4]
	movs	r1, #3
	movs	r2, #1
	ldr	r3, .L146+8
.LPIC2:
	add	r3, pc
	bl	_ZN11hb_buffer_t10assert_varEjjPKc(PLT)
	adds	r7, r7, #8
	mov	sp, r7
	@ sp needed
	pop	{r7, pc}
.L147:
	.align	2
.L146:
	.word	.LC0-(.LPIC0+4)
	.word	.LC1-(.LPIC1+4)
	.word	.LC2-(.LPIC2+4)
	.fnend
	.size	_ZL31_hb_buffer_assert_gsubgpos_varsP11hb_buffer_t, .-_ZL31_hb_buffer_assert_gsubgpos_varsP11hb_buffer_t
	.section	.bss._ZN2OTL9_NullPoolE,"aw",%nobits
	.align	2
	.type	_ZN2OTL9_NullPoolE, %object
	.size	_ZN2OTL9_NullPoolE, 264
_ZN2OTL9_NullPoolE:
	.space	264
	.section	.rodata
	.align	2
.LC3:
	.ascii	"SANITIZE\000"
	.section	.text._ZN2OT21hb_sanitize_context_t8get_nameEv,"axG",%progbits,_ZN2OT21hb_sanitize_context_t8get_nameEv,comdat
	.align	2
	.weak	_ZN2OT21hb_sanitize_context_t8get_nameEv
	.thumb
	.thumb_func
	.type	_ZN2OT21hb_sanitize_context_t8get_nameEv, %function
_ZN2OT21hb_sanitize_context_t8get_nameEv:
	.fnstart
.LFB232:
	@ args = 0, pretend = 0, frame = 8
	@ frame_needed = 1, uses_anonymous_args = 0
	@ link register save eliminated.
	push	{r7}
	sub	sp, sp, #12
	add	r7, sp, #0
	str	r0, [r7, #4]
	ldr	r3, .L150
.LPIC3:
	add	r3, pc
	mov	r0, r3
	adds	r7, r7, #12
	mov	sp, r7
	@ sp needed
	ldr	r7, [sp], #4
	bx	lr
.L151:
	.align	2
.L150:
	.word	.LC3-(.LPIC3+4)
	.cantunwind
	.fnend
	.size	_ZN2OT21hb_sanitize_context_t8get_nameEv, .-_ZN2OT21hb_sanitize_context_t8get_nameEv
	.section	.text._ZN2OT21hb_sanitize_context_t4initEP9hb_blob_t,"axG",%progbits,_ZN2OT21hb_sanitize_context_t4initEP9hb_blob_t,comdat
	.align	2
	.weak	_ZN2OT21hb_sanitize_context_t4initEP9hb_blob_t
	.thumb
	.thumb_func
	.type	_ZN2OT21hb_sanitize_context_t4initEP9hb_blob_t, %function
_ZN2OT21hb_sanitize_context_t4initEP9hb_blob_t:
	.fnstart
.LFB236:
	@ args = 0, pretend = 0, frame = 8
	@ frame_needed = 1, uses_anonymous_args = 0
	push	{r7, lr}
	.save {r7, lr}
	.pad #8
	sub	sp, sp, #8
	.setfp r7, sp, #0
	add	r7, sp, #0
	str	r0, [r7, #4]
	str	r1, [r7]
	ldr	r0, [r7]
	bl	hb_blob_reference(PLT)
	mov	r2, r0
	ldr	r3, [r7, #4]
	str	r2, [r3, #20]
	ldr	r3, [r7, #4]
	movs	r2, #0
	strb	r2, [r3, #12]
	adds	r7, r7, #8
	mov	sp, r7
	@ sp needed
	pop	{r7, pc}
	.fnend
	.size	_ZN2OT21hb_sanitize_context_t4initEP9hb_blob_t, .-_ZN2OT21hb_sanitize_context_t4initEP9hb_blob_t
	.section	.rodata
	.align	2
.LC4:
	.ascii	"this->start <= this->end\000"
	.align	2
.LC5:
	.ascii	"../../../libs/harfbuzz-ng/src/hb-open-type-private."
	.ascii	"hh\000"
	.align	2
.LC6:
	.ascii	"start [%p..%p] (%lu bytes)\000"
	.section	.text._ZN2OT21hb_sanitize_context_t16start_processingEv,"axG",%progbits,_ZN2OT21hb_sanitize_context_t16start_processingEv,comdat
	.align	2
	.weak	_ZN2OT21hb_sanitize_context_t16start_processingEv
	.thumb
	.thumb_func
	.type	_ZN2OT21hb_sanitize_context_t16start_processingEv, %function
_ZN2OT21hb_sanitize_context_t16start_processingEv:
	.fnstart
.LFB237:
	@ args = 0, pretend = 0, frame = 8
	@ frame_needed = 1, uses_anonymous_args = 0
	push	{r4, r7, lr}
	.save {r4, r7, lr}
	.pad #36
	sub	sp, sp, #36
	.setfp r7, sp, #24
	add	r7, sp, #24
	str	r0, [r7, #4]
	ldr	r3, [r7, #4]
	ldr	r3, [r3, #20]
	mov	r0, r3
	movs	r1, #0
	bl	hb_blob_get_data(PLT)
	mov	r2, r0
	ldr	r3, [r7, #4]
	str	r2, [r3, #4]
	ldr	r3, [r7, #4]
	ldr	r4, [r3, #4]
	ldr	r3, [r7, #4]
	ldr	r3, [r3, #20]
	mov	r0, r3
	bl	hb_blob_get_length(PLT)
	mov	r3, r0
	adds	r2, r4, r3
	ldr	r3, [r7, #4]
	str	r2, [r3, #8]
	ldr	r3, [r7, #4]
	ldr	r2, [r3, #4]
	ldr	r3, [r7, #4]
	ldr	r3, [r3, #8]
	cmp	r2, r3
	bls	.L154
	ldr	r3, .L155
.LPIC4:
	add	r3, pc
	mov	r0, r3
	ldr	r3, .L155+4
.LPIC5:
	add	r3, pc
	mov	r1, r3
	movs	r2, #197
	ldr	r3, .L155+8
.LPIC6:
	add	r3, pc
	bl	__assert_fail(PLT)
.L154:
	ldr	r3, [r7, #4]
	movs	r2, #0
	str	r2, [r3, #16]
	ldr	r3, [r7, #4]
	movs	r2, #0
	str	r2, [r3]
	ldr	r3, [r7, #4]
	ldr	r3, [r3, #4]
	ldr	r2, [r7, #4]
	ldr	r0, [r2, #4]
	ldr	r2, [r7, #4]
	ldr	r1, [r2, #8]
	ldr	r2, [r7, #4]
	ldr	r2, [r2, #8]
	mov	r4, r2
	ldr	r2, [r7, #4]
	ldr	r2, [r2, #4]
	subs	r2, r4, r2
	movs	r4, #0
	str	r4, [sp]
	movs	r4, #1
	str	r4, [sp, #4]
	ldr	r4, .L155+12
.LPIC7:
	add	r4, pc
	str	r4, [sp, #8]
	str	r0, [sp, #12]
	str	r1, [sp, #16]
	str	r2, [sp, #20]
	ldr	r2, .L155+16
.LPIC8:
	add	r2, pc
	mov	r0, r2
	mov	r1, r3
	movs	r2, #0
	movs	r3, #1
	bl	_Z13_hb_debug_msgILi0EEvPKcPKvS1_bjiS1_z(PLT)
	adds	r7, r7, #12
	mov	sp, r7
	@ sp needed
	pop	{r4, r7, pc}
.L156:
	.align	2
.L155:
	.word	.LC4-(.LPIC4+4)
	.word	.LC5-(.LPIC5+4)
	.word	_ZZN2OT21hb_sanitize_context_t16start_processingEvE19__PRETTY_FUNCTION__-(.LPIC6+4)
	.word	.LC6-(.LPIC7+4)
	.word	.LC3-(.LPIC8+4)
	.fnend
	.size	_ZN2OT21hb_sanitize_context_t16start_processingEv, .-_ZN2OT21hb_sanitize_context_t16start_processingEv
	.section	.rodata
	.align	2
.LC7:
	.ascii	"end [%p..%p] %u edit requests\000"
	.section	.text._ZN2OT21hb_sanitize_context_t14end_processingEv,"axG",%progbits,_ZN2OT21hb_sanitize_context_t14end_processingEv,comdat
	.align	2
	.weak	_ZN2OT21hb_sanitize_context_t14end_processingEv
	.thumb
	.thumb_func
	.type	_ZN2OT21hb_sanitize_context_t14end_processingEv, %function
_ZN2OT21hb_sanitize_context_t14end_processingEv:
	.fnstart
.LFB238:
	@ args = 0, pretend = 0, frame = 8
	@ frame_needed = 1, uses_anonymous_args = 0
	push	{r4, r7, lr}
	.save {r4, r7, lr}
	.pad #36
	sub	sp, sp, #36
	.setfp r7, sp, #24
	add	r7, sp, #24
	str	r0, [r7, #4]
	ldr	r3, [r7, #4]
	ldr	r3, [r3, #4]
	ldr	r2, [r7, #4]
	ldr	r0, [r2, #4]
	ldr	r2, [r7, #4]
	ldr	r1, [r2, #8]
	ldr	r2, [r7, #4]
	ldr	r2, [r2, #16]
	movs	r4, #0
	str	r4, [sp]
	mov	r4, #-1
	str	r4, [sp, #4]
	ldr	r4, .L158
.LPIC9:
	add	r4, pc
	str	r4, [sp, #8]
	str	r0, [sp, #12]
	str	r1, [sp, #16]
	str	r2, [sp, #20]
	ldr	r2, .L158+4
.LPIC10:
	add	r2, pc
	mov	r0, r2
	mov	r1, r3
	movs	r2, #0
	movs	r3, #1
	bl	_Z13_hb_debug_msgILi0EEvPKcPKvS1_bjiS1_z(PLT)
	ldr	r3, [r7, #4]
	ldr	r3, [r3, #20]
	mov	r0, r3
	bl	hb_blob_destroy(PLT)
	ldr	r3, [r7, #4]
	movs	r2, #0
	str	r2, [r3, #20]
	ldr	r3, [r7, #4]
	movs	r2, #0
	str	r2, [r3, #8]
	ldr	r3, [r7, #4]
	ldr	r2, [r3, #8]
	ldr	r3, [r7, #4]
	str	r2, [r3, #4]
	adds	r7, r7, #12
	mov	sp, r7
	@ sp needed
	pop	{r4, r7, pc}
.L159:
	.align	2
.L158:
	.word	.LC7-(.LPIC9+4)
	.word	.LC3-(.LPIC10+4)
	.fnend
	.size	_ZN2OT21hb_sanitize_context_t14end_processingEv, .-_ZN2OT21hb_sanitize_context_t14end_processingEv
	.section	.rodata
	.align	2
.LC8:
	.ascii	"OK\000"
	.align	2
.LC9:
	.ascii	"OUT-OF-RANGE\000"
	.align	2
.LC10:
	.ascii	"check_range [%p..%p] (%d bytes) in [%p..%p] -> %s\000"
	.section	.text._ZNK2OT21hb_sanitize_context_t11check_rangeEPKvj,"axG",%progbits,_ZNK2OT21hb_sanitize_context_t11check_rangeEPKvj,comdat
	.align	2
	.weak	_ZNK2OT21hb_sanitize_context_t11check_rangeEPKvj
	.thumb
	.thumb_func
	.type	_ZNK2OT21hb_sanitize_context_t11check_rangeEPKvj, %function
_ZNK2OT21hb_sanitize_context_t11check_rangeEPKvj:
	.fnstart
.LFB239:
	@ args = 0, pretend = 0, frame = 24
	@ frame_needed = 1, uses_anonymous_args = 0
	push	{r4, r7, lr}
	sub	sp, sp, #68
	add	r7, sp, #40
	str	r0, [r7, #12]
	str	r1, [r7, #8]
	str	r2, [r7, #4]
	ldr	r3, [r7, #8]
	str	r3, [r7, #20]
	ldr	r3, [r7, #12]
	ldr	r2, [r3, #4]
	ldr	r3, [r7, #20]
	cmp	r2, r3
	bhi	.L161
	ldr	r3, [r7, #12]
	ldr	r2, [r3, #8]
	ldr	r3, [r7, #20]
	cmp	r2, r3
	bcc	.L161
	ldr	r3, [r7, #12]
	ldr	r3, [r3, #8]
	mov	r2, r3
	ldr	r3, [r7, #20]
	subs	r3, r2, r3
	mov	r2, r3
	ldr	r3, [r7, #4]
	cmp	r2, r3
	bcc	.L161
	movs	r3, #1
	b	.L162
.L161:
	movs	r3, #0
.L162:
	strb	r3, [r7, #19]
	ldr	r3, [r7, #12]
	ldr	r3, [r3]
	adds	r4, r3, #1
	ldr	r2, [r7, #20]
	ldr	r3, [r7, #4]
	adds	r0, r2, r3
	ldr	r3, [r7, #12]
	ldr	r1, [r3, #4]
	ldr	r3, [r7, #12]
	ldr	r2, [r3, #8]
	ldrb	r3, [r7, #19]	@ zero_extendqisi2
	cmp	r3, #0
	beq	.L163
	ldr	r3, .L166
.LPIC11:
	add	r3, pc
	b	.L164
.L163:
	ldr	r3, .L166+4
.LPIC12:
	add	r3, pc
.L164:
	str	r4, [sp]
	movs	r4, #0
	str	r4, [sp, #4]
	ldr	r4, .L166+8
.LPIC13:
	add	r4, pc
	str	r4, [sp, #8]
	ldr	r4, [r7, #20]
	str	r4, [sp, #12]
	str	r0, [sp, #16]
	ldr	r0, [r7, #4]
	str	r0, [sp, #20]
	str	r1, [sp, #24]
	str	r2, [sp, #28]
	str	r3, [sp, #32]
	ldr	r3, .L166+12
.LPIC14:
	add	r3, pc
	mov	r0, r3
	ldr	r1, [r7, #20]
	movs	r2, #0
	movs	r3, #1
	bl	_Z13_hb_debug_msgILi0EEvPKcPKvS1_bjiS1_z(PLT)
	ldrb	r3, [r7, #19]	@ zero_extendqisi2
	mov	r0, r3
	adds	r7, r7, #28
	mov	sp, r7
	@ sp needed
	pop	{r4, r7, pc}
.L167:
	.align	2
.L166:
	.word	.LC8-(.LPIC11+4)
	.word	.LC9-(.LPIC12+4)
	.word	.LC10-(.LPIC13+4)
	.word	.LC3-(.LPIC14+4)
	.cantunwind
	.fnend
	.size	_ZNK2OT21hb_sanitize_context_t11check_rangeEPKvj, .-_ZNK2OT21hb_sanitize_context_t11check_rangeEPKvj
	.section	.rodata
	.align	2
.LC11:
	.ascii	"OVERFLOWS\000"
	.align	2
.LC12:
	.ascii	"check_array [%p..%p] (%d*%d=%d bytes) in [%p..%p] -"
	.ascii	"> %s\000"
	.section	.text._ZNK2OT21hb_sanitize_context_t11check_arrayEPKvjj,"axG",%progbits,_ZNK2OT21hb_sanitize_context_t11check_arrayEPKvjj,comdat
	.align	2
	.weak	_ZNK2OT21hb_sanitize_context_t11check_arrayEPKvjj
	.thumb
	.thumb_func
	.type	_ZNK2OT21hb_sanitize_context_t11check_arrayEPKvjj, %function
_ZNK2OT21hb_sanitize_context_t11check_arrayEPKvjj:
	.fnstart
.LFB240:
	@ args = 0, pretend = 0, frame = 32
	@ frame_needed = 1, uses_anonymous_args = 0
	push	{r4, r7, lr}
	sub	sp, sp, #84
	add	r7, sp, #48
	str	r0, [r7, #12]
	str	r1, [r7, #8]
	str	r2, [r7, #4]
	str	r3, [r7]
	ldr	r3, [r7, #8]
	str	r3, [r7, #28]
	ldr	r0, [r7]
	ldr	r1, [r7, #4]
	bl	_ZL30_hb_unsigned_int_mul_overflowsjj(PLT)
	mov	r3, r0
	strb	r3, [r7, #27]
	ldr	r3, [r7, #4]
	ldr	r2, [r7]
	mul	r3, r2, r3
	str	r3, [r7, #20]
	ldrb	r3, [r7, #27]
	eor	r3, r3, #1
	uxtb	r3, r3
	cmp	r3, #0
	beq	.L169
	ldr	r0, [r7, #12]
	ldr	r1, [r7, #8]
	ldr	r2, [r7, #20]
	bl	_ZNK2OT21hb_sanitize_context_t11check_rangeEPKvj(PLT)
	mov	r3, r0
	cmp	r3, #0
	beq	.L169
	movs	r3, #1
	b	.L170
.L169:
	movs	r3, #0
.L170:
	strb	r3, [r7, #19]
	ldr	r3, [r7, #12]
	ldr	r3, [r3]
	adds	r4, r3, #1
	ldr	r3, [r7, #4]
	ldr	r2, [r7]
	mul	r3, r2, r3
	ldr	r2, [r7, #28]
	adds	r0, r2, r3
	ldr	r3, [r7, #12]
	ldr	r1, [r3, #4]
	ldr	r3, [r7, #12]
	ldr	r2, [r3, #8]
	ldrb	r3, [r7, #27]	@ zero_extendqisi2
	cmp	r3, #0
	beq	.L171
	ldr	r3, .L176
.LPIC15:
	add	r3, pc
	b	.L172
.L171:
	ldrb	r3, [r7, #19]	@ zero_extendqisi2
	cmp	r3, #0
	beq	.L173
	ldr	r3, .L176+4
.LPIC16:
	add	r3, pc
	b	.L172
.L173:
	ldr	r3, .L176+8
.LPIC17:
	add	r3, pc
.L172:
	str	r4, [sp]
	movs	r4, #0
	str	r4, [sp, #4]
	ldr	r4, .L176+12
.LPIC18:
	add	r4, pc
	str	r4, [sp, #8]
	ldr	r4, [r7, #28]
	str	r4, [sp, #12]
	str	r0, [sp, #16]
	ldr	r0, [r7, #4]
	str	r0, [sp, #20]
	ldr	r0, [r7]
	str	r0, [sp, #24]
	ldr	r0, [r7, #20]
	str	r0, [sp, #28]
	str	r1, [sp, #32]
	str	r2, [sp, #36]
	str	r3, [sp, #40]
	ldr	r3, .L176+16
.LPIC19:
	add	r3, pc
	mov	r0, r3
	ldr	r1, [r7, #28]
	movs	r2, #0
	movs	r3, #1
	bl	_Z13_hb_debug_msgILi0EEvPKcPKvS1_bjiS1_z(PLT)
	ldrb	r3, [r7, #19]	@ zero_extendqisi2
	mov	r0, r3
	adds	r7, r7, #36
	mov	sp, r7
	@ sp needed
	pop	{r4, r7, pc}
.L177:
	.align	2
.L176:
	.word	.LC11-(.LPIC15+4)
	.word	.LC8-(.LPIC16+4)
	.word	.LC9-(.LPIC17+4)
	.word	.LC12-(.LPIC18+4)
	.word	.LC3-(.LPIC19+4)
	.cantunwind
	.fnend
	.size	_ZNK2OT21hb_sanitize_context_t11check_arrayEPKvjj, .-_ZNK2OT21hb_sanitize_context_t11check_arrayEPKvjj
	.section	.rodata
	.align	2
.LC13:
	.ascii	"GRANTED\000"
	.align	2
.LC14:
	.ascii	"DENIED\000"
	.align	2
.LC15:
	.ascii	"may_edit(%u) [%p..%p] (%d bytes) in [%p..%p] -> %s\000"
	.section	.text._ZN2OT21hb_sanitize_context_t8may_editEPKvj,"axG",%progbits,_ZN2OT21hb_sanitize_context_t8may_editEPKvj,comdat
	.align	2
	.weak	_ZN2OT21hb_sanitize_context_t8may_editEPKvj
	.thumb
	.thumb_func
	.type	_ZN2OT21hb_sanitize_context_t8may_editEPKvj, %function
_ZN2OT21hb_sanitize_context_t8may_editEPKvj:
	.fnstart
.LFB242:
	@ args = 0, pretend = 0, frame = 24
	@ frame_needed = 1, uses_anonymous_args = 0
	push	{r4, r5, r7, lr}
	sub	sp, sp, #64
	add	r7, sp, #40
	str	r0, [r7, #12]
	str	r1, [r7, #8]
	str	r2, [r7, #4]
	ldr	r3, [r7, #12]
	ldr	r3, [r3, #16]
	cmp	r3, #99
	bls	.L179
	movs	r3, #0
	b	.L180
.L179:
	ldr	r3, [r7, #8]
	str	r3, [r7, #20]
	ldr	r3, [r7, #12]
	ldr	r3, [r3, #16]
	adds	r2, r3, #1
	ldr	r3, [r7, #12]
	str	r2, [r3, #16]
	ldr	r3, [r7, #12]
	ldr	r3, [r3]
	adds	r5, r3, #1
	ldr	r3, [r7, #12]
	ldr	r4, [r3, #16]
	ldr	r2, [r7, #20]
	ldr	r3, [r7, #4]
	adds	r0, r2, r3
	ldr	r3, [r7, #12]
	ldr	r1, [r3, #4]
	ldr	r3, [r7, #12]
	ldr	r2, [r3, #8]
	ldr	r3, [r7, #12]
	ldrb	r3, [r3, #12]	@ zero_extendqisi2
	cmp	r3, #0
	beq	.L181
	ldr	r3, .L183
.LPIC20:
	add	r3, pc
	b	.L182
.L181:
	ldr	r3, .L183+4
.LPIC21:
	add	r3, pc
.L182:
	str	r5, [sp]
	movs	r5, #0
	str	r5, [sp, #4]
	ldr	r5, .L183+8
.LPIC22:
	add	r5, pc
	str	r5, [sp, #8]
	str	r4, [sp, #12]
	ldr	r4, [r7, #20]
	str	r4, [sp, #16]
	str	r0, [sp, #20]
	ldr	r0, [r7, #4]
	str	r0, [sp, #24]
	str	r1, [sp, #28]
	str	r2, [sp, #32]
	str	r3, [sp, #36]
	ldr	r3, .L183+12
.LPIC23:
	add	r3, pc
	mov	r0, r3
	ldr	r1, [r7, #20]
	movs	r2, #0
	movs	r3, #1
	bl	_Z13_hb_debug_msgILi0EEvPKcPKvS1_bjiS1_z(PLT)
	ldr	r3, [r7, #12]
	ldrb	r3, [r3, #12]	@ zero_extendqisi2
.L180:
	mov	r0, r3
	adds	r7, r7, #24
	mov	sp, r7
	@ sp needed
	pop	{r4, r5, r7, pc}
.L184:
	.align	2
.L183:
	.word	.LC13-(.LPIC20+4)
	.word	.LC14-(.LPIC21+4)
	.word	.LC15-(.LPIC22+4)
	.word	.LC3-(.LPIC23+4)
	.cantunwind
	.fnend
	.size	_ZN2OT21hb_sanitize_context_t8may_editEPKvj, .-_ZN2OT21hb_sanitize_context_t8may_editEPKvj
	.section	.text._ZN2OTL4NullINS_3TagEEERKT_v,"ax",%progbits
	.align	2
	.thumb
	.thumb_func
	.type	_ZN2OTL4NullINS_3TagEEERKT_v, %function
_ZN2OTL4NullINS_3TagEEERKT_v:
	.fnstart
.LFB288:
	@ args = 0, pretend = 0, frame = 0
	@ frame_needed = 1, uses_anonymous_args = 0
	push	{r7, lr}
	add	r7, sp, #0
	ldr	r3, .L187
.LPIC24:
	add	r3, pc
	mov	r0, r3
	bl	_ZN2OTL5CastPINS_3TagEcEEPKT_PKT0_(PLT)
	mov	r3, r0
	mov	r0, r3
	pop	{r7, pc}
.L188:
	.align	2
.L187:
	.word	_ZN2OTL8_NullTagE-(.LPIC24+4)
	.cantunwind
	.fnend
	.size	_ZN2OTL4NullINS_3TagEEERKT_v, .-_ZN2OTL4NullINS_3TagEEERKT_v
	.section	.text._ZN2OTL4NullINS_5IndexEEERKT_v,"ax",%progbits
	.align	2
	.thumb
	.thumb_func
	.type	_ZN2OTL4NullINS_5IndexEEERKT_v, %function
_ZN2OTL4NullINS_5IndexEEERKT_v:
	.fnstart
.LFB289:
	@ args = 0, pretend = 0, frame = 0
	@ frame_needed = 1, uses_anonymous_args = 0
	push	{r7, lr}
	add	r7, sp, #0
	ldr	r3, .L191
.LPIC25:
	add	r3, pc
	mov	r0, r3
	bl	_ZN2OTL5CastPINS_5IndexEcEEPKT_PKT0_(PLT)
	mov	r3, r0
	mov	r0, r3
	pop	{r7, pc}
.L192:
	.align	2
.L191:
	.word	_ZN2OTL10_NullIndexE-(.LPIC25+4)
	.cantunwind
	.fnend
	.size	_ZN2OTL4NullINS_5IndexEEERKT_v, .-_ZN2OTL4NullINS_5IndexEEERKT_v
	.section	.text._ZNK2OT12FixedVersion6to_intEv,"axG",%progbits,_ZNK2OT12FixedVersion6to_intEv,comdat
	.align	2
	.weak	_ZNK2OT12FixedVersion6to_intEv
	.thumb
	.thumb_func
	.type	_ZNK2OT12FixedVersion6to_intEv, %function
_ZNK2OT12FixedVersion6to_intEv:
	.fnstart
.LFB295:
	@ args = 0, pretend = 0, frame = 8
	@ frame_needed = 1, uses_anonymous_args = 0
	push	{r4, r7, lr}
	.save {r4, r7, lr}
	.pad #12
	sub	sp, sp, #12
	.setfp r7, sp, #0
	add	r7, sp, #0
	str	r0, [r7, #4]
	ldr	r3, [r7, #4]
	mov	r0, r3
	bl	_ZNK2OT7IntTypeItLj2EEcvtEv(PLT)
	mov	r3, r0
	lsls	r4, r3, #16
	ldr	r3, [r7, #4]
	adds	r3, r3, #2
	mov	r0, r3
	bl	_ZNK2OT7IntTypeItLj2EEcvtEv(PLT)
	mov	r3, r0
	add	r3, r3, r4
	mov	r0, r3
	adds	r7, r7, #12
	mov	sp, r7
	@ sp needed
	pop	{r4, r7, pc}
	.fnend
	.size	_ZNK2OT12FixedVersion6to_intEv, .-_ZNK2OT12FixedVersion6to_intEv
	.section	.rodata
	.align	2
.LC16:
	.ascii	"\000"
	.section	.text._ZN2OT12FixedVersion8sanitizeEPNS_21hb_sanitize_context_tE,"axG",%progbits,_ZN2OT12FixedVersion8sanitizeEPNS_21hb_sanitize_context_tE,comdat
	.align	2
	.weak	_ZN2OT12FixedVersion8sanitizeEPNS_21hb_sanitize_context_tE
	.thumb
	.thumb_func
	.type	_ZN2OT12FixedVersion8sanitizeEPNS_21hb_sanitize_context_tE, %function
_ZN2OT12FixedVersion8sanitizeEPNS_21hb_sanitize_context_tE:
	.fnstart
.LFB296:
	@ args = 0, pretend = 0, frame = 16
	@ frame_needed = 1, uses_anonymous_args = 0
	push	{r4, r7, lr}
	.save {r4, r7, lr}
	.pad #28
	sub	sp, sp, #28
	.setfp r7, sp, #8
	add	r7, sp, #8
	str	r0, [r7, #4]
	str	r1, [r7]
	ldr	r4, [r7]
	ldr	r0, [r7]
	bl	_ZN2OT21hb_sanitize_context_t8get_nameEv(PLT)
	mov	r3, r0
	add	r2, r7, #12
	ldr	r1, .L197
.LPIC26:
	add	r1, pc
	str	r1, [sp]
	ldr	r1, .L197+4
.LPIC27:
	add	r1, pc
	str	r1, [sp, #4]
	mov	r0, r2
	mov	r1, r4
	mov	r2, r3
	ldr	r3, [r7, #4]
	bl	_ZN15hb_auto_trace_tILi0EbEC1EPjPKcPKvS3_S3_z(PLT)
	ldr	r0, [r7]
	ldr	r1, [r7, #4]
	bl	_ZNK2OT21hb_sanitize_context_t12check_structINS_12FixedVersionEEEbPKT_(PLT)
	mov	r3, r0
	add	r2, r7, #12
	mov	r0, r2
	mov	r1, r3
	mov	r2, #724
	bl	_ZN15hb_auto_trace_tILi0EbE3retEbj(PLT)
	mov	r3, r0
	mov	r0, r3
	adds	r7, r7, #20
	mov	sp, r7
	@ sp needed
	pop	{r4, r7, pc}
.L198:
	.align	2
.L197:
	.word	_ZZN2OT12FixedVersion8sanitizeEPNS_21hb_sanitize_context_tEE19__PRETTY_FUNCTION__-(.LPIC26+4)
	.word	.LC16-(.LPIC27+4)
	.fnend
	.size	_ZN2OT12FixedVersion8sanitizeEPNS_21hb_sanitize_context_tE, .-_ZN2OT12FixedVersion8sanitizeEPNS_21hb_sanitize_context_tE
	.section	.text._ZNK2OT11RangeRecord3cmpEj,"axG",%progbits,_ZNK2OT11RangeRecord3cmpEj,comdat
	.align	2
	.weak	_ZNK2OT11RangeRecord3cmpEj
	.thumb
	.thumb_func
	.type	_ZNK2OT11RangeRecord3cmpEj, %function
_ZNK2OT11RangeRecord3cmpEj:
	.fnstart
.LFB338:
	@ args = 0, pretend = 0, frame = 8
	@ frame_needed = 1, uses_anonymous_args = 0
	push	{r7, lr}
	.save {r7, lr}
	.pad #8
	sub	sp, sp, #8
	.setfp r7, sp, #0
	add	r7, sp, #0
	str	r0, [r7, #4]
	str	r1, [r7]
	ldr	r3, [r7, #4]
	mov	r0, r3
	bl	_ZNK2OT7IntTypeItLj2EEcvtEv(PLT)
	mov	r3, r0
	mov	r2, r3
	ldr	r3, [r7]
	cmp	r2, r3
	bhi	.L200
	ldr	r3, [r7, #4]
	adds	r3, r3, #2
	mov	r0, r3
	bl	_ZNK2OT7IntTypeItLj2EEcvtEv(PLT)
	mov	r3, r0
	mov	r2, r3
	ldr	r3, [r7]
	cmp	r2, r3
	ite	cc
	movcc	r3, #1
	movcs	r3, #0
	uxtb	r3, r3
	b	.L201
.L200:
	mov	r3, #-1
.L201:
	mov	r0, r3
	adds	r7, r7, #8
	mov	sp, r7
	@ sp needed
	pop	{r7, pc}
	.fnend
	.size	_ZNK2OT11RangeRecord3cmpEj, .-_ZNK2OT11RangeRecord3cmpEj
	.section	.text._ZNK2OT11RangeRecord10intersectsEPK8hb_set_t,"axG",%progbits,_ZNK2OT11RangeRecord10intersectsEPK8hb_set_t,comdat
	.align	2
	.weak	_ZNK2OT11RangeRecord10intersectsEPK8hb_set_t
	.thumb
	.thumb_func
	.type	_ZNK2OT11RangeRecord10intersectsEPK8hb_set_t, %function
_ZNK2OT11RangeRecord10intersectsEPK8hb_set_t:
	.fnstart
.LFB340:
	@ args = 0, pretend = 0, frame = 8
	@ frame_needed = 1, uses_anonymous_args = 0
	push	{r4, r7, lr}
	.save {r4, r7, lr}
	.pad #12
	sub	sp, sp, #12
	.setfp r7, sp, #0
	add	r7, sp, #0
	str	r0, [r7, #4]
	str	r1, [r7]
	ldr	r3, [r7, #4]
	mov	r0, r3
	bl	_ZNK2OT7IntTypeItLj2EEcvtEv(PLT)
	mov	r3, r0
	mov	r4, r3
	ldr	r3, [r7, #4]
	adds	r3, r3, #2
	mov	r0, r3
	bl	_ZNK2OT7IntTypeItLj2EEcvtEv(PLT)
	mov	r3, r0
	ldr	r0, [r7]
	mov	r1, r4
	mov	r2, r3
	bl	_ZNK8hb_set_t10intersectsEjj(PLT)
	mov	r3, r0
	mov	r0, r3
	adds	r7, r7, #12
	mov	sp, r7
	@ sp needed
	pop	{r4, r7, pc}
	.fnend
	.size	_ZNK2OT11RangeRecord10intersectsEPK8hb_set_t, .-_ZNK2OT11RangeRecord10intersectsEPK8hb_set_t
	.section	.text._ZN2OTL4NullINS_11RangeRecordEEERKT_v,"ax",%progbits
	.align	2
	.thumb
	.thumb_func
	.type	_ZN2OTL4NullINS_11RangeRecordEEERKT_v, %function
_ZN2OTL4NullINS_11RangeRecordEEERKT_v:
	.fnstart
.LFB343:
	@ args = 0, pretend = 0, frame = 0
	@ frame_needed = 1, uses_anonymous_args = 0
	push	{r7, lr}
	add	r7, sp, #0
	ldr	r3, .L207
.LPIC28:
	add	r3, pc
	mov	r0, r3
	bl	_ZN2OTL5CastPINS_11RangeRecordEcEEPKT_PKT0_(PLT)
	mov	r3, r0
	mov	r0, r3
	pop	{r7, pc}
.L208:
	.align	2
.L207:
	.word	_ZN2OTL16_NullRangeRecordE-(.LPIC28+4)
	.cantunwind
	.fnend
	.size	_ZN2OTL4NullINS_11RangeRecordEEERKT_v, .-_ZN2OTL4NullINS_11RangeRecordEEERKT_v
	.section	.text._ZNK2OT10IndexArray11get_indexesEjPjS1_,"axG",%progbits,_ZNK2OT10IndexArray11get_indexesEjPjS1_,comdat
	.align	2
	.weak	_ZNK2OT10IndexArray11get_indexesEjPjS1_
	.thumb
	.thumb_func
	.type	_ZNK2OT10IndexArray11get_indexesEjPjS1_, %function
_ZNK2OT10IndexArray11get_indexesEjPjS1_:
	.fnstart
.LFB344:
	@ args = 0, pretend = 0, frame = 32
	@ frame_needed = 1, uses_anonymous_args = 0
	push	{r4, r7, lr}
	.save {r4, r7, lr}
	.pad #36
	sub	sp, sp, #36
	.setfp r7, sp, #0
	add	r7, sp, #0
	str	r0, [r7, #12]
	str	r1, [r7, #8]
	str	r2, [r7, #4]
	str	r3, [r7]
	ldr	r3, [r7, #4]
	cmp	r3, #0
	beq	.L210
	ldr	r3, [r7, #12]
	mov	r0, r3
	ldr	r1, [r7, #8]
	ldr	r2, [r7, #4]
	bl	_ZNK2OT7ArrayOfINS_5IndexENS_7IntTypeItLj2EEEE9sub_arrayEjPj(PLT)
	mov	r3, r0
	str	r3, [r7, #24]
	ldr	r3, [r7, #4]
	ldr	r3, [r3]
	str	r3, [r7, #20]
	movs	r3, #0
	str	r3, [r7, #28]
	b	.L211
.L212:
	ldr	r3, [r7, #28]
	lsls	r3, r3, #2
	ldr	r2, [r7]
	adds	r4, r2, r3
	ldr	r3, [r7, #28]
	lsls	r3, r3, #1
	ldr	r2, [r7, #24]
	add	r3, r3, r2
	mov	r0, r3
	bl	_ZNK2OT7IntTypeItLj2EEcvtEv(PLT)
	mov	r3, r0
	str	r3, [r4]
	ldr	r3, [r7, #28]
	adds	r3, r3, #1
	str	r3, [r7, #28]
.L211:
	ldr	r2, [r7, #28]
	ldr	r3, [r7, #20]
	cmp	r2, r3
	bcc	.L212
.L210:
	ldr	r3, [r7, #12]
	mov	r0, r3
	bl	_ZNK2OT7IntTypeItLj2EEcvtEv(PLT)
	mov	r3, r0
	mov	r0, r3
	adds	r7, r7, #36
	mov	sp, r7
	@ sp needed
	pop	{r4, r7, pc}
	.fnend
	.size	_ZNK2OT10IndexArray11get_indexesEjPjS1_, .-_ZNK2OT10IndexArray11get_indexesEjPjS1_
	.section	.text._ZNK2OT7LangSys17get_feature_countEv,"axG",%progbits,_ZNK2OT7LangSys17get_feature_countEv,comdat
	.align	2
	.weak	_ZNK2OT7LangSys17get_feature_countEv
	.thumb
	.thumb_func
	.type	_ZNK2OT7LangSys17get_feature_countEv, %function
_ZNK2OT7LangSys17get_feature_countEv:
	.fnstart
.LFB345:
	@ args = 0, pretend = 0, frame = 8
	@ frame_needed = 1, uses_anonymous_args = 0
	push	{r7, lr}
	.save {r7, lr}
	.pad #8
	sub	sp, sp, #8
	.setfp r7, sp, #0
	add	r7, sp, #0
	str	r0, [r7, #4]
	ldr	r3, [r7, #4]
	adds	r3, r3, #4
	mov	r0, r3
	bl	_ZNK2OT7IntTypeItLj2EEcvtEv(PLT)
	mov	r3, r0
	mov	r0, r3
	adds	r7, r7, #8
	mov	sp, r7
	@ sp needed
	pop	{r7, pc}
	.fnend
	.size	_ZNK2OT7LangSys17get_feature_countEv, .-_ZNK2OT7LangSys17get_feature_countEv
	.section	.text._ZNK2OT7LangSys17get_feature_indexEj,"axG",%progbits,_ZNK2OT7LangSys17get_feature_indexEj,comdat
	.align	2
	.weak	_ZNK2OT7LangSys17get_feature_indexEj
	.thumb
	.thumb_func
	.type	_ZNK2OT7LangSys17get_feature_indexEj, %function
_ZNK2OT7LangSys17get_feature_indexEj:
	.fnstart
.LFB346:
	@ args = 0, pretend = 0, frame = 8
	@ frame_needed = 1, uses_anonymous_args = 0
	push	{r7, lr}
	.save {r7, lr}
	.pad #8
	sub	sp, sp, #8
	.setfp r7, sp, #0
	add	r7, sp, #0
	str	r0, [r7, #4]
	str	r1, [r7]
	ldr	r3, [r7, #4]
	adds	r3, r3, #4
	mov	r0, r3
	ldr	r1, [r7]
	bl	_ZNK2OT7ArrayOfINS_5IndexENS_7IntTypeItLj2EEEEixEj(PLT)
	mov	r3, r0
	mov	r0, r3
	bl	_ZNK2OT7IntTypeItLj2EEcvtEv(PLT)
	mov	r3, r0
	mov	r0, r3
	adds	r7, r7, #8
	mov	sp, r7
	@ sp needed
	pop	{r7, pc}
	.fnend
	.size	_ZNK2OT7LangSys17get_feature_indexEj, .-_ZNK2OT7LangSys17get_feature_indexEj
	.section	.text._ZNK2OT7LangSys19get_feature_indexesEjPjS1_,"axG",%progbits,_ZNK2OT7LangSys19get_feature_indexesEjPjS1_,comdat
	.align	2
	.weak	_ZNK2OT7LangSys19get_feature_indexesEjPjS1_
	.thumb
	.thumb_func
	.type	_ZNK2OT7LangSys19get_feature_indexesEjPjS1_, %function
_ZNK2OT7LangSys19get_feature_indexesEjPjS1_:
	.fnstart
.LFB347:
	@ args = 0, pretend = 0, frame = 16
	@ frame_needed = 1, uses_anonymous_args = 0
	push	{r7, lr}
	.save {r7, lr}
	.pad #16
	sub	sp, sp, #16
	.setfp r7, sp, #0
	add	r7, sp, #0
	str	r0, [r7, #12]
	str	r1, [r7, #8]
	str	r2, [r7, #4]
	str	r3, [r7]
	ldr	r3, [r7, #12]
	adds	r3, r3, #4
	mov	r0, r3
	ldr	r1, [r7, #8]
	ldr	r2, [r7, #4]
	ldr	r3, [r7]
	bl	_ZNK2OT10IndexArray11get_indexesEjPjS1_(PLT)
	mov	r3, r0
	mov	r0, r3
	adds	r7, r7, #16
	mov	sp, r7
	@ sp needed
	pop	{r7, pc}
	.fnend
	.size	_ZNK2OT7LangSys19get_feature_indexesEjPjS1_, .-_ZNK2OT7LangSys19get_feature_indexesEjPjS1_
	.section	.text._ZNK2OT7LangSys20has_required_featureEv,"axG",%progbits,_ZNK2OT7LangSys20has_required_featureEv,comdat
	.align	2
	.weak	_ZNK2OT7LangSys20has_required_featureEv
	.thumb
	.thumb_func
	.type	_ZNK2OT7LangSys20has_required_featureEv, %function
_ZNK2OT7LangSys20has_required_featureEv:
	.fnstart
.LFB348:
	@ args = 0, pretend = 0, frame = 8
	@ frame_needed = 1, uses_anonymous_args = 0
	push	{r7, lr}
	.save {r7, lr}
	.pad #8
	sub	sp, sp, #8
	.setfp r7, sp, #0
	add	r7, sp, #0
	str	r0, [r7, #4]
	ldr	r3, [r7, #4]
	adds	r3, r3, #2
	mov	r0, r3
	bl	_ZNK2OT7IntTypeItLj2EEcvtEv(PLT)
	mov	r3, r0
	mov	r2, r3
	movw	r3, #65535
	cmp	r2, r3
	ite	ne
	movne	r3, #1
	moveq	r3, #0
	uxtb	r3, r3
	mov	r0, r3
	adds	r7, r7, #8
	mov	sp, r7
	@ sp needed
	pop	{r7, pc}
	.fnend
	.size	_ZNK2OT7LangSys20has_required_featureEv, .-_ZNK2OT7LangSys20has_required_featureEv
	.section	.text._ZNK2OT7LangSys26get_required_feature_indexEv,"axG",%progbits,_ZNK2OT7LangSys26get_required_feature_indexEv,comdat
	.align	2
	.weak	_ZNK2OT7LangSys26get_required_feature_indexEv
	.thumb
	.thumb_func
	.type	_ZNK2OT7LangSys26get_required_feature_indexEv, %function
_ZNK2OT7LangSys26get_required_feature_indexEv:
	.fnstart
.LFB349:
	@ args = 0, pretend = 0, frame = 8
	@ frame_needed = 1, uses_anonymous_args = 0
	push	{r7, lr}
	.save {r7, lr}
	.pad #8
	sub	sp, sp, #8
	.setfp r7, sp, #0
	add	r7, sp, #0
	str	r0, [r7, #4]
	ldr	r3, [r7, #4]
	adds	r3, r3, #2
	mov	r0, r3
	bl	_ZNK2OT7IntTypeItLj2EEcvtEv(PLT)
	mov	r3, r0
	mov	r2, r3
	movw	r3, #65535
	cmp	r2, r3
	ite	eq
	moveq	r3, #1
	movne	r3, #0
	uxtb	r3, r3
	cmp	r3, #0
	beq	.L223
	movw	r3, #65535
	b	.L224
.L223:
	ldr	r3, [r7, #4]
	adds	r3, r3, #2
	mov	r0, r3
	bl	_ZNK2OT7IntTypeItLj2EEcvtEv(PLT)
	mov	r3, r0
.L224:
	mov	r0, r3
	adds	r7, r7, #8
	mov	sp, r7
	@ sp needed
	pop	{r7, pc}
	.fnend
	.size	_ZNK2OT7LangSys26get_required_feature_indexEv, .-_ZNK2OT7LangSys26get_required_feature_indexEv
	.section	.text._ZN2OT7LangSys8sanitizeEPNS_21hb_sanitize_context_tEPKNS_6RecordIS0_E18sanitize_closure_tE,"axG",%progbits,_ZN2OT7LangSys8sanitizeEPNS_21hb_sanitize_context_tEPKNS_6RecordIS0_E18sanitize_closure_tE,comdat
	.align	2
	.weak	_ZN2OT7LangSys8sanitizeEPNS_21hb_sanitize_context_tEPKNS_6RecordIS0_E18sanitize_closure_tE
	.thumb
	.thumb_func
	.type	_ZN2OT7LangSys8sanitizeEPNS_21hb_sanitize_context_tEPKNS_6RecordIS0_E18sanitize_closure_tE, %function
_ZN2OT7LangSys8sanitizeEPNS_21hb_sanitize_context_tEPKNS_6RecordIS0_E18sanitize_closure_tE:
	.fnstart
.LFB350:
	@ args = 0, pretend = 0, frame = 24
	@ frame_needed = 1, uses_anonymous_args = 0
	push	{r4, r7, lr}
	.save {r4, r7, lr}
	.pad #36
	sub	sp, sp, #36
	.setfp r7, sp, #8
	add	r7, sp, #8
	str	r0, [r7, #12]
	str	r1, [r7, #8]
	str	r2, [r7, #4]
	ldr	r4, [r7, #8]
	ldr	r0, [r7, #8]
	bl	_ZN2OT21hb_sanitize_context_t8get_nameEv(PLT)
	mov	r3, r0
	add	r2, r7, #20
	ldr	r1, .L229
.LPIC29:
	add	r1, pc
	str	r1, [sp]
	ldr	r1, .L229+4
.LPIC30:
	add	r1, pc
	str	r1, [sp, #4]
	mov	r0, r2
	mov	r1, r4
	mov	r2, r3
	ldr	r3, [r7, #12]
	bl	_ZN15hb_auto_trace_tILi0EbEC1EPjPKcPKvS3_S3_z(PLT)
	ldr	r0, [r7, #8]
	ldr	r1, [r7, #12]
	bl	_ZNK2OT21hb_sanitize_context_t12check_structINS_7LangSysEEEbPKT_(PLT)
	mov	r3, r0
	cmp	r3, #0
	beq	.L226
	ldr	r3, [r7, #12]
	adds	r3, r3, #4
	mov	r0, r3
	ldr	r1, [r7, #8]
	bl	_ZN2OT7ArrayOfINS_5IndexENS_7IntTypeItLj2EEEE8sanitizeEPNS_21hb_sanitize_context_tE(PLT)
	mov	r3, r0
	cmp	r3, #0
	beq	.L226
	movs	r3, #1
	b	.L227
.L226:
	movs	r3, #0
.L227:
	add	r2, r7, #20
	mov	r0, r2
	mov	r1, r3
	movs	r2, #204
	bl	_ZN15hb_auto_trace_tILi0EbE3retEbj(PLT)
	mov	r3, r0
	mov	r0, r3
	adds	r7, r7, #28
	mov	sp, r7
	@ sp needed
	pop	{r4, r7, pc}
.L230:
	.align	2
.L229:
	.word	_ZZN2OT7LangSys8sanitizeEPNS_21hb_sanitize_context_tEPKNS_6RecordIS0_E18sanitize_closure_tEE19__PRETTY_FUNCTION__-(.LPIC29+4)
	.word	.LC16-(.LPIC30+4)
	.fnend
	.size	_ZN2OT7LangSys8sanitizeEPNS_21hb_sanitize_context_tEPKNS_6RecordIS0_E18sanitize_closure_tE, .-_ZN2OT7LangSys8sanitizeEPNS_21hb_sanitize_context_tEPKNS_6RecordIS0_E18sanitize_closure_tE
	.section	.text._ZN2OTL4NullINS_7LangSysEEERKT_v,"ax",%progbits
	.align	2
	.thumb
	.thumb_func
	.type	_ZN2OTL4NullINS_7LangSysEEERKT_v, %function
_ZN2OTL4NullINS_7LangSysEEERKT_v:
	.fnstart
.LFB353:
	@ args = 0, pretend = 0, frame = 0
	@ frame_needed = 1, uses_anonymous_args = 0
	push	{r7, lr}
	add	r7, sp, #0
	ldr	r3, .L233
.LPIC31:
	add	r3, pc
	mov	r0, r3
	bl	_ZN2OTL5CastPINS_7LangSysEcEEPKT_PKT0_(PLT)
	mov	r3, r0
	mov	r0, r3
	pop	{r7, pc}
.L234:
	.align	2
.L233:
	.word	_ZN2OTL12_NullLangSysE-(.LPIC31+4)
	.cantunwind
	.fnend
	.size	_ZN2OTL4NullINS_7LangSysEEERKT_v, .-_ZN2OTL4NullINS_7LangSysEEERKT_v
	.section	.text._ZNK2OT6Script17get_lang_sys_tagsEjPjS1_,"axG",%progbits,_ZNK2OT6Script17get_lang_sys_tagsEjPjS1_,comdat
	.align	2
	.weak	_ZNK2OT6Script17get_lang_sys_tagsEjPjS1_
	.thumb
	.thumb_func
	.type	_ZNK2OT6Script17get_lang_sys_tagsEjPjS1_, %function
_ZNK2OT6Script17get_lang_sys_tagsEjPjS1_:
	.fnstart
.LFB356:
	@ args = 0, pretend = 0, frame = 16
	@ frame_needed = 1, uses_anonymous_args = 0
	push	{r7, lr}
	.save {r7, lr}
	.pad #16
	sub	sp, sp, #16
	.setfp r7, sp, #0
	add	r7, sp, #0
	str	r0, [r7, #12]
	str	r1, [r7, #8]
	str	r2, [r7, #4]
	str	r3, [r7]
	ldr	r3, [r7, #12]
	adds	r3, r3, #2
	mov	r0, r3
	ldr	r1, [r7, #8]
	ldr	r2, [r7, #4]
	ldr	r3, [r7]
	bl	_ZNK2OT13RecordArrayOfINS_7LangSysEE8get_tagsEjPjS3_(PLT)
	mov	r3, r0
	mov	r0, r3
	adds	r7, r7, #16
	mov	sp, r7
	@ sp needed
	pop	{r7, pc}
	.fnend
	.size	_ZNK2OT6Script17get_lang_sys_tagsEjPjS1_, .-_ZNK2OT6Script17get_lang_sys_tagsEjPjS1_
	.section	.text._ZNK2OT6Script12get_lang_sysEj,"axG",%progbits,_ZNK2OT6Script12get_lang_sysEj,comdat
	.align	2
	.weak	_ZNK2OT6Script12get_lang_sysEj
	.thumb
	.thumb_func
	.type	_ZNK2OT6Script12get_lang_sysEj, %function
_ZNK2OT6Script12get_lang_sysEj:
	.fnstart
.LFB357:
	@ args = 0, pretend = 0, frame = 16
	@ frame_needed = 1, uses_anonymous_args = 0
	push	{r7, lr}
	.save {r7, lr}
	.pad #16
	sub	sp, sp, #16
	.setfp r7, sp, #0
	add	r7, sp, #0
	str	r0, [r7, #4]
	str	r1, [r7]
	ldr	r2, [r7]
	movw	r3, #65535
	cmp	r2, r3
	bne	.L238
	ldr	r0, [r7, #4]
	bl	_ZNK2OT6Script20get_default_lang_sysEv(PLT)
	mov	r3, r0
	b	.L239
.L238:
	ldr	r3, [r7, #4]
	str	r3, [r7, #12]
	ldr	r3, [r7, #4]
	adds	r3, r3, #2
	mov	r0, r3
	ldr	r1, [r7]
	bl	_ZNK2OT7ArrayOfINS_6RecordINS_7LangSysEEENS_7IntTypeItLj2EEEEixEj(PLT)
	mov	r3, r0
	adds	r3, r3, #4
	add	r2, r7, #12
	mov	r0, r2
	mov	r1, r3
	bl	_ZN2OTplIPKNS_6ScriptENS_7IntTypeItLj2EEENS_7LangSysEEERKT1_RKT_RKNS_8OffsetToIS7_T0_EE(PLT)
	mov	r3, r0
.L239:
	mov	r0, r3
	adds	r7, r7, #16
	mov	sp, r7
	@ sp needed
	pop	{r7, pc}
	.fnend
	.size	_ZNK2OT6Script12get_lang_sysEj, .-_ZNK2OT6Script12get_lang_sysEj
	.section	.text._ZNK2OT6Script19find_lang_sys_indexEjPj,"axG",%progbits,_ZNK2OT6Script19find_lang_sys_indexEjPj,comdat
	.align	2
	.weak	_ZNK2OT6Script19find_lang_sys_indexEjPj
	.thumb
	.thumb_func
	.type	_ZNK2OT6Script19find_lang_sys_indexEjPj, %function
_ZNK2OT6Script19find_lang_sys_indexEjPj:
	.fnstart
.LFB358:
	@ args = 0, pretend = 0, frame = 16
	@ frame_needed = 1, uses_anonymous_args = 0
	push	{r7, lr}
	.save {r7, lr}
	.pad #16
	sub	sp, sp, #16
	.setfp r7, sp, #0
	add	r7, sp, #0
	str	r0, [r7, #12]
	str	r1, [r7, #8]
	str	r2, [r7, #4]
	ldr	r3, [r7, #12]
	adds	r3, r3, #2
	mov	r0, r3
	ldr	r1, [r7, #8]
	ldr	r2, [r7, #4]
	bl	_ZNK2OT13RecordArrayOfINS_7LangSysEE10find_indexEjPj(PLT)
	mov	r3, r0
	mov	r0, r3
	adds	r7, r7, #16
	mov	sp, r7
	@ sp needed
	pop	{r7, pc}
	.fnend
	.size	_ZNK2OT6Script19find_lang_sys_indexEjPj, .-_ZNK2OT6Script19find_lang_sys_indexEjPj
	.section	.text._ZNK2OT6Script20get_default_lang_sysEv,"axG",%progbits,_ZNK2OT6Script20get_default_lang_sysEv,comdat
	.align	2
	.weak	_ZNK2OT6Script20get_default_lang_sysEv
	.thumb
	.thumb_func
	.type	_ZNK2OT6Script20get_default_lang_sysEv, %function
_ZNK2OT6Script20get_default_lang_sysEv:
	.fnstart
.LFB360:
	@ args = 0, pretend = 0, frame = 16
	@ frame_needed = 1, uses_anonymous_args = 0
	push	{r7, lr}
	.save {r7, lr}
	.pad #16
	sub	sp, sp, #16
	.setfp r7, sp, #0
	add	r7, sp, #0
	str	r0, [r7, #4]
	ldr	r3, [r7, #4]
	str	r3, [r7, #12]
	ldr	r3, [r7, #4]
	add	r2, r7, #12
	mov	r0, r2
	mov	r1, r3
	bl	_ZN2OTplIPKNS_6ScriptENS_7IntTypeItLj2EEENS_7LangSysEEERKT1_RKT_RKNS_8OffsetToIS7_T0_EE(PLT)
	mov	r3, r0
	mov	r0, r3
	adds	r7, r7, #16
	mov	sp, r7
	@ sp needed
	pop	{r7, pc}
	.fnend
	.size	_ZNK2OT6Script20get_default_lang_sysEv, .-_ZNK2OT6Script20get_default_lang_sysEv
	.section	.text._ZN2OT6Script8sanitizeEPNS_21hb_sanitize_context_tEPKNS_6RecordIS0_E18sanitize_closure_tE,"axG",%progbits,_ZN2OT6Script8sanitizeEPNS_21hb_sanitize_context_tEPKNS_6RecordIS0_E18sanitize_closure_tE,comdat
	.align	2
	.weak	_ZN2OT6Script8sanitizeEPNS_21hb_sanitize_context_tEPKNS_6RecordIS0_E18sanitize_closure_tE
	.thumb
	.thumb_func
	.type	_ZN2OT6Script8sanitizeEPNS_21hb_sanitize_context_tEPKNS_6RecordIS0_E18sanitize_closure_tE, %function
_ZN2OT6Script8sanitizeEPNS_21hb_sanitize_context_tEPKNS_6RecordIS0_E18sanitize_closure_tE:
	.fnstart
.LFB361:
	@ args = 0, pretend = 0, frame = 24
	@ frame_needed = 1, uses_anonymous_args = 0
	push	{r4, r7, lr}
	.save {r4, r7, lr}
	.pad #36
	sub	sp, sp, #36
	.setfp r7, sp, #8
	add	r7, sp, #8
	str	r0, [r7, #12]
	str	r1, [r7, #8]
	str	r2, [r7, #4]
	ldr	r4, [r7, #8]
	ldr	r0, [r7, #8]
	bl	_ZN2OT21hb_sanitize_context_t8get_nameEv(PLT)
	mov	r3, r0
	add	r2, r7, #20
	ldr	r1, .L248
.LPIC32:
	add	r1, pc
	str	r1, [sp]
	ldr	r1, .L248+4
.LPIC33:
	add	r1, pc
	str	r1, [sp, #4]
	mov	r0, r2
	mov	r1, r4
	mov	r2, r3
	ldr	r3, [r7, #12]
	bl	_ZN15hb_auto_trace_tILi0EbEC1EPjPKcPKvS3_S3_z(PLT)
	ldr	r3, [r7, #12]
	mov	r0, r3
	ldr	r1, [r7, #8]
	ldr	r2, [r7, #12]
	bl	_ZN2OT8OffsetToINS_7LangSysENS_7IntTypeItLj2EEEE8sanitizeEPNS_21hb_sanitize_context_tEPv(PLT)
	mov	r3, r0
	cmp	r3, #0
	beq	.L245
	ldr	r3, [r7, #12]
	adds	r3, r3, #2
	mov	r0, r3
	ldr	r1, [r7, #8]
	ldr	r2, [r7, #12]
	bl	_ZN2OT7ArrayOfINS_6RecordINS_7LangSysEEENS_7IntTypeItLj2EEEE8sanitizeEPNS_21hb_sanitize_context_tEPv(PLT)
	mov	r3, r0
	cmp	r3, #0
	beq	.L245
	movs	r3, #1
	b	.L246
.L245:
	movs	r3, #0
.L246:
	add	r2, r7, #20
	mov	r0, r2
	mov	r1, r3
	movs	r2, #243
	bl	_ZN15hb_auto_trace_tILi0EbE3retEbj(PLT)
	mov	r3, r0
	mov	r0, r3
	adds	r7, r7, #28
	mov	sp, r7
	@ sp needed
	pop	{r4, r7, pc}
.L249:
	.align	2
.L248:
	.word	_ZZN2OT6Script8sanitizeEPNS_21hb_sanitize_context_tEPKNS_6RecordIS0_E18sanitize_closure_tEE19__PRETTY_FUNCTION__-(.LPIC32+4)
	.word	.LC16-(.LPIC33+4)
	.fnend
	.size	_ZN2OT6Script8sanitizeEPNS_21hb_sanitize_context_tEPKNS_6RecordIS0_E18sanitize_closure_tE, .-_ZN2OT6Script8sanitizeEPNS_21hb_sanitize_context_tEPKNS_6RecordIS0_E18sanitize_closure_tE
	.section	.text._ZN2OT17FeatureParamsSize8sanitizeEPNS_21hb_sanitize_context_tE,"axG",%progbits,_ZN2OT17FeatureParamsSize8sanitizeEPNS_21hb_sanitize_context_tE,comdat
	.align	2
	.weak	_ZN2OT17FeatureParamsSize8sanitizeEPNS_21hb_sanitize_context_tE
	.thumb
	.thumb_func
	.type	_ZN2OT17FeatureParamsSize8sanitizeEPNS_21hb_sanitize_context_tE, %function
_ZN2OT17FeatureParamsSize8sanitizeEPNS_21hb_sanitize_context_tE:
	.fnstart
.LFB364:
	@ args = 0, pretend = 0, frame = 16
	@ frame_needed = 1, uses_anonymous_args = 0
	push	{r4, r7, lr}
	.save {r4, r7, lr}
	.pad #28
	sub	sp, sp, #28
	.setfp r7, sp, #8
	add	r7, sp, #8
	str	r0, [r7, #4]
	str	r1, [r7]
	ldr	r4, [r7]
	ldr	r0, [r7]
	bl	_ZN2OT21hb_sanitize_context_t8get_nameEv(PLT)
	mov	r3, r0
	add	r2, r7, #12
	ldr	r1, .L262
.LPIC34:
	add	r1, pc
	str	r1, [sp]
	ldr	r1, .L262+4
.LPIC35:
	add	r1, pc
	str	r1, [sp, #4]
	mov	r0, r2
	mov	r1, r4
	mov	r2, r3
	ldr	r3, [r7, #4]
	bl	_ZN15hb_auto_trace_tILi0EbEC1EPjPKcPKvS3_S3_z(PLT)
	ldr	r0, [r7]
	ldr	r1, [r7, #4]
	bl	_ZNK2OT21hb_sanitize_context_t12check_structINS_17FeatureParamsSizeEEEbPKT_(PLT)
	mov	r3, r0
	eor	r3, r3, #1
	uxtb	r3, r3
	cmp	r3, #0
	beq	.L251
	add	r3, r7, #12
	mov	r0, r3
	movs	r1, #0
	movw	r2, #265
	bl	_ZN15hb_auto_trace_tILi0EbE3retEbj(PLT)
	mov	r3, r0
	b	.L261
.L251:
	ldr	r3, [r7, #4]
	mov	r0, r3
	bl	_ZNK2OT7IntTypeItLj2EEcvtEv(PLT)
	mov	r3, r0
	cmp	r3, #0
	ite	eq
	moveq	r3, #1
	movne	r3, #0
	uxtb	r3, r3
	cmp	r3, #0
	beq	.L253
	add	r3, r7, #12
	mov	r0, r3
	movs	r1, #0
	movw	r2, #317
	bl	_ZN15hb_auto_trace_tILi0EbE3retEbj(PLT)
	mov	r3, r0
	b	.L261
.L253:
	ldr	r3, [r7, #4]
	adds	r3, r3, #2
	mov	r0, r3
	bl	_ZNK2OT7IntTypeItLj2EEcvtEv(PLT)
	mov	r3, r0
	cmp	r3, #0
	bne	.L254
	ldr	r3, [r7, #4]
	adds	r3, r3, #4
	mov	r0, r3
	bl	_ZNK2OT7IntTypeItLj2EEcvtEv(PLT)
	mov	r3, r0
	cmp	r3, #0
	bne	.L254
	ldr	r3, [r7, #4]
	adds	r3, r3, #6
	mov	r0, r3
	bl	_ZNK2OT7IntTypeItLj2EEcvtEv(PLT)
	mov	r3, r0
	cmp	r3, #0
	bne	.L254
	ldr	r3, [r7, #4]
	adds	r3, r3, #8
	mov	r0, r3
	bl	_ZNK2OT7IntTypeItLj2EEcvtEv(PLT)
	mov	r3, r0
	cmp	r3, #0
	bne	.L254
	movs	r3, #1
	b	.L255
.L254:
	movs	r3, #0
.L255:
	cmp	r3, #0
	beq	.L256
	add	r3, r7, #12
	mov	r0, r3
	movs	r1, #1
	mov	r2, #322
	bl	_ZN15hb_auto_trace_tILi0EbE3retEbj(PLT)
	mov	r3, r0
	b	.L261
.L256:
	ldr	r3, [r7, #4]
	mov	r0, r3
	bl	_ZNK2OT7IntTypeItLj2EEcvtEv(PLT)
	mov	r3, r0
	mov	r4, r3
	ldr	r3, [r7, #4]
	adds	r3, r3, #6
	mov	r0, r3
	bl	_ZNK2OT7IntTypeItLj2EEcvtEv(PLT)
	mov	r3, r0
	cmp	r4, r3
	bcc	.L257
	ldr	r3, [r7, #4]
	mov	r0, r3
	bl	_ZNK2OT7IntTypeItLj2EEcvtEv(PLT)
	mov	r3, r0
	mov	r4, r3
	ldr	r3, [r7, #4]
	adds	r3, r3, #8
	mov	r0, r3
	bl	_ZNK2OT7IntTypeItLj2EEcvtEv(PLT)
	mov	r3, r0
	cmp	r4, r3
	bhi	.L257
	ldr	r3, [r7, #4]
	adds	r3, r3, #4
	mov	r0, r3
	bl	_ZNK2OT7IntTypeItLj2EEcvtEv(PLT)
	mov	r3, r0
	cmp	r3, #255
	bls	.L257
	ldr	r3, [r7, #4]
	adds	r3, r3, #4
	mov	r0, r3
	bl	_ZNK2OT7IntTypeItLj2EEcvtEv(PLT)
	mov	r3, r0
	uxth	r3, r3
	sxth	r3, r3
	cmp	r3, #0
	bge	.L258
.L257:
	movs	r3, #1
	b	.L259
.L258:
	movs	r3, #0
.L259:
	cmp	r3, #0
	beq	.L260
	add	r3, r7, #12
	mov	r0, r3
	movs	r1, #0
	movw	r2, #327
	bl	_ZN15hb_auto_trace_tILi0EbE3retEbj(PLT)
	mov	r3, r0
	b	.L261
.L260:
	add	r3, r7, #12
	mov	r0, r3
	movs	r1, #1
	movw	r2, #329
	bl	_ZN15hb_auto_trace_tILi0EbE3retEbj(PLT)
	mov	r3, r0
.L261:
	mov	r0, r3
	adds	r7, r7, #20
	mov	sp, r7
	@ sp needed
	pop	{r4, r7, pc}
.L263:
	.align	2
.L262:
	.word	_ZZN2OT17FeatureParamsSize8sanitizeEPNS_21hb_sanitize_context_tEE19__PRETTY_FUNCTION__-(.LPIC34+4)
	.word	.LC16-(.LPIC35+4)
	.fnend
	.size	_ZN2OT17FeatureParamsSize8sanitizeEPNS_21hb_sanitize_context_tE, .-_ZN2OT17FeatureParamsSize8sanitizeEPNS_21hb_sanitize_context_tE
	.section	.text._ZN2OT25FeatureParamsStylisticSet8sanitizeEPNS_21hb_sanitize_context_tE,"axG",%progbits,_ZN2OT25FeatureParamsStylisticSet8sanitizeEPNS_21hb_sanitize_context_tE,comdat
	.align	2
	.weak	_ZN2OT25FeatureParamsStylisticSet8sanitizeEPNS_21hb_sanitize_context_tE
	.thumb
	.thumb_func
	.type	_ZN2OT25FeatureParamsStylisticSet8sanitizeEPNS_21hb_sanitize_context_tE, %function
_ZN2OT25FeatureParamsStylisticSet8sanitizeEPNS_21hb_sanitize_context_tE:
	.fnstart
.LFB366:
	@ args = 0, pretend = 0, frame = 16
	@ frame_needed = 1, uses_anonymous_args = 0
	push	{r4, r7, lr}
	.save {r4, r7, lr}
	.pad #28
	sub	sp, sp, #28
	.setfp r7, sp, #8
	add	r7, sp, #8
	str	r0, [r7, #4]
	str	r1, [r7]
	ldr	r4, [r7]
	ldr	r0, [r7]
	bl	_ZN2OT21hb_sanitize_context_t8get_nameEv(PLT)
	mov	r3, r0
	add	r2, r7, #12
	ldr	r1, .L266
.LPIC36:
	add	r1, pc
	str	r1, [sp]
	ldr	r1, .L266+4
.LPIC37:
	add	r1, pc
	str	r1, [sp, #4]
	mov	r0, r2
	mov	r1, r4
	mov	r2, r3
	ldr	r3, [r7, #4]
	bl	_ZN15hb_auto_trace_tILi0EbEC1EPjPKcPKvS3_S3_z(PLT)
	ldr	r0, [r7]
	ldr	r1, [r7, #4]
	bl	_ZNK2OT21hb_sanitize_context_t12check_structINS_25FeatureParamsStylisticSetEEEbPKT_(PLT)
	mov	r3, r0
	add	r2, r7, #12
	mov	r0, r2
	mov	r1, r3
	mov	r2, #378
	bl	_ZN15hb_auto_trace_tILi0EbE3retEbj(PLT)
	mov	r3, r0
	mov	r0, r3
	adds	r7, r7, #20
	mov	sp, r7
	@ sp needed
	pop	{r4, r7, pc}
.L267:
	.align	2
.L266:
	.word	_ZZN2OT25FeatureParamsStylisticSet8sanitizeEPNS_21hb_sanitize_context_tEE19__PRETTY_FUNCTION__-(.LPIC36+4)
	.word	.LC16-(.LPIC37+4)
	.fnend
	.size	_ZN2OT25FeatureParamsStylisticSet8sanitizeEPNS_21hb_sanitize_context_tE, .-_ZN2OT25FeatureParamsStylisticSet8sanitizeEPNS_21hb_sanitize_context_tE
	.section	.text._ZN2OT30FeatureParamsCharacterVariants8sanitizeEPNS_21hb_sanitize_context_tE,"axG",%progbits,_ZN2OT30FeatureParamsCharacterVariants8sanitizeEPNS_21hb_sanitize_context_tE,comdat
	.align	2
	.weak	_ZN2OT30FeatureParamsCharacterVariants8sanitizeEPNS_21hb_sanitize_context_tE
	.thumb
	.thumb_func
	.type	_ZN2OT30FeatureParamsCharacterVariants8sanitizeEPNS_21hb_sanitize_context_tE, %function
_ZN2OT30FeatureParamsCharacterVariants8sanitizeEPNS_21hb_sanitize_context_tE:
	.fnstart
.LFB368:
	@ args = 0, pretend = 0, frame = 16
	@ frame_needed = 1, uses_anonymous_args = 0
	push	{r4, r7, lr}
	.save {r4, r7, lr}
	.pad #28
	sub	sp, sp, #28
	.setfp r7, sp, #8
	add	r7, sp, #8
	str	r0, [r7, #4]
	str	r1, [r7]
	ldr	r4, [r7]
	ldr	r0, [r7]
	bl	_ZN2OT21hb_sanitize_context_t8get_nameEv(PLT)
	mov	r3, r0
	add	r2, r7, #12
	ldr	r1, .L272
.LPIC38:
	add	r1, pc
	str	r1, [sp]
	ldr	r1, .L272+4
.LPIC39:
	add	r1, pc
	str	r1, [sp, #4]
	mov	r0, r2
	mov	r1, r4
	mov	r2, r3
	ldr	r3, [r7, #4]
	bl	_ZN15hb_auto_trace_tILi0EbEC1EPjPKcPKvS3_S3_z(PLT)
	ldr	r0, [r7]
	ldr	r1, [r7, #4]
	bl	_ZNK2OT21hb_sanitize_context_t12check_structINS_30FeatureParamsCharacterVariantsEEEbPKT_(PLT)
	mov	r3, r0
	cmp	r3, #0
	beq	.L269
	ldr	r3, [r7, #4]
	adds	r3, r3, #12
	mov	r0, r3
	ldr	r1, [r7]
	bl	_ZN2OT7ArrayOfINS_7IntTypeIjLj3EEENS1_ItLj2EEEE8sanitizeEPNS_21hb_sanitize_context_tE(PLT)
	mov	r3, r0
	cmp	r3, #0
	beq	.L269
	movs	r3, #1
	b	.L270
.L269:
	movs	r3, #0
.L270:
	add	r2, r7, #12
	mov	r0, r2
	mov	r1, r3
	mov	r2, #410
	bl	_ZN15hb_auto_trace_tILi0EbE3retEbj(PLT)
	mov	r3, r0
	mov	r0, r3
	adds	r7, r7, #20
	mov	sp, r7
	@ sp needed
	pop	{r4, r7, pc}
.L273:
	.align	2
.L272:
	.word	_ZZN2OT30FeatureParamsCharacterVariants8sanitizeEPNS_21hb_sanitize_context_tEE19__PRETTY_FUNCTION__-(.LPIC38+4)
	.word	.LC16-(.LPIC39+4)
	.fnend
	.size	_ZN2OT30FeatureParamsCharacterVariants8sanitizeEPNS_21hb_sanitize_context_tE, .-_ZN2OT30FeatureParamsCharacterVariants8sanitizeEPNS_21hb_sanitize_context_tE
	.section	.text._ZN2OT13FeatureParams8sanitizeEPNS_21hb_sanitize_context_tEj,"axG",%progbits,_ZN2OT13FeatureParams8sanitizeEPNS_21hb_sanitize_context_tEj,comdat
	.align	2
	.weak	_ZN2OT13FeatureParams8sanitizeEPNS_21hb_sanitize_context_tEj
	.thumb
	.thumb_func
	.type	_ZN2OT13FeatureParams8sanitizeEPNS_21hb_sanitize_context_tEj, %function
_ZN2OT13FeatureParams8sanitizeEPNS_21hb_sanitize_context_tEj:
	.fnstart
.LFB371:
	@ args = 0, pretend = 0, frame = 24
	@ frame_needed = 1, uses_anonymous_args = 0
	push	{r4, r7, lr}
	.save {r4, r7, lr}
	.pad #36
	sub	sp, sp, #36
	.setfp r7, sp, #8
	add	r7, sp, #8
	str	r0, [r7, #12]
	str	r1, [r7, #8]
	str	r2, [r7, #4]
	ldr	r4, [r7, #8]
	ldr	r0, [r7, #8]
	bl	_ZN2OT21hb_sanitize_context_t8get_nameEv(PLT)
	mov	r3, r0
	add	r2, r7, #20
	ldr	r1, .L280
.LPIC40:
	add	r1, pc
	str	r1, [sp]
	ldr	r1, .L280+4
.LPIC41:
	add	r1, pc
	str	r1, [sp, #4]
	mov	r0, r2
	mov	r1, r4
	mov	r2, r3
	ldr	r3, [r7, #12]
	bl	_ZN15hb_auto_trace_tILi0EbEC1EPjPKcPKvS3_S3_z(PLT)
	ldr	r2, [r7, #4]
	movw	r3, #31333
	movt	r3, 29545
	cmp	r2, r3
	bne	.L275
	ldr	r3, [r7, #12]
	mov	r0, r3
	ldr	r1, [r7, #8]
	bl	_ZN2OT17FeatureParamsSize8sanitizeEPNS_21hb_sanitize_context_tE(PLT)
	mov	r3, r0
	add	r2, r7, #20
	mov	r0, r2
	mov	r1, r3
	mov	r2, #450
	bl	_ZN15hb_auto_trace_tILi0EbE3retEbj(PLT)
	mov	r3, r0
	b	.L279
.L275:
	ldr	r3, [r7, #4]
	lsrs	r2, r3, #16
	lsls	r2, r2, #16
	movs	r3, #0
	movt	r3, 29555
	cmp	r2, r3
	bne	.L277
	ldr	r3, [r7, #12]
	mov	r0, r3
	ldr	r1, [r7, #8]
	bl	_ZN2OT25FeatureParamsStylisticSet8sanitizeEPNS_21hb_sanitize_context_tE(PLT)
	mov	r3, r0
	add	r2, r7, #20
	mov	r0, r2
	mov	r1, r3
	mov	r2, #452
	bl	_ZN15hb_auto_trace_tILi0EbE3retEbj(PLT)
	mov	r3, r0
	b	.L279
.L277:
	ldr	r3, [r7, #4]
	lsrs	r2, r3, #16
	lsls	r2, r2, #16
	movs	r3, #0
	movt	r3, 25462
	cmp	r2, r3
	bne	.L278
	ldr	r3, [r7, #12]
	mov	r0, r3
	ldr	r1, [r7, #8]
	bl	_ZN2OT30FeatureParamsCharacterVariants8sanitizeEPNS_21hb_sanitize_context_tE(PLT)
	mov	r3, r0
	add	r2, r7, #20
	mov	r0, r2
	mov	r1, r3
	mov	r2, #454
	bl	_ZN15hb_auto_trace_tILi0EbE3retEbj(PLT)
	mov	r3, r0
	b	.L279
.L278:
	add	r3, r7, #20
	mov	r0, r3
	movs	r1, #1
	movw	r2, #455
	bl	_ZN15hb_auto_trace_tILi0EbE3retEbj(PLT)
	mov	r3, r0
.L279:
	mov	r0, r3
	adds	r7, r7, #28
	mov	sp, r7
	@ sp needed
	pop	{r4, r7, pc}
.L281:
	.align	2
.L280:
	.word	_ZZN2OT13FeatureParams8sanitizeEPNS_21hb_sanitize_context_tEjE19__PRETTY_FUNCTION__-(.LPIC40+4)
	.word	.LC16-(.LPIC41+4)
	.fnend
	.size	_ZN2OT13FeatureParams8sanitizeEPNS_21hb_sanitize_context_tEj, .-_ZN2OT13FeatureParams8sanitizeEPNS_21hb_sanitize_context_tEj
	.section	.text._ZNK2OT13FeatureParams15get_size_paramsEj,"axG",%progbits,_ZNK2OT13FeatureParams15get_size_paramsEj,comdat
	.align	2
	.weak	_ZNK2OT13FeatureParams15get_size_paramsEj
	.thumb
	.thumb_func
	.type	_ZNK2OT13FeatureParams15get_size_paramsEj, %function
_ZNK2OT13FeatureParams15get_size_paramsEj:
	.fnstart
.LFB372:
	@ args = 0, pretend = 0, frame = 8
	@ frame_needed = 1, uses_anonymous_args = 0
	push	{r7, lr}
	.save {r7, lr}
	.pad #8
	sub	sp, sp, #8
	.setfp r7, sp, #0
	add	r7, sp, #0
	str	r0, [r7, #4]
	str	r1, [r7]
	ldr	r2, [r7]
	movw	r3, #31333
	movt	r3, 29545
	cmp	r2, r3
	bne	.L283
	ldr	r3, [r7, #4]
	b	.L284
.L283:
	bl	_ZN2OTL4NullINS_17FeatureParamsSizeEEERKT_v(PLT)
	mov	r3, r0
.L284:
	mov	r0, r3
	adds	r7, r7, #8
	mov	sp, r7
	@ sp needed
	pop	{r7, pc}
	.fnend
	.size	_ZNK2OT13FeatureParams15get_size_paramsEj, .-_ZNK2OT13FeatureParams15get_size_paramsEj
	.section	.text._ZNK2OT7Feature18get_lookup_indexesEjPjS1_,"axG",%progbits,_ZNK2OT7Feature18get_lookup_indexesEjPjS1_,comdat
	.align	2
	.weak	_ZNK2OT7Feature18get_lookup_indexesEjPjS1_
	.thumb
	.thumb_func
	.type	_ZNK2OT7Feature18get_lookup_indexesEjPjS1_, %function
_ZNK2OT7Feature18get_lookup_indexesEjPjS1_:
	.fnstart
.LFB376:
	@ args = 0, pretend = 0, frame = 16
	@ frame_needed = 1, uses_anonymous_args = 0
	push	{r7, lr}
	.save {r7, lr}
	.pad #16
	sub	sp, sp, #16
	.setfp r7, sp, #0
	add	r7, sp, #0
	str	r0, [r7, #12]
	str	r1, [r7, #8]
	str	r2, [r7, #4]
	str	r3, [r7]
	ldr	r3, [r7, #12]
	adds	r3, r3, #2
	mov	r0, r3
	ldr	r1, [r7, #8]
	ldr	r2, [r7, #4]
	ldr	r3, [r7]
	bl	_ZNK2OT10IndexArray11get_indexesEjPjS1_(PLT)
	mov	r3, r0
	mov	r0, r3
	adds	r7, r7, #16
	mov	sp, r7
	@ sp needed
	pop	{r7, pc}
	.fnend
	.size	_ZNK2OT7Feature18get_lookup_indexesEjPjS1_, .-_ZNK2OT7Feature18get_lookup_indexesEjPjS1_
	.section	.text._ZNK2OT7Feature18get_feature_paramsEv,"axG",%progbits,_ZNK2OT7Feature18get_feature_paramsEv,comdat
	.align	2
	.weak	_ZNK2OT7Feature18get_feature_paramsEv
	.thumb
	.thumb_func
	.type	_ZNK2OT7Feature18get_feature_paramsEv, %function
_ZNK2OT7Feature18get_feature_paramsEv:
	.fnstart
.LFB377:
	@ args = 0, pretend = 0, frame = 16
	@ frame_needed = 1, uses_anonymous_args = 0
	push	{r7, lr}
	.save {r7, lr}
	.pad #16
	sub	sp, sp, #16
	.setfp r7, sp, #0
	add	r7, sp, #0
	str	r0, [r7, #4]
	ldr	r3, [r7, #4]
	str	r3, [r7, #12]
	ldr	r3, [r7, #4]
	add	r2, r7, #12
	mov	r0, r2
	mov	r1, r3
	bl	_ZN2OTplIPKNS_7FeatureENS_7IntTypeItLj2EEENS_13FeatureParamsEEERKT1_RKT_RKNS_8OffsetToIS7_T0_EE(PLT)
	mov	r3, r0
	mov	r0, r3
	adds	r7, r7, #16
	mov	sp, r7
	@ sp needed
	pop	{r7, pc}
	.fnend
	.size	_ZNK2OT7Feature18get_feature_paramsEv, .-_ZNK2OT7Feature18get_feature_paramsEv
	.section	.text._ZN2OT7Feature8sanitizeEPNS_21hb_sanitize_context_tEPKNS_6RecordIS0_E18sanitize_closure_tE,"axG",%progbits,_ZN2OT7Feature8sanitizeEPNS_21hb_sanitize_context_tEPKNS_6RecordIS0_E18sanitize_closure_tE,comdat
	.align	2
	.weak	_ZN2OT7Feature8sanitizeEPNS_21hb_sanitize_context_tEPKNS_6RecordIS0_E18sanitize_closure_tE
	.thumb
	.thumb_func
	.type	_ZN2OT7Feature8sanitizeEPNS_21hb_sanitize_context_tEPKNS_6RecordIS0_E18sanitize_closure_tE, %function
_ZN2OT7Feature8sanitizeEPNS_21hb_sanitize_context_tEPKNS_6RecordIS0_E18sanitize_closure_tE:
	.fnstart
.LFB378:
	@ args = 0, pretend = 0, frame = 32
	@ frame_needed = 1, uses_anonymous_args = 0
	push	{r4, r7, lr}
	.save {r4, r7, lr}
	.pad #44
	sub	sp, sp, #44
	.setfp r7, sp, #8
	add	r7, sp, #8
	str	r0, [r7, #12]
	str	r1, [r7, #8]
	str	r2, [r7, #4]
	ldr	r4, [r7, #8]
	ldr	r0, [r7, #8]
	bl	_ZN2OT21hb_sanitize_context_t8get_nameEv(PLT)
	mov	r3, r0
	add	r2, r7, #24
	ldr	r1, .L308
.LPIC42:
	add	r1, pc
	str	r1, [sp]
	ldr	r1, .L308+4
.LPIC43:
	add	r1, pc
	str	r1, [sp, #4]
	mov	r0, r2
	mov	r1, r4
	mov	r2, r3
	ldr	r3, [r7, #12]
	bl	_ZN15hb_auto_trace_tILi0EbEC1EPjPKcPKvS3_S3_z(PLT)
	ldr	r0, [r7, #8]
	ldr	r1, [r7, #12]
	bl	_ZNK2OT21hb_sanitize_context_t12check_structINS_7FeatureEEEbPKT_(PLT)
	mov	r3, r0
	eor	r3, r3, #1
	uxtb	r3, r3
	cmp	r3, #0
	bne	.L290
	ldr	r3, [r7, #12]
	adds	r3, r3, #2
	mov	r0, r3
	ldr	r1, [r7, #8]
	bl	_ZN2OT7ArrayOfINS_5IndexENS_7IntTypeItLj2EEEE8sanitizeEPNS_21hb_sanitize_context_tE(PLT)
	mov	r3, r0
	eor	r3, r3, #1
	uxtb	r3, r3
	cmp	r3, #0
	beq	.L291
.L290:
	movs	r3, #1
	b	.L292
.L291:
	movs	r3, #0
.L292:
	cmp	r3, #0
	beq	.L293
	add	r3, r7, #24
	mov	r0, r3
	movs	r1, #0
	mov	r2, #492
	bl	_ZN15hb_auto_trace_tILi0EbE3retEbj(PLT)
	mov	r3, r0
	b	.L307
.L293:
	ldr	r2, [r7, #12]
	add	r3, r7, #20
	ldrh	r2, [r2]	@ unaligned
	strh	r2, [r3]	@ unaligned
	ldr	r2, [r7, #12]
	ldr	r3, [r7, #4]
	cmp	r3, #0
	beq	.L295
	ldr	r3, [r7, #4]
	ldr	r3, [r3]
	b	.L296
.L295:
	movs	r3, #0
.L296:
	mov	r0, r2
	ldr	r1, [r7, #8]
	ldr	r2, [r7, #12]
	bl	_ZN2OT8OffsetToINS_13FeatureParamsENS_7IntTypeItLj2EEEE8sanitizeIjEEbPNS_21hb_sanitize_context_tEPvT_(PLT)
	mov	r3, r0
	eor	r3, r3, #1
	uxtb	r3, r3
	cmp	r3, #0
	beq	.L297
	add	r3, r7, #24
	mov	r0, r3
	movs	r1, #0
	movw	r2, #507
	bl	_ZN15hb_auto_trace_tILi0EbE3retEbj(PLT)
	mov	r3, r0
	b	.L307
.L297:
	add	r3, r7, #20
	mov	r0, r3
	bl	_ZNK2OT6OffsetINS_7IntTypeItLj2EEEE7is_nullEv(PLT)
	mov	r3, r0
	cmp	r3, #0
	beq	.L298
	add	r3, r7, #24
	mov	r0, r3
	movs	r1, #1
	mov	r2, #510
	bl	_ZN15hb_auto_trace_tILi0EbE3retEbj(PLT)
	mov	r3, r0
	b	.L307
.L298:
	ldr	r3, [r7, #12]
	mov	r0, r3
	bl	_ZNK2OT7IntTypeItLj2EEcvtEv(PLT)
	mov	r3, r0
	cmp	r3, #0
	bne	.L299
	ldr	r3, [r7, #4]
	cmp	r3, #0
	beq	.L299
	ldr	r3, [r7, #4]
	ldr	r2, [r3]
	movw	r3, #31333
	movt	r3, 29545
	cmp	r2, r3
	bne	.L299
	ldr	r3, [r7, #4]
	ldr	r3, [r3, #4]
	cmp	r3, #0
	beq	.L299
	ldr	r3, [r7, #4]
	ldr	r2, [r3, #4]
	ldr	r3, [r7, #12]
	cmp	r2, r3
	bcs	.L299
	movs	r3, #1
	b	.L300
.L299:
	movs	r3, #0
.L300:
	cmp	r3, #0
	beq	.L301
	add	r3, r7, #20
	mov	r0, r3
	bl	_ZNK2OT7IntTypeItLj2EEcvtEv(PLT)
	mov	r3, r0
	mov	r2, r3
	ldr	r3, [r7, #4]
	ldr	r3, [r3, #4]
	mov	r1, r3
	ldr	r3, [r7, #12]
	subs	r3, r1, r3
	add	r3, r3, r2
	str	r3, [r7, #28]
	ldr	r3, [r7, #28]
	uxth	r3, r3
	add	r2, r7, #16
	mov	r0, r2
	mov	r1, r3
	bl	_ZN2OT7IntTypeItLj2EE3setEt(PLT)
	add	r3, r7, #16
	mov	r0, r3
	bl	_ZNK2OT7IntTypeItLj2EEcvtEv(PLT)
	mov	r3, r0
	mov	r2, r3
	ldr	r3, [r7, #28]
	cmp	r2, r3
	bne	.L302
	ldr	r2, [r7, #12]
	add	r3, r7, #16
	ldr	r0, [r7, #8]
	mov	r1, r2
	mov	r2, r3
	bl	_ZN2OT21hb_sanitize_context_t7try_setINS_8OffsetToINS_13FeatureParamsENS_7IntTypeItLj2EEEEES6_EEbPT_RKT0_(PLT)
	mov	r3, r0
	cmp	r3, #0
	beq	.L302
	ldr	r2, [r7, #12]
	ldr	r3, [r7, #4]
	cmp	r3, #0
	beq	.L303
	ldr	r3, [r7, #4]
	ldr	r3, [r3]
	b	.L304
.L303:
	movs	r3, #0
.L304:
	mov	r0, r2
	ldr	r1, [r7, #8]
	ldr	r2, [r7, #12]
	bl	_ZN2OT8OffsetToINS_13FeatureParamsENS_7IntTypeItLj2EEEE8sanitizeIjEEbPNS_21hb_sanitize_context_tEPvT_(PLT)
	mov	r3, r0
	eor	r3, r3, #1
	uxtb	r3, r3
	cmp	r3, #0
	beq	.L302
	movs	r3, #1
	b	.L305
.L302:
	movs	r3, #0
.L305:
	cmp	r3, #0
	beq	.L306
	add	r3, r7, #24
	mov	r0, r3
	movs	r1, #0
	movw	r2, #525
	bl	_ZN15hb_auto_trace_tILi0EbE3retEbj(PLT)
	mov	r3, r0
	b	.L307
.L306:
.L301:
	add	r3, r7, #24
	mov	r0, r3
	movs	r1, #1
	mov	r2, #528
	bl	_ZN15hb_auto_trace_tILi0EbE3retEbj(PLT)
	mov	r3, r0
.L307:
	mov	r0, r3
	adds	r7, r7, #36
	mov	sp, r7
	@ sp needed
	pop	{r4, r7, pc}
.L309:
	.align	2
.L308:
	.word	_ZZN2OT7Feature8sanitizeEPNS_21hb_sanitize_context_tEPKNS_6RecordIS0_E18sanitize_closure_tEE19__PRETTY_FUNCTION__-(.LPIC42+4)
	.word	.LC16-(.LPIC43+4)
	.fnend
	.size	_ZN2OT7Feature8sanitizeEPNS_21hb_sanitize_context_tEPKNS_6RecordIS0_E18sanitize_closure_tE, .-_ZN2OT7Feature8sanitizeEPNS_21hb_sanitize_context_tEPKNS_6RecordIS0_E18sanitize_closure_tE
	.section	.text._ZNK2OT6Lookup18get_subtable_countEv,"axG",%progbits,_ZNK2OT6Lookup18get_subtable_countEv,comdat
	.align	2
	.weak	_ZNK2OT6Lookup18get_subtable_countEv
	.thumb
	.thumb_func
	.type	_ZNK2OT6Lookup18get_subtable_countEv, %function
_ZNK2OT6Lookup18get_subtable_countEv:
	.fnstart
.LFB382:
	@ args = 0, pretend = 0, frame = 8
	@ frame_needed = 1, uses_anonymous_args = 0
	push	{r7, lr}
	.save {r7, lr}
	.pad #8
	sub	sp, sp, #8
	.setfp r7, sp, #0
	add	r7, sp, #0
	str	r0, [r7, #4]
	ldr	r3, [r7, #4]
	adds	r3, r3, #4
	mov	r0, r3
	bl	_ZNK2OT7IntTypeItLj2EEcvtEv(PLT)
	mov	r3, r0
	mov	r0, r3
	adds	r7, r7, #8
	mov	sp, r7
	@ sp needed
	pop	{r7, pc}
	.fnend
	.size	_ZNK2OT6Lookup18get_subtable_countEv, .-_ZNK2OT6Lookup18get_subtable_countEv
	.section	.text._ZNK2OT6Lookup8get_typeEv,"axG",%progbits,_ZNK2OT6Lookup8get_typeEv,comdat
	.align	2
	.weak	_ZNK2OT6Lookup8get_typeEv
	.thumb
	.thumb_func
	.type	_ZNK2OT6Lookup8get_typeEv, %function
_ZNK2OT6Lookup8get_typeEv:
	.fnstart
.LFB383:
	@ args = 0, pretend = 0, frame = 8
	@ frame_needed = 1, uses_anonymous_args = 0
	push	{r7, lr}
	.save {r7, lr}
	.pad #8
	sub	sp, sp, #8
	.setfp r7, sp, #0
	add	r7, sp, #0
	str	r0, [r7, #4]
	ldr	r3, [r7, #4]
	mov	r0, r3
	bl	_ZNK2OT7IntTypeItLj2EEcvtEv(PLT)
	mov	r3, r0
	mov	r0, r3
	adds	r7, r7, #8
	mov	sp, r7
	@ sp needed
	pop	{r7, pc}
	.fnend
	.size	_ZNK2OT6Lookup8get_typeEv, .-_ZNK2OT6Lookup8get_typeEv
	.section	.text._ZNK2OT6Lookup9get_propsEv,"axG",%progbits,_ZNK2OT6Lookup9get_propsEv,comdat
	.align	2
	.weak	_ZNK2OT6Lookup9get_propsEv
	.thumb
	.thumb_func
	.type	_ZNK2OT6Lookup9get_propsEv, %function
_ZNK2OT6Lookup9get_propsEv:
	.fnstart
.LFB384:
	@ args = 0, pretend = 0, frame = 16
	@ frame_needed = 1, uses_anonymous_args = 0
	push	{r7, lr}
	.save {r7, lr}
	.pad #16
	sub	sp, sp, #16
	.setfp r7, sp, #0
	add	r7, sp, #0
	str	r0, [r7, #4]
	ldr	r3, [r7, #4]
	adds	r3, r3, #2
	mov	r0, r3
	bl	_ZNK2OT7IntTypeItLj2EEcvtEv(PLT)
	mov	r3, r0
	str	r3, [r7, #12]
	ldr	r3, [r7, #12]
	and	r3, r3, #16
	cmp	r3, #0
	beq	.L315
	ldr	r3, [r7, #4]
	adds	r3, r3, #4
	mov	r0, r3
	bl	_ZN2OTL11StructAfterINS_7IntTypeItLj2EEENS_7ArrayOfINS_6OffsetIS2_EES2_EEEERKT_RKT0_(PLT)
	mov	r3, r0
	str	r3, [r7, #8]
	ldr	r0, [r7, #8]
	bl	_ZNK2OT7IntTypeItLj2EEcvtEv(PLT)
	mov	r3, r0
	lsls	r3, r3, #16
	ldr	r2, [r7, #12]
	add	r3, r3, r2
	str	r3, [r7, #12]
.L315:
	ldr	r3, [r7, #12]
	mov	r0, r3
	adds	r7, r7, #16
	mov	sp, r7
	@ sp needed
	pop	{r7, pc}
	.fnend
	.size	_ZNK2OT6Lookup9get_propsEv, .-_ZNK2OT6Lookup9get_propsEv
	.section	.text._ZN2OT6Lookup8sanitizeEPNS_21hb_sanitize_context_tE,"axG",%progbits,_ZN2OT6Lookup8sanitizeEPNS_21hb_sanitize_context_tE,comdat
	.align	2
	.weak	_ZN2OT6Lookup8sanitizeEPNS_21hb_sanitize_context_tE
	.thumb
	.thumb_func
	.type	_ZN2OT6Lookup8sanitizeEPNS_21hb_sanitize_context_tE, %function
_ZN2OT6Lookup8sanitizeEPNS_21hb_sanitize_context_tE:
	.fnstart
.LFB386:
	@ args = 0, pretend = 0, frame = 16
	@ frame_needed = 1, uses_anonymous_args = 0
	push	{r4, r7, lr}
	.save {r4, r7, lr}
	.pad #28
	sub	sp, sp, #28
	.setfp r7, sp, #8
	add	r7, sp, #8
	str	r0, [r7, #4]
	str	r1, [r7]
	ldr	r4, [r7]
	ldr	r0, [r7]
	bl	_ZN2OT21hb_sanitize_context_t8get_nameEv(PLT)
	mov	r3, r0
	add	r2, r7, #8
	ldr	r1, .L326
.LPIC44:
	add	r1, pc
	str	r1, [sp]
	ldr	r1, .L326+4
.LPIC45:
	add	r1, pc
	str	r1, [sp, #4]
	mov	r0, r2
	mov	r1, r4
	mov	r2, r3
	ldr	r3, [r7, #4]
	bl	_ZN15hb_auto_trace_tILi0EbEC1EPjPKcPKvS3_S3_z(PLT)
	ldr	r0, [r7]
	ldr	r1, [r7, #4]
	bl	_ZNK2OT21hb_sanitize_context_t12check_structINS_6LookupEEEbPKT_(PLT)
	mov	r3, r0
	eor	r3, r3, #1
	uxtb	r3, r3
	cmp	r3, #0
	bne	.L318
	ldr	r3, [r7, #4]
	adds	r3, r3, #4
	mov	r0, r3
	ldr	r1, [r7]
	bl	_ZN2OT7ArrayOfINS_6OffsetINS_7IntTypeItLj2EEEEES3_E8sanitizeEPNS_21hb_sanitize_context_tE(PLT)
	mov	r3, r0
	eor	r3, r3, #1
	uxtb	r3, r3
	cmp	r3, #0
	beq	.L319
.L318:
	movs	r3, #1
	b	.L320
.L319:
	movs	r3, #0
.L320:
	cmp	r3, #0
	beq	.L321
	add	r3, r7, #8
	mov	r0, r3
	movs	r1, #0
	movw	r2, #601
	bl	_ZN15hb_auto_trace_tILi0EbE3retEbj(PLT)
	mov	r3, r0
	b	.L325
.L321:
	ldr	r3, [r7, #4]
	adds	r3, r3, #2
	mov	r0, r3
	bl	_ZNK2OT7IntTypeItLj2EEcvtEv(PLT)
	mov	r3, r0
	and	r3, r3, #16
	cmp	r3, #0
	ite	ne
	movne	r3, #1
	moveq	r3, #0
	uxtb	r3, r3
	cmp	r3, #0
	beq	.L323
	ldr	r3, [r7, #4]
	adds	r3, r3, #4
	mov	r0, r3
	bl	_ZN2OTL11StructAfterINS_7IntTypeItLj2EEENS_7ArrayOfINS_6OffsetIS2_EES2_EEEERT_RT0_(PLT)
	mov	r3, r0
	str	r3, [r7, #12]
	ldr	r0, [r7, #12]
	ldr	r1, [r7]
	bl	_ZN2OT7IntTypeItLj2EE8sanitizeEPNS_21hb_sanitize_context_tE(PLT)
	mov	r3, r0
	eor	r3, r3, #1
	uxtb	r3, r3
	cmp	r3, #0
	beq	.L324
	add	r3, r7, #8
	mov	r0, r3
	movs	r1, #0
	movw	r2, #605
	bl	_ZN15hb_auto_trace_tILi0EbE3retEbj(PLT)
	mov	r3, r0
	b	.L325
.L324:
.L323:
	add	r3, r7, #8
	mov	r0, r3
	movs	r1, #1
	movw	r2, #607
	bl	_ZN15hb_auto_trace_tILi0EbE3retEbj(PLT)
	mov	r3, r0
.L325:
	mov	r0, r3
	adds	r7, r7, #20
	mov	sp, r7
	@ sp needed
	pop	{r4, r7, pc}
.L327:
	.align	2
.L326:
	.word	_ZZN2OT6Lookup8sanitizeEPNS_21hb_sanitize_context_tEE19__PRETTY_FUNCTION__-(.LPIC44+4)
	.word	.LC16-(.LPIC45+4)
	.fnend
	.size	_ZN2OT6Lookup8sanitizeEPNS_21hb_sanitize_context_tE, .-_ZN2OT6Lookup8sanitizeEPNS_21hb_sanitize_context_tE
	.section	.text._ZNK2OT15CoverageFormat112get_coverageEj,"axG",%progbits,_ZNK2OT15CoverageFormat112get_coverageEj,comdat
	.align	2
	.weak	_ZNK2OT15CoverageFormat112get_coverageEj
	.thumb
	.thumb_func
	.type	_ZNK2OT15CoverageFormat112get_coverageEj, %function
_ZNK2OT15CoverageFormat112get_coverageEj:
	.fnstart
.LFB389:
	@ args = 0, pretend = 0, frame = 16
	@ frame_needed = 1, uses_anonymous_args = 0
	push	{r7, lr}
	.save {r7, lr}
	.pad #16
	sub	sp, sp, #16
	.setfp r7, sp, #0
	add	r7, sp, #0
	str	r0, [r7, #4]
	str	r1, [r7]
	ldr	r3, [r7, #4]
	adds	r2, r3, #2
	mov	r3, r7
	mov	r0, r2
	mov	r1, r3
	bl	_ZNK2OT13SortedArrayOfINS_7IntTypeItLj2EEES2_E7bsearchIjEEiRKT_(PLT)
	mov	r3, r0
	str	r3, [r7, #12]
	ldr	r3, [r7, #12]
	mov	r0, r3
	adds	r7, r7, #16
	mov	sp, r7
	@ sp needed
	pop	{r7, pc}
	.fnend
	.size	_ZNK2OT15CoverageFormat112get_coverageEj, .-_ZNK2OT15CoverageFormat112get_coverageEj
	.section	.text._ZN2OT15CoverageFormat18sanitizeEPNS_21hb_sanitize_context_tE,"axG",%progbits,_ZN2OT15CoverageFormat18sanitizeEPNS_21hb_sanitize_context_tE,comdat
	.align	2
	.weak	_ZN2OT15CoverageFormat18sanitizeEPNS_21hb_sanitize_context_tE
	.thumb
	.thumb_func
	.type	_ZN2OT15CoverageFormat18sanitizeEPNS_21hb_sanitize_context_tE, %function
_ZN2OT15CoverageFormat18sanitizeEPNS_21hb_sanitize_context_tE:
	.fnstart
.LFB391:
	@ args = 0, pretend = 0, frame = 16
	@ frame_needed = 1, uses_anonymous_args = 0
	push	{r4, r7, lr}
	.save {r4, r7, lr}
	.pad #28
	sub	sp, sp, #28
	.setfp r7, sp, #8
	add	r7, sp, #8
	str	r0, [r7, #4]
	str	r1, [r7]
	ldr	r4, [r7]
	ldr	r0, [r7]
	bl	_ZN2OT21hb_sanitize_context_t8get_nameEv(PLT)
	mov	r3, r0
	add	r2, r7, #12
	ldr	r1, .L332
.LPIC46:
	add	r1, pc
	str	r1, [sp]
	ldr	r1, .L332+4
.LPIC47:
	add	r1, pc
	str	r1, [sp, #4]
	mov	r0, r2
	mov	r1, r4
	mov	r2, r3
	ldr	r3, [r7, #4]
	bl	_ZN15hb_auto_trace_tILi0EbEC1EPjPKcPKvS3_S3_z(PLT)
	ldr	r3, [r7, #4]
	adds	r3, r3, #2
	mov	r0, r3
	ldr	r1, [r7]
	bl	_ZN2OT7ArrayOfINS_7IntTypeItLj2EEES2_E8sanitizeEPNS_21hb_sanitize_context_tE(PLT)
	mov	r3, r0
	add	r2, r7, #12
	mov	r0, r2
	mov	r1, r3
	mov	r2, #656
	bl	_ZN15hb_auto_trace_tILi0EbE3retEbj(PLT)
	mov	r3, r0
	mov	r0, r3
	adds	r7, r7, #20
	mov	sp, r7
	@ sp needed
	pop	{r4, r7, pc}
.L333:
	.align	2
.L332:
	.word	_ZZN2OT15CoverageFormat18sanitizeEPNS_21hb_sanitize_context_tEE19__PRETTY_FUNCTION__-(.LPIC46+4)
	.word	.LC16-(.LPIC47+4)
	.fnend
	.size	_ZN2OT15CoverageFormat18sanitizeEPNS_21hb_sanitize_context_tE, .-_ZN2OT15CoverageFormat18sanitizeEPNS_21hb_sanitize_context_tE
	.section	.text._ZNK2OT15CoverageFormat119intersects_coverageEPK8hb_set_tj,"axG",%progbits,_ZNK2OT15CoverageFormat119intersects_coverageEPK8hb_set_tj,comdat
	.align	2
	.weak	_ZNK2OT15CoverageFormat119intersects_coverageEPK8hb_set_tj
	.thumb
	.thumb_func
	.type	_ZNK2OT15CoverageFormat119intersects_coverageEPK8hb_set_tj, %function
_ZNK2OT15CoverageFormat119intersects_coverageEPK8hb_set_tj:
	.fnstart
.LFB392:
	@ args = 0, pretend = 0, frame = 16
	@ frame_needed = 1, uses_anonymous_args = 0
	push	{r7, lr}
	.save {r7, lr}
	.pad #16
	sub	sp, sp, #16
	.setfp r7, sp, #0
	add	r7, sp, #0
	str	r0, [r7, #12]
	str	r1, [r7, #8]
	str	r2, [r7, #4]
	ldr	r3, [r7, #12]
	adds	r3, r3, #2
	mov	r0, r3
	ldr	r1, [r7, #4]
	bl	_ZNK2OT7ArrayOfINS_7IntTypeItLj2EEES2_EixEj(PLT)
	mov	r3, r0
	mov	r0, r3
	bl	_ZNK2OT7IntTypeItLj2EEcvtEv(PLT)
	mov	r3, r0
	ldr	r0, [r7, #8]
	mov	r1, r3
	bl	_ZNK8hb_set_t3hasEj(PLT)
	mov	r3, r0
	mov	r0, r3
	adds	r7, r7, #16
	mov	sp, r7
	@ sp needed
	pop	{r7, pc}
	.fnend
	.size	_ZNK2OT15CoverageFormat119intersects_coverageEPK8hb_set_tj, .-_ZNK2OT15CoverageFormat119intersects_coverageEPK8hb_set_tj
	.section	.text._ZN2OT15CoverageFormat14Iter4initERKS0_,"axG",%progbits,_ZN2OT15CoverageFormat14Iter4initERKS0_,comdat
	.align	2
	.weak	_ZN2OT15CoverageFormat14Iter4initERKS0_
	.thumb
	.thumb_func
	.type	_ZN2OT15CoverageFormat14Iter4initERKS0_, %function
_ZN2OT15CoverageFormat14Iter4initERKS0_:
	.fnstart
.LFB394:
	@ args = 0, pretend = 0, frame = 8
	@ frame_needed = 1, uses_anonymous_args = 0
	@ link register save eliminated.
	push	{r7}
	sub	sp, sp, #12
	add	r7, sp, #0
	str	r0, [r7, #4]
	str	r1, [r7]
	ldr	r3, [r7, #4]
	ldr	r2, [r7]
	str	r2, [r3]
	ldr	r3, [r7, #4]
	movs	r2, #0
	str	r2, [r3, #4]
	adds	r7, r7, #12
	mov	sp, r7
	@ sp needed
	ldr	r7, [sp], #4
	bx	lr
	.cantunwind
	.fnend
	.size	_ZN2OT15CoverageFormat14Iter4initERKS0_, .-_ZN2OT15CoverageFormat14Iter4initERKS0_
	.section	.text._ZN2OT15CoverageFormat14Iter4moreEv,"axG",%progbits,_ZN2OT15CoverageFormat14Iter4moreEv,comdat
	.align	2
	.weak	_ZN2OT15CoverageFormat14Iter4moreEv
	.thumb
	.thumb_func
	.type	_ZN2OT15CoverageFormat14Iter4moreEv, %function
_ZN2OT15CoverageFormat14Iter4moreEv:
	.fnstart
.LFB395:
	@ args = 0, pretend = 0, frame = 8
	@ frame_needed = 1, uses_anonymous_args = 0
	push	{r4, r7, lr}
	.save {r4, r7, lr}
	.pad #12
	sub	sp, sp, #12
	.setfp r7, sp, #0
	add	r7, sp, #0
	str	r0, [r7, #4]
	ldr	r3, [r7, #4]
	ldr	r4, [r3, #4]
	ldr	r3, [r7, #4]
	ldr	r3, [r3]
	adds	r3, r3, #2
	mov	r0, r3
	bl	_ZNK2OT7IntTypeItLj2EEcvtEv(PLT)
	mov	r3, r0
	cmp	r4, r3
	ite	cc
	movcc	r3, #1
	movcs	r3, #0
	uxtb	r3, r3
	mov	r0, r3
	adds	r7, r7, #12
	mov	sp, r7
	@ sp needed
	pop	{r4, r7, pc}
	.fnend
	.size	_ZN2OT15CoverageFormat14Iter4moreEv, .-_ZN2OT15CoverageFormat14Iter4moreEv
	.section	.text._ZN2OT15CoverageFormat14Iter4nextEv,"axG",%progbits,_ZN2OT15CoverageFormat14Iter4nextEv,comdat
	.align	2
	.weak	_ZN2OT15CoverageFormat14Iter4nextEv
	.thumb
	.thumb_func
	.type	_ZN2OT15CoverageFormat14Iter4nextEv, %function
_ZN2OT15CoverageFormat14Iter4nextEv:
	.fnstart
.LFB396:
	@ args = 0, pretend = 0, frame = 8
	@ frame_needed = 1, uses_anonymous_args = 0
	@ link register save eliminated.
	push	{r7}
	sub	sp, sp, #12
	add	r7, sp, #0
	str	r0, [r7, #4]
	ldr	r3, [r7, #4]
	ldr	r3, [r3, #4]
	adds	r2, r3, #1
	ldr	r3, [r7, #4]
	str	r2, [r3, #4]
	adds	r7, r7, #12
	mov	sp, r7
	@ sp needed
	ldr	r7, [sp], #4
	bx	lr
	.cantunwind
	.fnend
	.size	_ZN2OT15CoverageFormat14Iter4nextEv, .-_ZN2OT15CoverageFormat14Iter4nextEv
	.section	.text._ZN2OT15CoverageFormat14Iter9get_glyphEv,"axG",%progbits,_ZN2OT15CoverageFormat14Iter9get_glyphEv,comdat
	.align	2
	.weak	_ZN2OT15CoverageFormat14Iter9get_glyphEv
	.thumb
	.thumb_func
	.type	_ZN2OT15CoverageFormat14Iter9get_glyphEv, %function
_ZN2OT15CoverageFormat14Iter9get_glyphEv:
	.fnstart
.LFB397:
	@ args = 0, pretend = 0, frame = 8
	@ frame_needed = 1, uses_anonymous_args = 0
	push	{r7, lr}
	.save {r7, lr}
	.pad #8
	sub	sp, sp, #8
	.setfp r7, sp, #0
	add	r7, sp, #0
	str	r0, [r7, #4]
	ldr	r3, [r7, #4]
	ldr	r3, [r3]
	adds	r2, r3, #2
	ldr	r3, [r7, #4]
	ldr	r3, [r3, #4]
	mov	r0, r2
	mov	r1, r3
	bl	_ZNK2OT7ArrayOfINS_7IntTypeItLj2EEES2_EixEj(PLT)
	mov	r3, r0
	mov	r0, r3
	bl	_ZNK2OT7IntTypeItLj2EEcvtEv(PLT)
	mov	r3, r0
	mov	r0, r3
	adds	r7, r7, #8
	mov	sp, r7
	@ sp needed
	pop	{r7, pc}
	.fnend
	.size	_ZN2OT15CoverageFormat14Iter9get_glyphEv, .-_ZN2OT15CoverageFormat14Iter9get_glyphEv
	.section	.text._ZN2OT15CoverageFormat14Iter12get_coverageEv,"axG",%progbits,_ZN2OT15CoverageFormat14Iter12get_coverageEv,comdat
	.align	2
	.weak	_ZN2OT15CoverageFormat14Iter12get_coverageEv
	.thumb
	.thumb_func
	.type	_ZN2OT15CoverageFormat14Iter12get_coverageEv, %function
_ZN2OT15CoverageFormat14Iter12get_coverageEv:
	.fnstart
.LFB398:
	@ args = 0, pretend = 0, frame = 8
	@ frame_needed = 1, uses_anonymous_args = 0
	@ link register save eliminated.
	push	{r7}
	sub	sp, sp, #12
	add	r7, sp, #0
	str	r0, [r7, #4]
	ldr	r3, [r7, #4]
	ldr	r3, [r3, #4]
	uxth	r3, r3
	mov	r0, r3
	adds	r7, r7, #12
	mov	sp, r7
	@ sp needed
	ldr	r7, [sp], #4
	bx	lr
	.cantunwind
	.fnend
	.size	_ZN2OT15CoverageFormat14Iter12get_coverageEv, .-_ZN2OT15CoverageFormat14Iter12get_coverageEv
	.section	.text._ZNK2OT15CoverageFormat212get_coverageEj,"axG",%progbits,_ZNK2OT15CoverageFormat212get_coverageEj,comdat
	.align	2
	.weak	_ZNK2OT15CoverageFormat212get_coverageEj
	.thumb
	.thumb_func
	.type	_ZNK2OT15CoverageFormat212get_coverageEj, %function
_ZNK2OT15CoverageFormat212get_coverageEj:
	.fnstart
.LFB401:
	@ args = 0, pretend = 0, frame = 16
	@ frame_needed = 1, uses_anonymous_args = 0
	push	{r4, r5, r7, lr}
	.save {r4, r5, r7, lr}
	.pad #16
	sub	sp, sp, #16
	.setfp r7, sp, #0
	add	r7, sp, #0
	str	r0, [r7, #4]
	str	r1, [r7]
	ldr	r3, [r7, #4]
	adds	r2, r3, #2
	mov	r3, r7
	mov	r0, r2
	mov	r1, r3
	bl	_ZNK2OT13SortedArrayOfINS_11RangeRecordENS_7IntTypeItLj2EEEE7bsearchIjEEiRKT_(PLT)
	mov	r3, r0
	str	r3, [r7, #12]
	ldr	r3, [r7, #12]
	cmp	r3, #-1
	beq	.L345
	ldr	r3, [r7, #4]
	adds	r2, r3, #2
	ldr	r3, [r7, #12]
	mov	r0, r2
	mov	r1, r3
	bl	_ZNK2OT7ArrayOfINS_11RangeRecordENS_7IntTypeItLj2EEEEixEj(PLT)
	mov	r3, r0
	str	r3, [r7, #8]
	ldr	r3, [r7, #8]
	adds	r3, r3, #4
	mov	r0, r3
	bl	_ZNK2OT7IntTypeItLj2EEcvtEv(PLT)
	mov	r3, r0
	mov	r4, r3
	ldr	r5, [r7]
	ldr	r3, [r7, #8]
	mov	r0, r3
	bl	_ZNK2OT7IntTypeItLj2EEcvtEv(PLT)
	mov	r3, r0
	subs	r3, r5, r3
	add	r3, r3, r4
	b	.L346
.L345:
	mov	r3, #-1
.L346:
	mov	r0, r3
	adds	r7, r7, #16
	mov	sp, r7
	@ sp needed
	pop	{r4, r5, r7, pc}
	.fnend
	.size	_ZNK2OT15CoverageFormat212get_coverageEj, .-_ZNK2OT15CoverageFormat212get_coverageEj
	.section	.text._ZN2OT15CoverageFormat28sanitizeEPNS_21hb_sanitize_context_tE,"axG",%progbits,_ZN2OT15CoverageFormat28sanitizeEPNS_21hb_sanitize_context_tE,comdat
	.align	2
	.weak	_ZN2OT15CoverageFormat28sanitizeEPNS_21hb_sanitize_context_tE
	.thumb
	.thumb_func
	.type	_ZN2OT15CoverageFormat28sanitizeEPNS_21hb_sanitize_context_tE, %function
_ZN2OT15CoverageFormat28sanitizeEPNS_21hb_sanitize_context_tE:
	.fnstart
.LFB403:
	@ args = 0, pretend = 0, frame = 16
	@ frame_needed = 1, uses_anonymous_args = 0
	push	{r4, r7, lr}
	.save {r4, r7, lr}
	.pad #28
	sub	sp, sp, #28
	.setfp r7, sp, #8
	add	r7, sp, #8
	str	r0, [r7, #4]
	str	r1, [r7]
	ldr	r4, [r7]
	ldr	r0, [r7]
	bl	_ZN2OT21hb_sanitize_context_t8get_nameEv(PLT)
	mov	r3, r0
	add	r2, r7, #12
	ldr	r1, .L349
.LPIC48:
	add	r1, pc
	str	r1, [sp]
	ldr	r1, .L349+4
.LPIC49:
	add	r1, pc
	str	r1, [sp, #4]
	mov	r0, r2
	mov	r1, r4
	mov	r2, r3
	ldr	r3, [r7, #4]
	bl	_ZN15hb_auto_trace_tILi0EbEC1EPjPKcPKvS3_S3_z(PLT)
	ldr	r3, [r7, #4]
	adds	r3, r3, #2
	mov	r0, r3
	ldr	r1, [r7]
	bl	_ZN2OT7ArrayOfINS_11RangeRecordENS_7IntTypeItLj2EEEE8sanitizeEPNS_21hb_sanitize_context_tE(PLT)
	mov	r3, r0
	add	r2, r7, #12
	mov	r0, r2
	mov	r1, r3
	movw	r2, #742
	bl	_ZN15hb_auto_trace_tILi0EbE3retEbj(PLT)
	mov	r3, r0
	mov	r0, r3
	adds	r7, r7, #20
	mov	sp, r7
	@ sp needed
	pop	{r4, r7, pc}
.L350:
	.align	2
.L349:
	.word	_ZZN2OT15CoverageFormat28sanitizeEPNS_21hb_sanitize_context_tEE19__PRETTY_FUNCTION__-(.LPIC48+4)
	.word	.LC16-(.LPIC49+4)
	.fnend
	.size	_ZN2OT15CoverageFormat28sanitizeEPNS_21hb_sanitize_context_tE, .-_ZN2OT15CoverageFormat28sanitizeEPNS_21hb_sanitize_context_tE
	.section	.text._ZNK2OT15CoverageFormat219intersects_coverageEPK8hb_set_tj,"axG",%progbits,_ZNK2OT15CoverageFormat219intersects_coverageEPK8hb_set_tj,comdat
	.align	2
	.weak	_ZNK2OT15CoverageFormat219intersects_coverageEPK8hb_set_tj
	.thumb
	.thumb_func
	.type	_ZNK2OT15CoverageFormat219intersects_coverageEPK8hb_set_tj, %function
_ZNK2OT15CoverageFormat219intersects_coverageEPK8hb_set_tj:
	.fnstart
.LFB404:
	@ args = 0, pretend = 0, frame = 32
	@ frame_needed = 1, uses_anonymous_args = 0
	push	{r4, r5, r7, lr}
	.save {r4, r5, r7, lr}
	.pad #32
	sub	sp, sp, #32
	.setfp r7, sp, #0
	add	r7, sp, #0
	str	r0, [r7, #12]
	str	r1, [r7, #8]
	str	r2, [r7, #4]
	ldr	r3, [r7, #12]
	adds	r3, r3, #2
	mov	r0, r3
	bl	_ZNK2OT7IntTypeItLj2EEcvtEv(PLT)
	mov	r3, r0
	str	r3, [r7, #24]
	movs	r3, #0
	str	r3, [r7, #28]
	b	.L352
.L358:
	ldr	r3, [r7, #12]
	adds	r3, r3, #2
	mov	r0, r3
	ldr	r1, [r7, #28]
	bl	_ZNK2OT7ArrayOfINS_11RangeRecordENS_7IntTypeItLj2EEEEixEj(PLT)
	mov	r3, r0
	str	r3, [r7, #20]
	ldr	r3, [r7, #20]
	adds	r3, r3, #4
	mov	r0, r3
	bl	_ZNK2OT7IntTypeItLj2EEcvtEv(PLT)
	mov	r3, r0
	mov	r2, r3
	ldr	r3, [r7, #4]
	cmp	r2, r3
	bhi	.L353
	ldr	r3, [r7, #20]
	adds	r3, r3, #4
	mov	r0, r3
	bl	_ZNK2OT7IntTypeItLj2EEcvtEv(PLT)
	mov	r3, r0
	mov	r4, r3
	ldr	r3, [r7, #20]
	adds	r3, r3, #2
	mov	r0, r3
	bl	_ZNK2OT7IntTypeItLj2EEcvtEv(PLT)
	mov	r3, r0
	mov	r5, r3
	ldr	r3, [r7, #20]
	mov	r0, r3
	bl	_ZNK2OT7IntTypeItLj2EEcvtEv(PLT)
	mov	r3, r0
	subs	r3, r5, r3
	adds	r2, r4, r3
	ldr	r3, [r7, #4]
	cmp	r2, r3
	bls	.L353
	ldr	r0, [r7, #20]
	ldr	r1, [r7, #8]
	bl	_ZNK2OT11RangeRecord10intersectsEPK8hb_set_t(PLT)
	mov	r3, r0
	cmp	r3, #0
	beq	.L353
	movs	r3, #1
	b	.L354
.L353:
	movs	r3, #0
.L354:
	cmp	r3, #0
	beq	.L355
	movs	r3, #1
	b	.L356
.L355:
	ldr	r3, [r7, #20]
	adds	r3, r3, #4
	mov	r0, r3
	bl	_ZNK2OT7IntTypeItLj2EEcvtEv(PLT)
	mov	r3, r0
	mov	r2, r3
	ldr	r3, [r7, #4]
	cmp	r2, r3
	ite	hi
	movhi	r3, #1
	movls	r3, #0
	uxtb	r3, r3
	cmp	r3, #0
	beq	.L357
	movs	r3, #0
	b	.L356
.L357:
	ldr	r3, [r7, #28]
	adds	r3, r3, #1
	str	r3, [r7, #28]
.L352:
	ldr	r2, [r7, #28]
	ldr	r3, [r7, #24]
	cmp	r2, r3
	bcc	.L358
	movs	r3, #0
.L356:
	mov	r0, r3
	adds	r7, r7, #32
	mov	sp, r7
	@ sp needed
	pop	{r4, r5, r7, pc}
	.fnend
	.size	_ZNK2OT15CoverageFormat219intersects_coverageEPK8hb_set_tj, .-_ZNK2OT15CoverageFormat219intersects_coverageEPK8hb_set_tj
	.section	.text._ZN2OT15CoverageFormat24Iter4initERKS0_,"axG",%progbits,_ZN2OT15CoverageFormat24Iter4initERKS0_,comdat
	.align	2
	.weak	_ZN2OT15CoverageFormat24Iter4initERKS0_
	.thumb
	.thumb_func
	.type	_ZN2OT15CoverageFormat24Iter4initERKS0_, %function
_ZN2OT15CoverageFormat24Iter4initERKS0_:
	.fnstart
.LFB406:
	@ args = 0, pretend = 0, frame = 8
	@ frame_needed = 1, uses_anonymous_args = 0
	push	{r7, lr}
	.save {r7, lr}
	.pad #8
	sub	sp, sp, #8
	.setfp r7, sp, #0
	add	r7, sp, #0
	str	r0, [r7, #4]
	str	r1, [r7]
	ldr	r3, [r7, #4]
	ldr	r2, [r7]
	str	r2, [r3]
	ldr	r3, [r7, #4]
	movs	r2, #0
	str	r2, [r3, #12]
	ldr	r3, [r7, #4]
	movs	r2, #0
	str	r2, [r3, #4]
	ldr	r3, [r7, #4]
	ldr	r3, [r3]
	adds	r3, r3, #2
	mov	r0, r3
	bl	_ZNK2OT7IntTypeItLj2EEcvtEv(PLT)
	mov	r3, r0
	cmp	r3, #0
	beq	.L360
	ldr	r3, [r7]
	adds	r3, r3, #2
	mov	r0, r3
	movs	r1, #0
	bl	_ZNK2OT7ArrayOfINS_11RangeRecordENS_7IntTypeItLj2EEEEixEj(PLT)
	mov	r3, r0
	mov	r0, r3
	bl	_ZNK2OT7IntTypeItLj2EEcvtEv(PLT)
	mov	r3, r0
	b	.L361
.L360:
	movs	r3, #0
.L361:
	ldr	r2, [r7, #4]
	str	r3, [r2, #8]
	adds	r7, r7, #8
	mov	sp, r7
	@ sp needed
	pop	{r7, pc}
	.fnend
	.size	_ZN2OT15CoverageFormat24Iter4initERKS0_, .-_ZN2OT15CoverageFormat24Iter4initERKS0_
	.section	.text._ZN2OT15CoverageFormat24Iter4moreEv,"axG",%progbits,_ZN2OT15CoverageFormat24Iter4moreEv,comdat
	.align	2
	.weak	_ZN2OT15CoverageFormat24Iter4moreEv
	.thumb
	.thumb_func
	.type	_ZN2OT15CoverageFormat24Iter4moreEv, %function
_ZN2OT15CoverageFormat24Iter4moreEv:
	.fnstart
.LFB407:
	@ args = 0, pretend = 0, frame = 8
	@ frame_needed = 1, uses_anonymous_args = 0
	push	{r4, r7, lr}
	.save {r4, r7, lr}
	.pad #12
	sub	sp, sp, #12
	.setfp r7, sp, #0
	add	r7, sp, #0
	str	r0, [r7, #4]
	ldr	r3, [r7, #4]
	ldr	r4, [r3, #4]
	ldr	r3, [r7, #4]
	ldr	r3, [r3]
	adds	r3, r3, #2
	mov	r0, r3
	bl	_ZNK2OT7IntTypeItLj2EEcvtEv(PLT)
	mov	r3, r0
	cmp	r4, r3
	ite	cc
	movcc	r3, #1
	movcs	r3, #0
	uxtb	r3, r3
	mov	r0, r3
	adds	r7, r7, #12
	mov	sp, r7
	@ sp needed
	pop	{r4, r7, pc}
	.fnend
	.size	_ZN2OT15CoverageFormat24Iter4moreEv, .-_ZN2OT15CoverageFormat24Iter4moreEv
	.section	.text._ZN2OT15CoverageFormat24Iter4nextEv,"axG",%progbits,_ZN2OT15CoverageFormat24Iter4nextEv,comdat
	.align	2
	.weak	_ZN2OT15CoverageFormat24Iter4nextEv
	.thumb
	.thumb_func
	.type	_ZN2OT15CoverageFormat24Iter4nextEv, %function
_ZN2OT15CoverageFormat24Iter4nextEv:
	.fnstart
.LFB408:
	@ args = 0, pretend = 0, frame = 8
	@ frame_needed = 1, uses_anonymous_args = 0
	push	{r4, r7, lr}
	.save {r4, r7, lr}
	.pad #12
	sub	sp, sp, #12
	.setfp r7, sp, #0
	add	r7, sp, #0
	str	r0, [r7, #4]
	ldr	r3, [r7, #4]
	ldr	r3, [r3, #12]
	adds	r2, r3, #1
	ldr	r3, [r7, #4]
	str	r2, [r3, #12]
	ldr	r3, [r7, #4]
	ldr	r4, [r3, #8]
	ldr	r3, [r7, #4]
	ldr	r3, [r3]
	adds	r2, r3, #2
	ldr	r3, [r7, #4]
	ldr	r3, [r3, #4]
	mov	r0, r2
	mov	r1, r3
	bl	_ZNK2OT7ArrayOfINS_11RangeRecordENS_7IntTypeItLj2EEEEixEj(PLT)
	mov	r3, r0
	adds	r3, r3, #2
	mov	r0, r3
	bl	_ZNK2OT7IntTypeItLj2EEcvtEv(PLT)
	mov	r3, r0
	cmp	r4, r3
	ite	eq
	moveq	r3, #1
	movne	r3, #0
	uxtb	r3, r3
	cmp	r3, #0
	beq	.L365
	ldr	r3, [r7, #4]
	ldr	r3, [r3, #4]
	adds	r2, r3, #1
	ldr	r3, [r7, #4]
	str	r2, [r3, #4]
	ldr	r0, [r7, #4]
	bl	_ZN2OT15CoverageFormat24Iter4moreEv(PLT)
	mov	r3, r0
	cmp	r3, #0
	beq	.L366
	ldr	r3, [r7, #4]
	ldr	r3, [r3]
	adds	r2, r3, #2
	ldr	r3, [r7, #4]
	ldr	r3, [r3, #4]
	mov	r0, r2
	mov	r1, r3
	bl	_ZNK2OT7ArrayOfINS_11RangeRecordENS_7IntTypeItLj2EEEEixEj(PLT)
	mov	r3, r0
	mov	r0, r3
	bl	_ZNK2OT7IntTypeItLj2EEcvtEv(PLT)
	mov	r3, r0
	mov	r2, r3
	ldr	r3, [r7, #4]
	str	r2, [r3, #8]
.L366:
	b	.L364
.L365:
	ldr	r3, [r7, #4]
	ldr	r3, [r3, #8]
	adds	r2, r3, #1
	ldr	r3, [r7, #4]
	str	r2, [r3, #8]
.L364:
	adds	r7, r7, #12
	mov	sp, r7
	@ sp needed
	pop	{r4, r7, pc}
	.fnend
	.size	_ZN2OT15CoverageFormat24Iter4nextEv, .-_ZN2OT15CoverageFormat24Iter4nextEv
	.section	.text._ZN2OT15CoverageFormat24Iter9get_glyphEv,"axG",%progbits,_ZN2OT15CoverageFormat24Iter9get_glyphEv,comdat
	.align	2
	.weak	_ZN2OT15CoverageFormat24Iter9get_glyphEv
	.thumb
	.thumb_func
	.type	_ZN2OT15CoverageFormat24Iter9get_glyphEv, %function
_ZN2OT15CoverageFormat24Iter9get_glyphEv:
	.fnstart
.LFB409:
	@ args = 0, pretend = 0, frame = 8
	@ frame_needed = 1, uses_anonymous_args = 0
	@ link register save eliminated.
	push	{r7}
	sub	sp, sp, #12
	add	r7, sp, #0
	str	r0, [r7, #4]
	ldr	r3, [r7, #4]
	ldr	r3, [r3, #8]
	uxth	r3, r3
	mov	r0, r3
	adds	r7, r7, #12
	mov	sp, r7
	@ sp needed
	ldr	r7, [sp], #4
	bx	lr
	.cantunwind
	.fnend
	.size	_ZN2OT15CoverageFormat24Iter9get_glyphEv, .-_ZN2OT15CoverageFormat24Iter9get_glyphEv
	.section	.text._ZN2OT15CoverageFormat24Iter12get_coverageEv,"axG",%progbits,_ZN2OT15CoverageFormat24Iter12get_coverageEv,comdat
	.align	2
	.weak	_ZN2OT15CoverageFormat24Iter12get_coverageEv
	.thumb
	.thumb_func
	.type	_ZN2OT15CoverageFormat24Iter12get_coverageEv, %function
_ZN2OT15CoverageFormat24Iter12get_coverageEv:
	.fnstart
.LFB410:
	@ args = 0, pretend = 0, frame = 8
	@ frame_needed = 1, uses_anonymous_args = 0
	@ link register save eliminated.
	push	{r7}
	sub	sp, sp, #12
	add	r7, sp, #0
	str	r0, [r7, #4]
	ldr	r3, [r7, #4]
	ldr	r3, [r3, #12]
	uxth	r3, r3
	mov	r0, r3
	adds	r7, r7, #12
	mov	sp, r7
	@ sp needed
	ldr	r7, [sp], #4
	bx	lr
	.cantunwind
	.fnend
	.size	_ZN2OT15CoverageFormat24Iter12get_coverageEv, .-_ZN2OT15CoverageFormat24Iter12get_coverageEv
	.section	.text._ZNK2OT8Coverage12get_coverageEj,"axG",%progbits,_ZNK2OT8Coverage12get_coverageEj,comdat
	.align	2
	.weak	_ZNK2OT8Coverage12get_coverageEj
	.thumb
	.thumb_func
	.type	_ZNK2OT8Coverage12get_coverageEj, %function
_ZNK2OT8Coverage12get_coverageEj:
	.fnstart
.LFB413:
	@ args = 0, pretend = 0, frame = 8
	@ frame_needed = 1, uses_anonymous_args = 0
	push	{r7, lr}
	.save {r7, lr}
	.pad #8
	sub	sp, sp, #8
	.setfp r7, sp, #0
	add	r7, sp, #0
	str	r0, [r7, #4]
	str	r1, [r7]
	ldr	r3, [r7, #4]
	mov	r0, r3
	bl	_ZNK2OT7IntTypeItLj2EEcvtEv(PLT)
	mov	r3, r0
	cmp	r3, #1
	beq	.L374
	cmp	r3, #2
	beq	.L375
	b	.L377
.L374:
	ldr	r3, [r7, #4]
	mov	r0, r3
	ldr	r1, [r7]
	bl	_ZNK2OT15CoverageFormat112get_coverageEj(PLT)
	mov	r3, r0
	b	.L376
.L375:
	ldr	r3, [r7, #4]
	mov	r0, r3
	ldr	r1, [r7]
	bl	_ZNK2OT15CoverageFormat212get_coverageEj(PLT)
	mov	r3, r0
	b	.L376
.L377:
	mov	r3, #-1
.L376:
	mov	r0, r3
	adds	r7, r7, #8
	mov	sp, r7
	@ sp needed
	pop	{r7, pc}
	.fnend
	.size	_ZNK2OT8Coverage12get_coverageEj, .-_ZNK2OT8Coverage12get_coverageEj
	.section	.text._ZN2OT8Coverage8sanitizeEPNS_21hb_sanitize_context_tE,"axG",%progbits,_ZN2OT8Coverage8sanitizeEPNS_21hb_sanitize_context_tE,comdat
	.align	2
	.weak	_ZN2OT8Coverage8sanitizeEPNS_21hb_sanitize_context_tE
	.thumb
	.thumb_func
	.type	_ZN2OT8Coverage8sanitizeEPNS_21hb_sanitize_context_tE, %function
_ZN2OT8Coverage8sanitizeEPNS_21hb_sanitize_context_tE:
	.fnstart
.LFB415:
	@ args = 0, pretend = 0, frame = 16
	@ frame_needed = 1, uses_anonymous_args = 0
	push	{r4, r7, lr}
	.save {r4, r7, lr}
	.pad #28
	sub	sp, sp, #28
	.setfp r7, sp, #8
	add	r7, sp, #8
	str	r0, [r7, #4]
	str	r1, [r7]
	ldr	r4, [r7]
	ldr	r0, [r7]
	bl	_ZN2OT21hb_sanitize_context_t8get_nameEv(PLT)
	mov	r3, r0
	add	r2, r7, #12
	ldr	r1, .L386
.LPIC50:
	add	r1, pc
	str	r1, [sp]
	ldr	r1, .L386+4
.LPIC51:
	add	r1, pc
	str	r1, [sp, #4]
	mov	r0, r2
	mov	r1, r4
	mov	r2, r3
	ldr	r3, [r7, #4]
	bl	_ZN15hb_auto_trace_tILi0EbEC1EPjPKcPKvS3_S3_z(PLT)
	ldr	r3, [r7, #4]
	mov	r0, r3
	ldr	r1, [r7]
	bl	_ZN2OT7IntTypeItLj2EE8sanitizeEPNS_21hb_sanitize_context_tE(PLT)
	mov	r3, r0
	eor	r3, r3, #1
	uxtb	r3, r3
	cmp	r3, #0
	beq	.L379
	add	r3, r7, #12
	mov	r0, r3
	movs	r1, #0
	movw	r2, #837
	bl	_ZN15hb_auto_trace_tILi0EbE3retEbj(PLT)
	mov	r3, r0
	b	.L384
.L379:
	ldr	r3, [r7, #4]
	mov	r0, r3
	bl	_ZNK2OT7IntTypeItLj2EEcvtEv(PLT)
	mov	r3, r0
	cmp	r3, #1
	beq	.L382
	cmp	r3, #2
	beq	.L383
	b	.L385
.L382:
	ldr	r3, [r7, #4]
	mov	r0, r3
	ldr	r1, [r7]
	bl	_ZN2OT15CoverageFormat18sanitizeEPNS_21hb_sanitize_context_tE(PLT)
	mov	r3, r0
	add	r2, r7, #12
	mov	r0, r2
	mov	r1, r3
	movw	r2, #839
	bl	_ZN15hb_auto_trace_tILi0EbE3retEbj(PLT)
	mov	r3, r0
	b	.L384
.L383:
	ldr	r3, [r7, #4]
	mov	r0, r3
	ldr	r1, [r7]
	bl	_ZN2OT15CoverageFormat28sanitizeEPNS_21hb_sanitize_context_tE(PLT)
	mov	r3, r0
	add	r2, r7, #12
	mov	r0, r2
	mov	r1, r3
	mov	r2, #840
	bl	_ZN15hb_auto_trace_tILi0EbE3retEbj(PLT)
	mov	r3, r0
	b	.L384
.L385:
	add	r3, r7, #12
	mov	r0, r3
	movs	r1, #1
	movw	r2, #841
	bl	_ZN15hb_auto_trace_tILi0EbE3retEbj(PLT)
	mov	r3, r0
.L384:
	mov	r0, r3
	adds	r7, r7, #20
	mov	sp, r7
	@ sp needed
	pop	{r4, r7, pc}
.L387:
	.align	2
.L386:
	.word	_ZZN2OT8Coverage8sanitizeEPNS_21hb_sanitize_context_tEE19__PRETTY_FUNCTION__-(.LPIC50+4)
	.word	.LC16-(.LPIC51+4)
	.fnend
	.size	_ZN2OT8Coverage8sanitizeEPNS_21hb_sanitize_context_tE, .-_ZN2OT8Coverage8sanitizeEPNS_21hb_sanitize_context_tE
	.section	.text._ZNK2OT8Coverage10intersectsEPK8hb_set_t,"axG",%progbits,_ZNK2OT8Coverage10intersectsEPK8hb_set_t,comdat
	.align	2
	.weak	_ZNK2OT8Coverage10intersectsEPK8hb_set_t
	.thumb
	.thumb_func
	.type	_ZNK2OT8Coverage10intersectsEPK8hb_set_t, %function
_ZNK2OT8Coverage10intersectsEPK8hb_set_t:
	.fnstart
.LFB416:
	@ args = 0, pretend = 0, frame = 32
	@ frame_needed = 1, uses_anonymous_args = 0
	push	{r7, lr}
	.save {r7, lr}
	.pad #32
	sub	sp, sp, #32
	.setfp r7, sp, #0
	add	r7, sp, #0
	str	r0, [r7, #4]
	str	r1, [r7]
	add	r3, r7, #12
	mov	r0, r3
	bl	_ZN2OT8Coverage4IterC1Ev(PLT)
	add	r3, r7, #12
	mov	r0, r3
	ldr	r1, [r7, #4]
	bl	_ZN2OT8Coverage4Iter4initERKS0_(PLT)
	b	.L389
.L392:
	add	r3, r7, #12
	mov	r0, r3
	bl	_ZN2OT8Coverage4Iter9get_glyphEv(PLT)
	mov	r3, r0
	ldr	r0, [r7]
	mov	r1, r3
	bl	_ZNK8hb_set_t3hasEj(PLT)
	mov	r3, r0
	cmp	r3, #0
	beq	.L390
	movs	r3, #1
	b	.L393
.L390:
	add	r3, r7, #12
	mov	r0, r3
	bl	_ZN2OT8Coverage4Iter4nextEv(PLT)
.L389:
	add	r3, r7, #12
	mov	r0, r3
	bl	_ZN2OT8Coverage4Iter4moreEv(PLT)
	mov	r3, r0
	cmp	r3, #0
	bne	.L392
	movs	r3, #0
.L393:
	mov	r0, r3
	adds	r7, r7, #32
	mov	sp, r7
	@ sp needed
	pop	{r7, pc}
	.fnend
	.size	_ZNK2OT8Coverage10intersectsEPK8hb_set_t, .-_ZNK2OT8Coverage10intersectsEPK8hb_set_t
	.section	.text._ZNK2OT8Coverage19intersects_coverageEPK8hb_set_tj,"axG",%progbits,_ZNK2OT8Coverage19intersects_coverageEPK8hb_set_tj,comdat
	.align	2
	.weak	_ZNK2OT8Coverage19intersects_coverageEPK8hb_set_tj
	.thumb
	.thumb_func
	.type	_ZNK2OT8Coverage19intersects_coverageEPK8hb_set_tj, %function
_ZNK2OT8Coverage19intersects_coverageEPK8hb_set_tj:
	.fnstart
.LFB417:
	@ args = 0, pretend = 0, frame = 16
	@ frame_needed = 1, uses_anonymous_args = 0
	push	{r7, lr}
	.save {r7, lr}
	.pad #16
	sub	sp, sp, #16
	.setfp r7, sp, #0
	add	r7, sp, #0
	str	r0, [r7, #12]
	str	r1, [r7, #8]
	str	r2, [r7, #4]
	ldr	r3, [r7, #12]
	mov	r0, r3
	bl	_ZNK2OT7IntTypeItLj2EEcvtEv(PLT)
	mov	r3, r0
	cmp	r3, #1
	beq	.L396
	cmp	r3, #2
	beq	.L397
	b	.L399
.L396:
	ldr	r3, [r7, #12]
	mov	r0, r3
	ldr	r1, [r7, #8]
	ldr	r2, [r7, #4]
	bl	_ZNK2OT15CoverageFormat119intersects_coverageEPK8hb_set_tj(PLT)
	mov	r3, r0
	b	.L398
.L397:
	ldr	r3, [r7, #12]
	mov	r0, r3
	ldr	r1, [r7, #8]
	ldr	r2, [r7, #4]
	bl	_ZNK2OT15CoverageFormat219intersects_coverageEPK8hb_set_tj(PLT)
	mov	r3, r0
	b	.L398
.L399:
	movs	r3, #0
.L398:
	mov	r0, r3
	adds	r7, r7, #16
	mov	sp, r7
	@ sp needed
	pop	{r7, pc}
	.fnend
	.size	_ZNK2OT8Coverage19intersects_coverageEPK8hb_set_tj, .-_ZNK2OT8Coverage19intersects_coverageEPK8hb_set_tj
	.section	.text._ZN2OT8Coverage4IterC2Ev,"axG",%progbits,_ZN2OT8Coverage4IterC5Ev,comdat
	.align	2
	.weak	_ZN2OT8Coverage4IterC2Ev
	.thumb
	.thumb_func
	.type	_ZN2OT8Coverage4IterC2Ev, %function
_ZN2OT8Coverage4IterC2Ev:
	.fnstart
.LFB420:
	@ args = 0, pretend = 0, frame = 8
	@ frame_needed = 1, uses_anonymous_args = 0
	@ link register save eliminated.
	push	{r7}
	sub	sp, sp, #12
	add	r7, sp, #0
	str	r0, [r7, #4]
	ldr	r3, [r7, #4]
	movs	r2, #0
	str	r2, [r3]
	ldr	r3, [r7, #4]
	mov	r0, r3
	adds	r7, r7, #12
	mov	sp, r7
	@ sp needed
	ldr	r7, [sp], #4
	bx	lr
	.cantunwind
	.fnend
	.size	_ZN2OT8Coverage4IterC2Ev, .-_ZN2OT8Coverage4IterC2Ev
	.weak	_ZN2OT8Coverage4IterC1Ev
	.thumb_set _ZN2OT8Coverage4IterC1Ev,_ZN2OT8Coverage4IterC2Ev
	.section	.text._ZN2OT8Coverage4Iter4initERKS0_,"axG",%progbits,_ZN2OT8Coverage4Iter4initERKS0_,comdat
	.align	2
	.weak	_ZN2OT8Coverage4Iter4initERKS0_
	.thumb
	.thumb_func
	.type	_ZN2OT8Coverage4Iter4initERKS0_, %function
_ZN2OT8Coverage4Iter4initERKS0_:
	.fnstart
.LFB422:
	@ args = 0, pretend = 0, frame = 8
	@ frame_needed = 1, uses_anonymous_args = 0
	push	{r7, lr}
	.save {r7, lr}
	.pad #8
	sub	sp, sp, #8
	.setfp r7, sp, #0
	add	r7, sp, #0
	str	r0, [r7, #4]
	str	r1, [r7]
	ldr	r3, [r7]
	mov	r0, r3
	bl	_ZNK2OT7IntTypeItLj2EEcvtEv(PLT)
	mov	r3, r0
	mov	r2, r3
	ldr	r3, [r7, #4]
	str	r2, [r3]
	ldr	r3, [r7, #4]
	ldr	r3, [r3]
	cmp	r3, #1
	beq	.L405
	cmp	r3, #2
	beq	.L406
	b	.L403
.L405:
	ldr	r3, [r7, #4]
	adds	r2, r3, #4
	ldr	r3, [r7]
	mov	r0, r2
	mov	r1, r3
	bl	_ZN2OT15CoverageFormat14Iter4initERKS0_(PLT)
	b	.L403
.L406:
	ldr	r3, [r7, #4]
	adds	r2, r3, #4
	ldr	r3, [r7]
	mov	r0, r2
	mov	r1, r3
	bl	_ZN2OT15CoverageFormat24Iter4initERKS0_(PLT)
	nop
.L403:
	adds	r7, r7, #8
	mov	sp, r7
	@ sp needed
	pop	{r7, pc}
	.fnend
	.size	_ZN2OT8Coverage4Iter4initERKS0_, .-_ZN2OT8Coverage4Iter4initERKS0_
	.section	.text._ZN2OT8Coverage4Iter4moreEv,"axG",%progbits,_ZN2OT8Coverage4Iter4moreEv,comdat
	.align	2
	.weak	_ZN2OT8Coverage4Iter4moreEv
	.thumb
	.thumb_func
	.type	_ZN2OT8Coverage4Iter4moreEv, %function
_ZN2OT8Coverage4Iter4moreEv:
	.fnstart
.LFB423:
	@ args = 0, pretend = 0, frame = 8
	@ frame_needed = 1, uses_anonymous_args = 0
	push	{r7, lr}
	.save {r7, lr}
	.pad #8
	sub	sp, sp, #8
	.setfp r7, sp, #0
	add	r7, sp, #0
	str	r0, [r7, #4]
	ldr	r3, [r7, #4]
	ldr	r3, [r3]
	cmp	r3, #1
	beq	.L410
	cmp	r3, #2
	beq	.L411
	b	.L413
.L410:
	ldr	r3, [r7, #4]
	adds	r3, r3, #4
	mov	r0, r3
	bl	_ZN2OT15CoverageFormat14Iter4moreEv(PLT)
	mov	r3, r0
	b	.L412
.L411:
	ldr	r3, [r7, #4]
	adds	r3, r3, #4
	mov	r0, r3
	bl	_ZN2OT15CoverageFormat24Iter4moreEv(PLT)
	mov	r3, r0
	b	.L412
.L413:
	movs	r3, #0
.L412:
	mov	r0, r3
	adds	r7, r7, #8
	mov	sp, r7
	@ sp needed
	pop	{r7, pc}
	.fnend
	.size	_ZN2OT8Coverage4Iter4moreEv, .-_ZN2OT8Coverage4Iter4moreEv
	.section	.text._ZN2OT8Coverage4Iter4nextEv,"axG",%progbits,_ZN2OT8Coverage4Iter4nextEv,comdat
	.align	2
	.weak	_ZN2OT8Coverage4Iter4nextEv
	.thumb
	.thumb_func
	.type	_ZN2OT8Coverage4Iter4nextEv, %function
_ZN2OT8Coverage4Iter4nextEv:
	.fnstart
.LFB424:
	@ args = 0, pretend = 0, frame = 8
	@ frame_needed = 1, uses_anonymous_args = 0
	push	{r7, lr}
	.save {r7, lr}
	.pad #8
	sub	sp, sp, #8
	.setfp r7, sp, #0
	add	r7, sp, #0
	str	r0, [r7, #4]
	ldr	r3, [r7, #4]
	ldr	r3, [r3]
	cmp	r3, #1
	beq	.L416
	cmp	r3, #2
	beq	.L417
	b	.L414
.L416:
	ldr	r3, [r7, #4]
	adds	r3, r3, #4
	mov	r0, r3
	bl	_ZN2OT15CoverageFormat14Iter4nextEv(PLT)
	b	.L414
.L417:
	ldr	r3, [r7, #4]
	adds	r3, r3, #4
	mov	r0, r3
	bl	_ZN2OT15CoverageFormat24Iter4nextEv(PLT)
	nop
.L414:
	adds	r7, r7, #8
	mov	sp, r7
	@ sp needed
	pop	{r7, pc}
	.fnend
	.size	_ZN2OT8Coverage4Iter4nextEv, .-_ZN2OT8Coverage4Iter4nextEv
	.section	.text._ZN2OT8Coverage4Iter9get_glyphEv,"axG",%progbits,_ZN2OT8Coverage4Iter9get_glyphEv,comdat
	.align	2
	.weak	_ZN2OT8Coverage4Iter9get_glyphEv
	.thumb
	.thumb_func
	.type	_ZN2OT8Coverage4Iter9get_glyphEv, %function
_ZN2OT8Coverage4Iter9get_glyphEv:
	.fnstart
.LFB425:
	@ args = 0, pretend = 0, frame = 8
	@ frame_needed = 1, uses_anonymous_args = 0
	push	{r7, lr}
	.save {r7, lr}
	.pad #8
	sub	sp, sp, #8
	.setfp r7, sp, #0
	add	r7, sp, #0
	str	r0, [r7, #4]
	ldr	r3, [r7, #4]
	ldr	r3, [r3]
	cmp	r3, #1
	beq	.L421
	cmp	r3, #2
	beq	.L422
	b	.L424
.L421:
	ldr	r3, [r7, #4]
	adds	r3, r3, #4
	mov	r0, r3
	bl	_ZN2OT15CoverageFormat14Iter9get_glyphEv(PLT)
	mov	r3, r0
	b	.L423
.L422:
	ldr	r3, [r7, #4]
	adds	r3, r3, #4
	mov	r0, r3
	bl	_ZN2OT15CoverageFormat24Iter9get_glyphEv(PLT)
	mov	r3, r0
	b	.L423
.L424:
	movs	r3, #0
.L423:
	mov	r0, r3
	adds	r7, r7, #8
	mov	sp, r7
	@ sp needed
	pop	{r7, pc}
	.fnend
	.size	_ZN2OT8Coverage4Iter9get_glyphEv, .-_ZN2OT8Coverage4Iter9get_glyphEv
	.section	.text._ZN2OT8Coverage4Iter12get_coverageEv,"axG",%progbits,_ZN2OT8Coverage4Iter12get_coverageEv,comdat
	.align	2
	.weak	_ZN2OT8Coverage4Iter12get_coverageEv
	.thumb
	.thumb_func
	.type	_ZN2OT8Coverage4Iter12get_coverageEv, %function
_ZN2OT8Coverage4Iter12get_coverageEv:
	.fnstart
.LFB426:
	@ args = 0, pretend = 0, frame = 8
	@ frame_needed = 1, uses_anonymous_args = 0
	push	{r7, lr}
	sub	sp, sp, #8
	add	r7, sp, #0
	str	r0, [r7, #4]
	ldr	r3, [r7, #4]
	ldr	r3, [r3]
	cmp	r3, #1
	beq	.L427
	cmp	r3, #2
	beq	.L428
	b	.L430
.L427:
	ldr	r3, [r7, #4]
	adds	r3, r3, #4
	mov	r0, r3
	bl	_ZN2OT15CoverageFormat14Iter12get_coverageEv(PLT)
	mov	r3, r0
	b	.L429
.L428:
	ldr	r3, [r7, #4]
	adds	r3, r3, #4
	mov	r0, r3
	bl	_ZN2OT15CoverageFormat24Iter12get_coverageEv(PLT)
	mov	r3, r0
	b	.L429
.L430:
	movw	r3, #65535
.L429:
	mov	r0, r3
	adds	r7, r7, #8
	mov	sp, r7
	@ sp needed
	pop	{r7, pc}
	.cantunwind
	.fnend
	.size	_ZN2OT8Coverage4Iter12get_coverageEv, .-_ZN2OT8Coverage4Iter12get_coverageEv
	.section	.text._ZNK2OT15ClassDefFormat19get_classEj,"axG",%progbits,_ZNK2OT15ClassDefFormat19get_classEj,comdat
	.align	2
	.weak	_ZNK2OT15ClassDefFormat19get_classEj
	.thumb
	.thumb_func
	.type	_ZNK2OT15ClassDefFormat19get_classEj, %function
_ZNK2OT15ClassDefFormat19get_classEj:
	.fnstart
.LFB428:
	@ args = 0, pretend = 0, frame = 8
	@ frame_needed = 1, uses_anonymous_args = 0
	push	{r4, r7, lr}
	.save {r4, r7, lr}
	.pad #12
	sub	sp, sp, #12
	.setfp r7, sp, #0
	add	r7, sp, #0
	str	r0, [r7, #4]
	str	r1, [r7]
	ldr	r3, [r7, #4]
	adds	r3, r3, #2
	mov	r0, r3
	bl	_ZNK2OT7IntTypeItLj2EEcvtEv(PLT)
	mov	r3, r0
	ldr	r2, [r7]
	subs	r4, r2, r3
	ldr	r3, [r7, #4]
	adds	r3, r3, #4
	mov	r0, r3
	bl	_ZNK2OT7IntTypeItLj2EEcvtEv(PLT)
	mov	r3, r0
	cmp	r4, r3
	ite	cc
	movcc	r3, #1
	movcs	r3, #0
	uxtb	r3, r3
	cmp	r3, #0
	beq	.L432
	ldr	r3, [r7, #4]
	adds	r4, r3, #4
	ldr	r3, [r7, #4]
	adds	r3, r3, #2
	mov	r0, r3
	bl	_ZNK2OT7IntTypeItLj2EEcvtEv(PLT)
	mov	r3, r0
	ldr	r2, [r7]
	subs	r3, r2, r3
	mov	r0, r4
	mov	r1, r3
	bl	_ZNK2OT7ArrayOfINS_7IntTypeItLj2EEES2_EixEj(PLT)
	mov	r3, r0
	mov	r0, r3
	bl	_ZNK2OT7IntTypeItLj2EEcvtEv(PLT)
	mov	r3, r0
	b	.L433
.L432:
	movs	r3, #0
.L433:
	mov	r0, r3
	adds	r7, r7, #12
	mov	sp, r7
	@ sp needed
	pop	{r4, r7, pc}
	.fnend
	.size	_ZNK2OT15ClassDefFormat19get_classEj, .-_ZNK2OT15ClassDefFormat19get_classEj
	.section	.text._ZN2OT15ClassDefFormat18sanitizeEPNS_21hb_sanitize_context_tE,"axG",%progbits,_ZN2OT15ClassDefFormat18sanitizeEPNS_21hb_sanitize_context_tE,comdat
	.align	2
	.weak	_ZN2OT15ClassDefFormat18sanitizeEPNS_21hb_sanitize_context_tE
	.thumb
	.thumb_func
	.type	_ZN2OT15ClassDefFormat18sanitizeEPNS_21hb_sanitize_context_tE, %function
_ZN2OT15ClassDefFormat18sanitizeEPNS_21hb_sanitize_context_tE:
	.fnstart
.LFB429:
	@ args = 0, pretend = 0, frame = 16
	@ frame_needed = 1, uses_anonymous_args = 0
	push	{r4, r7, lr}
	.save {r4, r7, lr}
	.pad #28
	sub	sp, sp, #28
	.setfp r7, sp, #8
	add	r7, sp, #8
	str	r0, [r7, #4]
	str	r1, [r7]
	ldr	r4, [r7]
	ldr	r0, [r7]
	bl	_ZN2OT21hb_sanitize_context_t8get_nameEv(PLT)
	mov	r3, r0
	add	r2, r7, #12
	ldr	r1, .L438
.LPIC52:
	add	r1, pc
	str	r1, [sp]
	ldr	r1, .L438+4
.LPIC53:
	add	r1, pc
	str	r1, [sp, #4]
	mov	r0, r2
	mov	r1, r4
	mov	r2, r3
	ldr	r3, [r7, #4]
	bl	_ZN15hb_auto_trace_tILi0EbEC1EPjPKcPKvS3_S3_z(PLT)
	ldr	r0, [r7]
	ldr	r1, [r7, #4]
	bl	_ZNK2OT21hb_sanitize_context_t12check_structINS_15ClassDefFormat1EEEbPKT_(PLT)
	mov	r3, r0
	cmp	r3, #0
	beq	.L435
	ldr	r3, [r7, #4]
	adds	r3, r3, #4
	mov	r0, r3
	ldr	r1, [r7]
	bl	_ZN2OT7ArrayOfINS_7IntTypeItLj2EEES2_E8sanitizeEPNS_21hb_sanitize_context_tE(PLT)
	mov	r3, r0
	cmp	r3, #0
	beq	.L435
	movs	r3, #1
	b	.L436
.L435:
	movs	r3, #0
.L436:
	add	r2, r7, #12
	mov	r0, r2
	mov	r1, r3
	mov	r2, #948
	bl	_ZN15hb_auto_trace_tILi0EbE3retEbj(PLT)
	mov	r3, r0
	mov	r0, r3
	adds	r7, r7, #20
	mov	sp, r7
	@ sp needed
	pop	{r4, r7, pc}
.L439:
	.align	2
.L438:
	.word	_ZZN2OT15ClassDefFormat18sanitizeEPNS_21hb_sanitize_context_tEE19__PRETTY_FUNCTION__-(.LPIC52+4)
	.word	.LC16-(.LPIC53+4)
	.fnend
	.size	_ZN2OT15ClassDefFormat18sanitizeEPNS_21hb_sanitize_context_tE, .-_ZN2OT15ClassDefFormat18sanitizeEPNS_21hb_sanitize_context_tE
	.section	.text._ZNK2OT15ClassDefFormat116intersects_classEPK8hb_set_tj,"axG",%progbits,_ZNK2OT15ClassDefFormat116intersects_classEPK8hb_set_tj,comdat
	.align	2
	.weak	_ZNK2OT15ClassDefFormat116intersects_classEPK8hb_set_tj
	.thumb
	.thumb_func
	.type	_ZNK2OT15ClassDefFormat116intersects_classEPK8hb_set_tj, %function
_ZNK2OT15ClassDefFormat116intersects_classEPK8hb_set_tj:
	.fnstart
.LFB431:
	@ args = 0, pretend = 0, frame = 32
	@ frame_needed = 1, uses_anonymous_args = 0
	push	{r7, lr}
	.save {r7, lr}
	.pad #32
	sub	sp, sp, #32
	.setfp r7, sp, #0
	add	r7, sp, #0
	str	r0, [r7, #12]
	str	r1, [r7, #8]
	str	r2, [r7, #4]
	ldr	r3, [r7, #12]
	adds	r3, r3, #4
	mov	r0, r3
	bl	_ZNK2OT7IntTypeItLj2EEcvtEv(PLT)
	mov	r3, r0
	str	r3, [r7, #24]
	ldr	r3, [r7, #4]
	cmp	r3, #0
	bne	.L441
	mov	r3, #-1
	str	r3, [r7, #20]
	add	r3, r7, #20
	ldr	r0, [r7, #8]
	mov	r1, r3
	bl	hb_set_next(PLT)
	mov	r3, r0
	cmp	r3, #0
	ite	eq
	moveq	r3, #1
	movne	r3, #0
	uxtb	r3, r3
	cmp	r3, #0
	beq	.L442
	movs	r3, #0
	b	.L446
.L442:
	ldr	r3, [r7, #12]
	adds	r3, r3, #2
	mov	r0, r3
	bl	_ZNK2OT7IntTypeItLj2EEcvtEv(PLT)
	mov	r3, r0
	mov	r2, r3
	ldr	r3, [r7, #20]
	cmp	r2, r3
	ite	hi
	movhi	r3, #1
	movls	r3, #0
	uxtb	r3, r3
	cmp	r3, #0
	beq	.L444
	movs	r3, #1
	b	.L446
.L444:
	ldr	r3, [r7, #12]
	adds	r3, r3, #2
	mov	r0, r3
	bl	_ZNK2OT7IntTypeItLj2EEcvtEv(PLT)
	mov	r3, r0
	mov	r2, r3
	ldr	r3, [r7, #24]
	add	r3, r3, r2
	subs	r3, r3, #1
	str	r3, [r7, #20]
	add	r3, r7, #20
	ldr	r0, [r7, #8]
	mov	r1, r3
	bl	hb_set_next(PLT)
	mov	r3, r0
	cmp	r3, #0
	ite	ne
	movne	r3, #1
	moveq	r3, #0
	uxtb	r3, r3
	cmp	r3, #0
	beq	.L445
	movs	r3, #1
	b	.L446
.L445:
.L441:
	movs	r3, #0
	str	r3, [r7, #28]
	b	.L447
.L451:
	ldr	r3, [r7, #12]
	adds	r3, r3, #4
	mov	r0, r3
	ldr	r1, [r7, #28]
	bl	_ZNK2OT7ArrayOfINS_7IntTypeItLj2EEES2_EixEj(PLT)
	mov	r3, r0
	mov	r0, r3
	bl	_ZNK2OT7IntTypeItLj2EEcvtEv(PLT)
	mov	r3, r0
	mov	r2, r3
	ldr	r3, [r7, #4]
	cmp	r2, r3
	bne	.L448
	ldr	r3, [r7, #12]
	adds	r3, r3, #2
	mov	r0, r3
	bl	_ZNK2OT7IntTypeItLj2EEcvtEv(PLT)
	mov	r3, r0
	mov	r2, r3
	ldr	r3, [r7, #28]
	add	r3, r3, r2
	ldr	r0, [r7, #8]
	mov	r1, r3
	bl	_ZNK8hb_set_t3hasEj(PLT)
	mov	r3, r0
	cmp	r3, #0
	beq	.L448
	movs	r3, #1
	b	.L449
.L448:
	movs	r3, #0
.L449:
	cmp	r3, #0
	beq	.L450
	movs	r3, #1
	b	.L446
.L450:
	ldr	r3, [r7, #28]
	adds	r3, r3, #1
	str	r3, [r7, #28]
.L447:
	ldr	r2, [r7, #28]
	ldr	r3, [r7, #24]
	cmp	r2, r3
	bcc	.L451
	movs	r3, #0
.L446:
	mov	r0, r3
	adds	r7, r7, #32
	mov	sp, r7
	@ sp needed
	pop	{r7, pc}
	.fnend
	.size	_ZNK2OT15ClassDefFormat116intersects_classEPK8hb_set_tj, .-_ZNK2OT15ClassDefFormat116intersects_classEPK8hb_set_tj
	.section	.text._ZNK2OT15ClassDefFormat29get_classEj,"axG",%progbits,_ZNK2OT15ClassDefFormat29get_classEj,comdat
	.align	2
	.weak	_ZNK2OT15ClassDefFormat29get_classEj
	.thumb
	.thumb_func
	.type	_ZNK2OT15ClassDefFormat29get_classEj, %function
_ZNK2OT15ClassDefFormat29get_classEj:
	.fnstart
.LFB434:
	@ args = 0, pretend = 0, frame = 16
	@ frame_needed = 1, uses_anonymous_args = 0
	push	{r7, lr}
	.save {r7, lr}
	.pad #16
	sub	sp, sp, #16
	.setfp r7, sp, #0
	add	r7, sp, #0
	str	r0, [r7, #4]
	str	r1, [r7]
	ldr	r3, [r7, #4]
	adds	r2, r3, #2
	mov	r3, r7
	mov	r0, r2
	mov	r1, r3
	bl	_ZNK2OT13SortedArrayOfINS_11RangeRecordENS_7IntTypeItLj2EEEE7bsearchIjEEiRKT_(PLT)
	mov	r3, r0
	str	r3, [r7, #12]
	ldr	r3, [r7, #12]
	cmp	r3, #-1
	beq	.L453
	ldr	r3, [r7, #4]
	adds	r2, r3, #2
	ldr	r3, [r7, #12]
	mov	r0, r2
	mov	r1, r3
	bl	_ZNK2OT7ArrayOfINS_11RangeRecordENS_7IntTypeItLj2EEEEixEj(PLT)
	mov	r3, r0
	adds	r3, r3, #4
	mov	r0, r3
	bl	_ZNK2OT7IntTypeItLj2EEcvtEv(PLT)
	mov	r3, r0
	b	.L454
.L453:
	movs	r3, #0
.L454:
	mov	r0, r3
	adds	r7, r7, #16
	mov	sp, r7
	@ sp needed
	pop	{r7, pc}
	.fnend
	.size	_ZNK2OT15ClassDefFormat29get_classEj, .-_ZNK2OT15ClassDefFormat29get_classEj
	.section	.text._ZN2OT15ClassDefFormat28sanitizeEPNS_21hb_sanitize_context_tE,"axG",%progbits,_ZN2OT15ClassDefFormat28sanitizeEPNS_21hb_sanitize_context_tE,comdat
	.align	2
	.weak	_ZN2OT15ClassDefFormat28sanitizeEPNS_21hb_sanitize_context_tE
	.thumb
	.thumb_func
	.type	_ZN2OT15ClassDefFormat28sanitizeEPNS_21hb_sanitize_context_tE, %function
_ZN2OT15ClassDefFormat28sanitizeEPNS_21hb_sanitize_context_tE:
	.fnstart
.LFB435:
	@ args = 0, pretend = 0, frame = 16
	@ frame_needed = 1, uses_anonymous_args = 0
	push	{r4, r7, lr}
	.save {r4, r7, lr}
	.pad #28
	sub	sp, sp, #28
	.setfp r7, sp, #8
	add	r7, sp, #8
	str	r0, [r7, #4]
	str	r1, [r7]
	ldr	r4, [r7]
	ldr	r0, [r7]
	bl	_ZN2OT21hb_sanitize_context_t8get_nameEv(PLT)
	mov	r3, r0
	add	r2, r7, #12
	ldr	r1, .L457
.LPIC54:
	add	r1, pc
	str	r1, [sp]
	ldr	r1, .L457+4
.LPIC55:
	add	r1, pc
	str	r1, [sp, #4]
	mov	r0, r2
	mov	r1, r4
	mov	r2, r3
	ldr	r3, [r7, #4]
	bl	_ZN15hb_auto_trace_tILi0EbEC1EPjPKcPKvS3_S3_z(PLT)
	ldr	r3, [r7, #4]
	adds	r3, r3, #2
	mov	r0, r3
	ldr	r1, [r7]
	bl	_ZN2OT7ArrayOfINS_11RangeRecordENS_7IntTypeItLj2EEEE8sanitizeEPNS_21hb_sanitize_context_tE(PLT)
	mov	r3, r0
	add	r2, r7, #12
	mov	r0, r2
	mov	r1, r3
	mov	r2, #1004
	bl	_ZN15hb_auto_trace_tILi0EbE3retEbj(PLT)
	mov	r3, r0
	mov	r0, r3
	adds	r7, r7, #20
	mov	sp, r7
	@ sp needed
	pop	{r4, r7, pc}
.L458:
	.align	2
.L457:
	.word	_ZZN2OT15ClassDefFormat28sanitizeEPNS_21hb_sanitize_context_tEE19__PRETTY_FUNCTION__-(.LPIC54+4)
	.word	.LC16-(.LPIC55+4)
	.fnend
	.size	_ZN2OT15ClassDefFormat28sanitizeEPNS_21hb_sanitize_context_tE, .-_ZN2OT15ClassDefFormat28sanitizeEPNS_21hb_sanitize_context_tE
	.section	.text._ZNK2OT15ClassDefFormat216intersects_classEPK8hb_set_tj,"axG",%progbits,_ZNK2OT15ClassDefFormat216intersects_classEPK8hb_set_tj,comdat
	.align	2
	.weak	_ZNK2OT15ClassDefFormat216intersects_classEPK8hb_set_tj
	.thumb
	.thumb_func
	.type	_ZNK2OT15ClassDefFormat216intersects_classEPK8hb_set_tj, %function
_ZNK2OT15ClassDefFormat216intersects_classEPK8hb_set_tj:
	.fnstart
.LFB437:
	@ args = 0, pretend = 0, frame = 32
	@ frame_needed = 1, uses_anonymous_args = 0
	push	{r7, lr}
	.save {r7, lr}
	.pad #32
	sub	sp, sp, #32
	.setfp r7, sp, #0
	add	r7, sp, #0
	str	r0, [r7, #12]
	str	r1, [r7, #8]
	str	r2, [r7, #4]
	ldr	r3, [r7, #12]
	adds	r3, r3, #2
	mov	r0, r3
	bl	_ZNK2OT7IntTypeItLj2EEcvtEv(PLT)
	mov	r3, r0
	str	r3, [r7, #20]
	ldr	r3, [r7, #4]
	cmp	r3, #0
	bne	.L460
	mov	r3, #-1
	str	r3, [r7, #16]
	movs	r3, #0
	str	r3, [r7, #28]
	b	.L461
.L466:
	add	r3, r7, #16
	ldr	r0, [r7, #8]
	mov	r1, r3
	bl	hb_set_next(PLT)
	mov	r3, r0
	cmp	r3, #0
	ite	eq
	moveq	r3, #1
	movne	r3, #0
	uxtb	r3, r3
	cmp	r3, #0
	beq	.L462
	b	.L463
.L462:
	ldr	r3, [r7, #12]
	adds	r3, r3, #2
	mov	r0, r3
	ldr	r1, [r7, #28]
	bl	_ZNK2OT7ArrayOfINS_11RangeRecordENS_7IntTypeItLj2EEEEixEj(PLT)
	mov	r3, r0
	mov	r0, r3
	bl	_ZNK2OT7IntTypeItLj2EEcvtEv(PLT)
	mov	r3, r0
	mov	r2, r3
	ldr	r3, [r7, #16]
	cmp	r2, r3
	ite	hi
	movhi	r3, #1
	movls	r3, #0
	uxtb	r3, r3
	cmp	r3, #0
	beq	.L464
	movs	r3, #1
	b	.L470
.L464:
	ldr	r3, [r7, #12]
	adds	r3, r3, #2
	mov	r0, r3
	ldr	r1, [r7, #28]
	bl	_ZNK2OT7ArrayOfINS_11RangeRecordENS_7IntTypeItLj2EEEEixEj(PLT)
	mov	r3, r0
	adds	r3, r3, #2
	mov	r0, r3
	bl	_ZNK2OT7IntTypeItLj2EEcvtEv(PLT)
	mov	r3, r0
	str	r3, [r7, #16]
	ldr	r3, [r7, #28]
	adds	r3, r3, #1
	str	r3, [r7, #28]
.L461:
	ldr	r2, [r7, #28]
	ldr	r3, [r7, #20]
	cmp	r2, r3
	bcc	.L466
.L463:
	ldr	r3, [r7, #16]
	cmp	r3, #-1
	beq	.L467
	add	r3, r7, #16
	ldr	r0, [r7, #8]
	mov	r1, r3
	bl	hb_set_next(PLT)
	mov	r3, r0
	cmp	r3, #0
	beq	.L467
	movs	r3, #1
	b	.L468
.L467:
	movs	r3, #0
.L468:
	cmp	r3, #0
	beq	.L469
	movs	r3, #1
	b	.L470
.L469:
.L460:
	movs	r3, #0
	str	r3, [r7, #24]
	b	.L471
.L475:
	ldr	r3, [r7, #12]
	adds	r3, r3, #2
	mov	r0, r3
	ldr	r1, [r7, #24]
	bl	_ZNK2OT7ArrayOfINS_11RangeRecordENS_7IntTypeItLj2EEEEixEj(PLT)
	mov	r3, r0
	adds	r3, r3, #4
	mov	r0, r3
	bl	_ZNK2OT7IntTypeItLj2EEcvtEv(PLT)
	mov	r3, r0
	mov	r2, r3
	ldr	r3, [r7, #4]
	cmp	r2, r3
	bne	.L472
	ldr	r3, [r7, #12]
	adds	r3, r3, #2
	mov	r0, r3
	ldr	r1, [r7, #24]
	bl	_ZNK2OT7ArrayOfINS_11RangeRecordENS_7IntTypeItLj2EEEEixEj(PLT)
	mov	r3, r0
	mov	r0, r3
	ldr	r1, [r7, #8]
	bl	_ZNK2OT11RangeRecord10intersectsEPK8hb_set_t(PLT)
	mov	r3, r0
	cmp	r3, #0
	beq	.L472
	movs	r3, #1
	b	.L473
.L472:
	movs	r3, #0
.L473:
	cmp	r3, #0
	beq	.L474
	movs	r3, #1
	b	.L470
.L474:
	ldr	r3, [r7, #24]
	adds	r3, r3, #1
	str	r3, [r7, #24]
.L471:
	ldr	r2, [r7, #24]
	ldr	r3, [r7, #20]
	cmp	r2, r3
	bcc	.L475
	movs	r3, #0
.L470:
	mov	r0, r3
	adds	r7, r7, #32
	mov	sp, r7
	@ sp needed
	pop	{r7, pc}
	.fnend
	.size	_ZNK2OT15ClassDefFormat216intersects_classEPK8hb_set_tj, .-_ZNK2OT15ClassDefFormat216intersects_classEPK8hb_set_tj
	.section	.text._ZNK2OT8ClassDef9get_classEj,"axG",%progbits,_ZNK2OT8ClassDef9get_classEj,comdat
	.align	2
	.weak	_ZNK2OT8ClassDef9get_classEj
	.thumb
	.thumb_func
	.type	_ZNK2OT8ClassDef9get_classEj, %function
_ZNK2OT8ClassDef9get_classEj:
	.fnstart
.LFB440:
	@ args = 0, pretend = 0, frame = 8
	@ frame_needed = 1, uses_anonymous_args = 0
	push	{r7, lr}
	.save {r7, lr}
	.pad #8
	sub	sp, sp, #8
	.setfp r7, sp, #0
	add	r7, sp, #0
	str	r0, [r7, #4]
	str	r1, [r7]
	ldr	r3, [r7, #4]
	mov	r0, r3
	bl	_ZNK2OT7IntTypeItLj2EEcvtEv(PLT)
	mov	r3, r0
	cmp	r3, #1
	beq	.L478
	cmp	r3, #2
	beq	.L479
	b	.L481
.L478:
	ldr	r3, [r7, #4]
	mov	r0, r3
	ldr	r1, [r7]
	bl	_ZNK2OT15ClassDefFormat19get_classEj(PLT)
	mov	r3, r0
	b	.L480
.L479:
	ldr	r3, [r7, #4]
	mov	r0, r3
	ldr	r1, [r7]
	bl	_ZNK2OT15ClassDefFormat29get_classEj(PLT)
	mov	r3, r0
	b	.L480
.L481:
	movs	r3, #0
.L480:
	mov	r0, r3
	adds	r7, r7, #8
	mov	sp, r7
	@ sp needed
	pop	{r7, pc}
	.fnend
	.size	_ZNK2OT8ClassDef9get_classEj, .-_ZNK2OT8ClassDef9get_classEj
	.section	.text._ZN2OT8ClassDef8sanitizeEPNS_21hb_sanitize_context_tE,"axG",%progbits,_ZN2OT8ClassDef8sanitizeEPNS_21hb_sanitize_context_tE,comdat
	.align	2
	.weak	_ZN2OT8ClassDef8sanitizeEPNS_21hb_sanitize_context_tE
	.thumb
	.thumb_func
	.type	_ZN2OT8ClassDef8sanitizeEPNS_21hb_sanitize_context_tE, %function
_ZN2OT8ClassDef8sanitizeEPNS_21hb_sanitize_context_tE:
	.fnstart
.LFB441:
	@ args = 0, pretend = 0, frame = 16
	@ frame_needed = 1, uses_anonymous_args = 0
	push	{r4, r7, lr}
	.save {r4, r7, lr}
	.pad #28
	sub	sp, sp, #28
	.setfp r7, sp, #8
	add	r7, sp, #8
	str	r0, [r7, #4]
	str	r1, [r7]
	ldr	r4, [r7]
	ldr	r0, [r7]
	bl	_ZN2OT21hb_sanitize_context_t8get_nameEv(PLT)
	mov	r3, r0
	add	r2, r7, #12
	ldr	r1, .L490
.LPIC56:
	add	r1, pc
	str	r1, [sp]
	ldr	r1, .L490+4
.LPIC57:
	add	r1, pc
	str	r1, [sp, #4]
	mov	r0, r2
	mov	r1, r4
	mov	r2, r3
	ldr	r3, [r7, #4]
	bl	_ZN15hb_auto_trace_tILi0EbEC1EPjPKcPKvS3_S3_z(PLT)
	ldr	r3, [r7, #4]
	mov	r0, r3
	ldr	r1, [r7]
	bl	_ZN2OT7IntTypeItLj2EE8sanitizeEPNS_21hb_sanitize_context_tE(PLT)
	mov	r3, r0
	eor	r3, r3, #1
	uxtb	r3, r3
	cmp	r3, #0
	beq	.L483
	add	r3, r7, #12
	mov	r0, r3
	movs	r1, #0
	movw	r2, #1061
	bl	_ZN15hb_auto_trace_tILi0EbE3retEbj(PLT)
	mov	r3, r0
	b	.L488
.L483:
	ldr	r3, [r7, #4]
	mov	r0, r3
	bl	_ZNK2OT7IntTypeItLj2EEcvtEv(PLT)
	mov	r3, r0
	cmp	r3, #1
	beq	.L486
	cmp	r3, #2
	beq	.L487
	b	.L489
.L486:
	ldr	r3, [r7, #4]
	mov	r0, r3
	ldr	r1, [r7]
	bl	_ZN2OT15ClassDefFormat18sanitizeEPNS_21hb_sanitize_context_tE(PLT)
	mov	r3, r0
	add	r2, r7, #12
	mov	r0, r2
	mov	r1, r3
	movw	r2, #1063
	bl	_ZN15hb_auto_trace_tILi0EbE3retEbj(PLT)
	mov	r3, r0
	b	.L488
.L487:
	ldr	r3, [r7, #4]
	mov	r0, r3
	ldr	r1, [r7]
	bl	_ZN2OT15ClassDefFormat28sanitizeEPNS_21hb_sanitize_context_tE(PLT)
	mov	r3, r0
	add	r2, r7, #12
	mov	r0, r2
	mov	r1, r3
	mov	r2, #1064
	bl	_ZN15hb_auto_trace_tILi0EbE3retEbj(PLT)
	mov	r3, r0
	b	.L488
.L489:
	add	r3, r7, #12
	mov	r0, r3
	movs	r1, #1
	movw	r2, #1065
	bl	_ZN15hb_auto_trace_tILi0EbE3retEbj(PLT)
	mov	r3, r0
.L488:
	mov	r0, r3
	adds	r7, r7, #20
	mov	sp, r7
	@ sp needed
	pop	{r4, r7, pc}
.L491:
	.align	2
.L490:
	.word	_ZZN2OT8ClassDef8sanitizeEPNS_21hb_sanitize_context_tEE19__PRETTY_FUNCTION__-(.LPIC56+4)
	.word	.LC16-(.LPIC57+4)
	.fnend
	.size	_ZN2OT8ClassDef8sanitizeEPNS_21hb_sanitize_context_tE, .-_ZN2OT8ClassDef8sanitizeEPNS_21hb_sanitize_context_tE
	.section	.text._ZNK2OT8ClassDef9add_classEP8hb_set_tj,"axG",%progbits,_ZNK2OT8ClassDef9add_classEP8hb_set_tj,comdat
	.align	2
	.weak	_ZNK2OT8ClassDef9add_classEP8hb_set_tj
	.thumb
	.thumb_func
	.type	_ZNK2OT8ClassDef9add_classEP8hb_set_tj, %function
_ZNK2OT8ClassDef9add_classEP8hb_set_tj:
	.fnstart
.LFB442:
	@ args = 0, pretend = 0, frame = 16
	@ frame_needed = 1, uses_anonymous_args = 0
	push	{r7, lr}
	.save {r7, lr}
	.pad #16
	sub	sp, sp, #16
	.setfp r7, sp, #0
	add	r7, sp, #0
	str	r0, [r7, #12]
	str	r1, [r7, #8]
	str	r2, [r7, #4]
	ldr	r3, [r7, #12]
	mov	r0, r3
	bl	_ZNK2OT7IntTypeItLj2EEcvtEv(PLT)
	mov	r3, r0
	cmp	r3, #1
	beq	.L494
	cmp	r3, #2
	beq	.L495
	b	.L492
.L494:
	ldr	r3, [r7, #12]
	mov	r0, r3
	ldr	r1, [r7, #8]
	ldr	r2, [r7, #4]
	bl	_ZNK2OT15ClassDefFormat19add_classI8hb_set_tEEvPT_j(PLT)
	b	.L492
.L495:
	ldr	r3, [r7, #12]
	mov	r0, r3
	ldr	r1, [r7, #8]
	ldr	r2, [r7, #4]
	bl	_ZNK2OT15ClassDefFormat29add_classI8hb_set_tEEvPT_j(PLT)
	nop
.L492:
	adds	r7, r7, #16
	mov	sp, r7
	@ sp needed
	pop	{r7, pc}
	.fnend
	.size	_ZNK2OT8ClassDef9add_classEP8hb_set_tj, .-_ZNK2OT8ClassDef9add_classEP8hb_set_tj
	.section	.text._ZNK2OT8ClassDef16intersects_classEPK8hb_set_tj,"axG",%progbits,_ZNK2OT8ClassDef16intersects_classEPK8hb_set_tj,comdat
	.align	2
	.weak	_ZNK2OT8ClassDef16intersects_classEPK8hb_set_tj
	.thumb
	.thumb_func
	.type	_ZNK2OT8ClassDef16intersects_classEPK8hb_set_tj, %function
_ZNK2OT8ClassDef16intersects_classEPK8hb_set_tj:
	.fnstart
.LFB443:
	@ args = 0, pretend = 0, frame = 16
	@ frame_needed = 1, uses_anonymous_args = 0
	push	{r7, lr}
	.save {r7, lr}
	.pad #16
	sub	sp, sp, #16
	.setfp r7, sp, #0
	add	r7, sp, #0
	str	r0, [r7, #12]
	str	r1, [r7, #8]
	str	r2, [r7, #4]
	ldr	r3, [r7, #12]
	mov	r0, r3
	bl	_ZNK2OT7IntTypeItLj2EEcvtEv(PLT)
	mov	r3, r0
	cmp	r3, #1
	beq	.L499
	cmp	r3, #2
	beq	.L500
	b	.L502
.L499:
	ldr	r3, [r7, #12]
	mov	r0, r3
	ldr	r1, [r7, #8]
	ldr	r2, [r7, #4]
	bl	_ZNK2OT15ClassDefFormat116intersects_classEPK8hb_set_tj(PLT)
	mov	r3, r0
	b	.L501
.L500:
	ldr	r3, [r7, #12]
	mov	r0, r3
	ldr	r1, [r7, #8]
	ldr	r2, [r7, #4]
	bl	_ZNK2OT15ClassDefFormat216intersects_classEPK8hb_set_tj(PLT)
	mov	r3, r0
	b	.L501
.L502:
	movs	r3, #0
.L501:
	mov	r0, r3
	adds	r7, r7, #16
	mov	sp, r7
	@ sp needed
	pop	{r7, pc}
	.fnend
	.size	_ZNK2OT8ClassDef16intersects_classEPK8hb_set_tj, .-_ZNK2OT8ClassDef16intersects_classEPK8hb_set_tj
	.section	.text._ZNK2OT6Device11get_x_deltaEP9hb_font_t,"axG",%progbits,_ZNK2OT6Device11get_x_deltaEP9hb_font_t,comdat
	.align	2
	.weak	_ZNK2OT6Device11get_x_deltaEP9hb_font_t
	.thumb
	.thumb_func
	.type	_ZNK2OT6Device11get_x_deltaEP9hb_font_t, %function
_ZNK2OT6Device11get_x_deltaEP9hb_font_t:
	.fnstart
.LFB445:
	@ args = 0, pretend = 0, frame = 8
	@ frame_needed = 1, uses_anonymous_args = 0
	push	{r7, lr}
	.save {r7, lr}
	.pad #8
	sub	sp, sp, #8
	.setfp r7, sp, #0
	add	r7, sp, #0
	str	r0, [r7, #4]
	str	r1, [r7]
	ldr	r3, [r7]
	ldr	r2, [r3, #64]
	ldr	r3, [r7]
	ldr	r3, [r3, #56]
	ldr	r0, [r7, #4]
	mov	r1, r2
	mov	r2, r3
	bl	_ZNK2OT6Device9get_deltaEji(PLT)
	mov	r3, r0
	mov	r0, r3
	adds	r7, r7, #8
	mov	sp, r7
	@ sp needed
	pop	{r7, pc}
	.fnend
	.size	_ZNK2OT6Device11get_x_deltaEP9hb_font_t, .-_ZNK2OT6Device11get_x_deltaEP9hb_font_t
	.section	.text._ZNK2OT6Device11get_y_deltaEP9hb_font_t,"axG",%progbits,_ZNK2OT6Device11get_y_deltaEP9hb_font_t,comdat
	.align	2
	.weak	_ZNK2OT6Device11get_y_deltaEP9hb_font_t
	.thumb
	.thumb_func
	.type	_ZNK2OT6Device11get_y_deltaEP9hb_font_t, %function
_ZNK2OT6Device11get_y_deltaEP9hb_font_t:
	.fnstart
.LFB446:
	@ args = 0, pretend = 0, frame = 8
	@ frame_needed = 1, uses_anonymous_args = 0
	push	{r7, lr}
	.save {r7, lr}
	.pad #8
	sub	sp, sp, #8
	.setfp r7, sp, #0
	add	r7, sp, #0
	str	r0, [r7, #4]
	str	r1, [r7]
	ldr	r3, [r7]
	ldr	r2, [r3, #68]
	ldr	r3, [r7]
	ldr	r3, [r3, #60]
	ldr	r0, [r7, #4]
	mov	r1, r2
	mov	r2, r3
	bl	_ZNK2OT6Device9get_deltaEji(PLT)
	mov	r3, r0
	mov	r0, r3
	adds	r7, r7, #8
	mov	sp, r7
	@ sp needed
	pop	{r7, pc}
	.fnend
	.size	_ZNK2OT6Device11get_y_deltaEP9hb_font_t, .-_ZNK2OT6Device11get_y_deltaEP9hb_font_t
	.section	.text._ZNK2OT6Device9get_deltaEji,"axG",%progbits,_ZNK2OT6Device9get_deltaEji,comdat
	.align	2
	.weak	_ZNK2OT6Device9get_deltaEji
	.thumb
	.thumb_func
	.type	_ZNK2OT6Device9get_deltaEji, %function
_ZNK2OT6Device9get_deltaEji:
	.fnstart
.LFB447:
	@ args = 0, pretend = 0, frame = 24
	@ frame_needed = 1, uses_anonymous_args = 0
	push	{r4, r5, r7, lr}
	.save {r4, r5, r7, lr}
	.pad #24
	sub	sp, sp, #24
	.setfp r7, sp, #0
	add	r7, sp, #0
	str	r0, [r7, #12]
	str	r1, [r7, #8]
	str	r2, [r7, #4]
	ldr	r3, [r7, #8]
	cmp	r3, #0
	bne	.L508
	movs	r3, #0
	b	.L509
.L508:
	ldr	r0, [r7, #12]
	ldr	r1, [r7, #8]
	bl	_ZNK2OT6Device16get_delta_pixelsEj(PLT)
	mov	r3, r0
	str	r3, [r7, #20]
	ldr	r3, [r7, #20]
	cmp	r3, #0
	bne	.L510
	movs	r3, #0
	b	.L509
.L510:
	ldr	r3, [r7, #20]
	mov	r0, r3
	asr	r1, r0, #31
	ldr	r3, [r7, #4]
	mov	r2, r3
	asr	r3, r2, #31
	mul	r5, r2, r1
	mul	r4, r0, r3
	add	r4, r4, r5
	umull	r2, r3, r0, r2
	adds	r1, r4, r3
	mov	r3, r1
	ldr	r1, [r7, #8]
	mov	r4, r1
	mov	r5, #0
	mov	r0, r2
	mov	r1, r3
	mov	r2, r4
	mov	r3, r5
	bl	__aeabi_ldivmod(PLT)
	mov	r2, r0
	mov	r3, r1
	mov	r3, r2
.L509:
	mov	r0, r3
	adds	r7, r7, #24
	mov	sp, r7
	@ sp needed
	pop	{r4, r5, r7, pc}
	.fnend
	.size	_ZNK2OT6Device9get_deltaEji, .-_ZNK2OT6Device9get_deltaEji
	.section	.text._ZNK2OT6Device16get_delta_pixelsEj,"axG",%progbits,_ZNK2OT6Device16get_delta_pixelsEj,comdat
	.align	2
	.weak	_ZNK2OT6Device16get_delta_pixelsEj
	.thumb
	.thumb_func
	.type	_ZNK2OT6Device16get_delta_pixelsEj, %function
_ZNK2OT6Device16get_delta_pixelsEj:
	.fnstart
.LFB448:
	@ args = 0, pretend = 0, frame = 32
	@ frame_needed = 1, uses_anonymous_args = 0
	push	{r7, lr}
	.save {r7, lr}
	.pad #32
	sub	sp, sp, #32
	.setfp r7, sp, #0
	add	r7, sp, #0
	str	r0, [r7, #4]
	str	r1, [r7]
	ldr	r3, [r7, #4]
	adds	r3, r3, #4
	mov	r0, r3
	bl	_ZNK2OT7IntTypeItLj2EEcvtEv(PLT)
	mov	r3, r0
	str	r3, [r7, #24]
	ldr	r3, [r7, #24]
	cmp	r3, #0
	beq	.L512
	ldr	r3, [r7, #24]
	cmp	r3, #3
	bls	.L513
.L512:
	movs	r3, #0
	b	.L514
.L513:
	ldr	r3, [r7, #4]
	mov	r0, r3
	bl	_ZNK2OT7IntTypeItLj2EEcvtEv(PLT)
	mov	r3, r0
	mov	r2, r3
	ldr	r3, [r7]
	cmp	r2, r3
	bhi	.L515
	ldr	r3, [r7, #4]
	adds	r3, r3, #2
	mov	r0, r3
	bl	_ZNK2OT7IntTypeItLj2EEcvtEv(PLT)
	mov	r3, r0
	mov	r2, r3
	ldr	r3, [r7]
	cmp	r2, r3
	bcs	.L516
.L515:
	movs	r3, #1
	b	.L517
.L516:
	movs	r3, #0
.L517:
	cmp	r3, #0
	beq	.L518
	movs	r3, #0
	b	.L514
.L518:
	ldr	r3, [r7, #4]
	mov	r0, r3
	bl	_ZNK2OT7IntTypeItLj2EEcvtEv(PLT)
	mov	r3, r0
	ldr	r2, [r7]
	subs	r3, r2, r3
	str	r3, [r7, #20]
	ldr	r3, [r7, #24]
	rsb	r3, r3, #4
	ldr	r2, [r7, #20]
	lsr	r3, r2, r3
	lsls	r3, r3, #1
	ldr	r2, [r7, #4]
	add	r3, r3, r2
	adds	r3, r3, #6
	mov	r0, r3
	bl	_ZNK2OT7IntTypeItLj2EEcvtEv(PLT)
	mov	r3, r0
	str	r3, [r7, #16]
	ldr	r3, [r7, #24]
	rsb	r3, r3, #4
	movs	r2, #1
	lsl	r3, r2, r3
	subs	r3, r3, #1
	mov	r2, r3
	ldr	r3, [r7, #20]
	ands	r3, r3, r2
	adds	r2, r3, #1
	ldr	r3, [r7, #24]
	lsl	r3, r2, r3
	rsb	r3, r3, #16
	ldr	r2, [r7, #16]
	lsr	r3, r2, r3
	str	r3, [r7, #12]
	ldr	r3, [r7, #24]
	movs	r2, #1
	lsl	r3, r2, r3
	rsb	r3, r3, #16
	movw	r2, #65535
	lsr	r3, r2, r3
	str	r3, [r7, #8]
	ldr	r2, [r7, #12]
	ldr	r3, [r7, #8]
	ands	r3, r3, r2
	str	r3, [r7, #28]
	ldr	r2, [r7, #28]
	ldr	r3, [r7, #8]
	adds	r3, r3, #1
	lsrs	r3, r3, #1
	cmp	r2, r3
	bcc	.L519
	ldr	r2, [r7, #28]
	ldr	r3, [r7, #8]
	subs	r3, r2, r3
	subs	r3, r3, #1
	str	r3, [r7, #28]
.L519:
	ldr	r3, [r7, #28]
.L514:
	mov	r0, r3
	adds	r7, r7, #32
	mov	sp, r7
	@ sp needed
	pop	{r7, pc}
	.fnend
	.size	_ZNK2OT6Device16get_delta_pixelsEj, .-_ZNK2OT6Device16get_delta_pixelsEj
	.section	.text._ZNK2OT6Device8get_sizeEv,"axG",%progbits,_ZNK2OT6Device8get_sizeEv,comdat
	.align	2
	.weak	_ZNK2OT6Device8get_sizeEv
	.thumb
	.thumb_func
	.type	_ZNK2OT6Device8get_sizeEv, %function
_ZNK2OT6Device8get_sizeEv:
	.fnstart
.LFB449:
	@ args = 0, pretend = 0, frame = 16
	@ frame_needed = 1, uses_anonymous_args = 0
	push	{r4, r7, lr}
	.save {r4, r7, lr}
	.pad #20
	sub	sp, sp, #20
	.setfp r7, sp, #0
	add	r7, sp, #0
	str	r0, [r7, #4]
	ldr	r3, [r7, #4]
	adds	r3, r3, #4
	mov	r0, r3
	bl	_ZNK2OT7IntTypeItLj2EEcvtEv(PLT)
	mov	r3, r0
	str	r3, [r7, #12]
	ldr	r3, [r7, #12]
	cmp	r3, #0
	beq	.L521
	ldr	r3, [r7, #12]
	cmp	r3, #3
	bhi	.L521
	ldr	r3, [r7, #4]
	mov	r0, r3
	bl	_ZNK2OT7IntTypeItLj2EEcvtEv(PLT)
	mov	r3, r0
	mov	r4, r3
	ldr	r3, [r7, #4]
	adds	r3, r3, #2
	mov	r0, r3
	bl	_ZNK2OT7IntTypeItLj2EEcvtEv(PLT)
	mov	r3, r0
	cmp	r4, r3
	bls	.L522
.L521:
	movs	r3, #1
	b	.L523
.L522:
	movs	r3, #0
.L523:
	cmp	r3, #0
	beq	.L524
	movs	r3, #6
	b	.L525
.L524:
	ldr	r3, [r7, #4]
	adds	r3, r3, #2
	mov	r0, r3
	bl	_ZNK2OT7IntTypeItLj2EEcvtEv(PLT)
	mov	r3, r0
	mov	r4, r3
	ldr	r3, [r7, #4]
	mov	r0, r3
	bl	_ZNK2OT7IntTypeItLj2EEcvtEv(PLT)
	mov	r3, r0
	subs	r2, r4, r3
	ldr	r3, [r7, #12]
	rsb	r3, r3, #4
	asr	r3, r2, r3
	adds	r3, r3, #4
	lsls	r3, r3, #1
.L525:
	mov	r0, r3
	adds	r7, r7, #20
	mov	sp, r7
	@ sp needed
	pop	{r4, r7, pc}
	.fnend
	.size	_ZNK2OT6Device8get_sizeEv, .-_ZNK2OT6Device8get_sizeEv
	.section	.text._ZN2OT6Device8sanitizeEPNS_21hb_sanitize_context_tE,"axG",%progbits,_ZN2OT6Device8sanitizeEPNS_21hb_sanitize_context_tE,comdat
	.align	2
	.weak	_ZN2OT6Device8sanitizeEPNS_21hb_sanitize_context_tE
	.thumb
	.thumb_func
	.type	_ZN2OT6Device8sanitizeEPNS_21hb_sanitize_context_tE, %function
_ZN2OT6Device8sanitizeEPNS_21hb_sanitize_context_tE:
	.fnstart
.LFB450:
	@ args = 0, pretend = 0, frame = 16
	@ frame_needed = 1, uses_anonymous_args = 0
	push	{r4, r7, lr}
	.save {r4, r7, lr}
	.pad #28
	sub	sp, sp, #28
	.setfp r7, sp, #8
	add	r7, sp, #8
	str	r0, [r7, #4]
	str	r1, [r7]
	ldr	r4, [r7]
	ldr	r0, [r7]
	bl	_ZN2OT21hb_sanitize_context_t8get_nameEv(PLT)
	mov	r3, r0
	add	r2, r7, #12
	ldr	r1, .L530
.LPIC58:
	add	r1, pc
	str	r1, [sp]
	ldr	r1, .L530+4
.LPIC59:
	add	r1, pc
	str	r1, [sp, #4]
	mov	r0, r2
	mov	r1, r4
	mov	r2, r3
	ldr	r3, [r7, #4]
	bl	_ZN15hb_auto_trace_tILi0EbEC1EPjPKcPKvS3_S3_z(PLT)
	ldr	r0, [r7]
	ldr	r1, [r7, #4]
	bl	_ZNK2OT21hb_sanitize_context_t12check_structINS_6DeviceEEEbPKT_(PLT)
	mov	r3, r0
	cmp	r3, #0
	beq	.L527
	ldr	r0, [r7, #4]
	bl	_ZNK2OT6Device8get_sizeEv(PLT)
	mov	r3, r0
	ldr	r0, [r7]
	ldr	r1, [r7, #4]
	mov	r2, r3
	bl	_ZNK2OT21hb_sanitize_context_t11check_rangeEPKvj(PLT)
	mov	r3, r0
	cmp	r3, #0
	beq	.L527
	movs	r3, #1
	b	.L528
.L527:
	movs	r3, #0
.L528:
	add	r2, r7, #12
	mov	r0, r2
	mov	r1, r3
	movw	r2, #1153
	bl	_ZN15hb_auto_trace_tILi0EbE3retEbj(PLT)
	mov	r3, r0
	mov	r0, r3
	adds	r7, r7, #20
	mov	sp, r7
	@ sp needed
	pop	{r4, r7, pc}
.L531:
	.align	2
.L530:
	.word	_ZZN2OT6Device8sanitizeEPNS_21hb_sanitize_context_tEE19__PRETTY_FUNCTION__-(.LPIC58+4)
	.word	.LC16-(.LPIC59+4)
	.fnend
	.size	_ZN2OT6Device8sanitizeEPNS_21hb_sanitize_context_tE, .-_ZN2OT6Device8sanitizeEPNS_21hb_sanitize_context_tE
	.section	.text._ZNK2OT10AttachList17get_attach_pointsEjjPjS1_,"axG",%progbits,_ZNK2OT10AttachList17get_attach_pointsEjjPjS1_,comdat
	.align	2
	.weak	_ZNK2OT10AttachList17get_attach_pointsEjjPjS1_
	.thumb
	.thumb_func
	.type	_ZNK2OT10AttachList17get_attach_pointsEjjPjS1_, %function
_ZNK2OT10AttachList17get_attach_pointsEjjPjS1_:
	.fnstart
.LFB453:
	@ args = 4, pretend = 0, frame = 48
	@ frame_needed = 1, uses_anonymous_args = 0
	push	{r4, r7, lr}
	.save {r4, r7, lr}
	.pad #52
	sub	sp, sp, #52
	.setfp r7, sp, #0
	add	r7, sp, #0
	str	r0, [r7, #12]
	str	r1, [r7, #8]
	str	r2, [r7, #4]
	str	r3, [r7]
	ldr	r3, [r7, #12]
	str	r3, [r7, #20]
	ldr	r3, [r7, #12]
	add	r2, r7, #20
	mov	r0, r2
	mov	r1, r3
	bl	_ZN2OTplIPKNS_10AttachListENS_7IntTypeItLj2EEENS_8CoverageEEERKT1_RKT_RKNS_8OffsetToIS7_T0_EE(PLT)
	mov	r3, r0
	mov	r0, r3
	ldr	r1, [r7, #8]
	bl	_ZNK2OT8Coverage12get_coverageEj(PLT)
	mov	r3, r0
	str	r3, [r7, #40]
	ldr	r3, [r7, #40]
	cmp	r3, #-1
	bne	.L533
	ldr	r3, [r7]
	cmp	r3, #0
	beq	.L534
	ldr	r3, [r7]
	movs	r2, #0
	str	r2, [r3]
.L534:
	movs	r3, #0
	b	.L535
.L533:
	ldr	r3, [r7, #12]
	str	r3, [r7, #24]
	ldr	r3, [r7, #12]
	adds	r3, r3, #2
	mov	r0, r3
	ldr	r1, [r7, #40]
	bl	_ZNK2OT7ArrayOfINS_8OffsetToINS0_INS_7IntTypeItLj2EEES3_EES3_EES3_EixEj(PLT)
	mov	r3, r0
	add	r2, r7, #24
	mov	r0, r2
	mov	r1, r3
	bl	_ZN2OTplIPKNS_10AttachListENS_7IntTypeItLj2EEENS_7ArrayOfIS5_S5_EEEERKT1_RKT_RKNS_8OffsetToIS8_T0_EE(PLT)
	mov	r3, r0
	str	r3, [r7, #36]
	ldr	r3, [r7]
	cmp	r3, #0
	beq	.L536
	ldr	r0, [r7, #36]
	ldr	r1, [r7, #4]
	ldr	r2, [r7]
	bl	_ZNK2OT7ArrayOfINS_7IntTypeItLj2EEES2_E9sub_arrayEjPj(PLT)
	mov	r3, r0
	str	r3, [r7, #32]
	ldr	r3, [r7]
	ldr	r3, [r3]
	str	r3, [r7, #28]
	movs	r3, #0
	str	r3, [r7, #44]
	b	.L537
.L538:
	ldr	r3, [r7, #44]
	lsls	r3, r3, #2
	ldr	r2, [r7, #64]
	adds	r4, r2, r3
	ldr	r3, [r7, #44]
	lsls	r3, r3, #1
	ldr	r2, [r7, #32]
	add	r3, r3, r2
	mov	r0, r3
	bl	_ZNK2OT7IntTypeItLj2EEcvtEv(PLT)
	mov	r3, r0
	str	r3, [r4]
	ldr	r3, [r7, #44]
	adds	r3, r3, #1
	str	r3, [r7, #44]
.L537:
	ldr	r2, [r7, #44]
	ldr	r3, [r7, #28]
	cmp	r2, r3
	bcc	.L538
.L536:
	ldr	r3, [r7, #36]
	mov	r0, r3
	bl	_ZNK2OT7IntTypeItLj2EEcvtEv(PLT)
	mov	r3, r0
.L535:
	mov	r0, r3
	adds	r7, r7, #52
	mov	sp, r7
	@ sp needed
	pop	{r4, r7, pc}
	.fnend
	.size	_ZNK2OT10AttachList17get_attach_pointsEjjPjS1_, .-_ZNK2OT10AttachList17get_attach_pointsEjjPjS1_
	.section	.text._ZN2OT10AttachList8sanitizeEPNS_21hb_sanitize_context_tE,"axG",%progbits,_ZN2OT10AttachList8sanitizeEPNS_21hb_sanitize_context_tE,comdat
	.align	2
	.weak	_ZN2OT10AttachList8sanitizeEPNS_21hb_sanitize_context_tE
	.thumb
	.thumb_func
	.type	_ZN2OT10AttachList8sanitizeEPNS_21hb_sanitize_context_tE, %function
_ZN2OT10AttachList8sanitizeEPNS_21hb_sanitize_context_tE:
	.fnstart
.LFB454:
	@ args = 0, pretend = 0, frame = 16
	@ frame_needed = 1, uses_anonymous_args = 0
	push	{r4, r7, lr}
	.save {r4, r7, lr}
	.pad #28
	sub	sp, sp, #28
	.setfp r7, sp, #8
	add	r7, sp, #8
	str	r0, [r7, #4]
	str	r1, [r7]
	ldr	r4, [r7]
	ldr	r0, [r7]
	bl	_ZN2OT21hb_sanitize_context_t8get_nameEv(PLT)
	mov	r3, r0
	add	r2, r7, #12
	ldr	r1, .L543
.LPIC60:
	add	r1, pc
	str	r1, [sp]
	ldr	r1, .L543+4
.LPIC61:
	add	r1, pc
	str	r1, [sp, #4]
	mov	r0, r2
	mov	r1, r4
	mov	r2, r3
	ldr	r3, [r7, #4]
	bl	_ZN15hb_auto_trace_tILi0EbEC1EPjPKcPKvS3_S3_z(PLT)
	ldr	r3, [r7, #4]
	mov	r0, r3
	ldr	r1, [r7]
	ldr	r2, [r7, #4]
	bl	_ZN2OT8OffsetToINS_8CoverageENS_7IntTypeItLj2EEEE8sanitizeEPNS_21hb_sanitize_context_tEPv(PLT)
	mov	r3, r0
	cmp	r3, #0
	beq	.L540
	ldr	r3, [r7, #4]
	adds	r3, r3, #2
	mov	r0, r3
	ldr	r1, [r7]
	ldr	r2, [r7, #4]
	bl	_ZN2OT7ArrayOfINS_8OffsetToINS0_INS_7IntTypeItLj2EEES3_EES3_EES3_E8sanitizeEPNS_21hb_sanitize_context_tEPv(PLT)
	mov	r3, r0
	cmp	r3, #0
	beq	.L540
	movs	r3, #1
	b	.L541
.L540:
	movs	r3, #0
.L541:
	add	r2, r7, #12
	mov	r0, r2
	mov	r1, r3
	movs	r2, #76
	bl	_ZN15hb_auto_trace_tILi0EbE3retEbj(PLT)
	mov	r3, r0
	mov	r0, r3
	adds	r7, r7, #20
	mov	sp, r7
	@ sp needed
	pop	{r4, r7, pc}
.L544:
	.align	2
.L543:
	.word	_ZZN2OT10AttachList8sanitizeEPNS_21hb_sanitize_context_tEE19__PRETTY_FUNCTION__-(.LPIC60+4)
	.word	.LC16-(.LPIC61+4)
	.fnend
	.size	_ZN2OT10AttachList8sanitizeEPNS_21hb_sanitize_context_tE, .-_ZN2OT10AttachList8sanitizeEPNS_21hb_sanitize_context_tE
	.section	.text._ZNK2OT17CaretValueFormat115get_caret_valueEP9hb_font_t14hb_direction_tj,"axG",%progbits,_ZNK2OT17CaretValueFormat115get_caret_valueEP9hb_font_t14hb_direction_tj,comdat
	.align	2
	.weak	_ZNK2OT17CaretValueFormat115get_caret_valueEP9hb_font_t14hb_direction_tj
	.thumb
	.thumb_func
	.type	_ZNK2OT17CaretValueFormat115get_caret_valueEP9hb_font_t14hb_direction_tj, %function
_ZNK2OT17CaretValueFormat115get_caret_valueEP9hb_font_t14hb_direction_tj:
	.fnstart
.LFB457:
	@ args = 0, pretend = 0, frame = 16
	@ frame_needed = 1, uses_anonymous_args = 0
	push	{r7, lr}
	.save {r7, lr}
	.pad #16
	sub	sp, sp, #16
	.setfp r7, sp, #0
	add	r7, sp, #0
	str	r0, [r7, #12]
	str	r1, [r7, #8]
	str	r2, [r7, #4]
	str	r3, [r7]
	ldr	r3, [r7, #4]
	bic	r3, r3, #1
	cmp	r3, #4
	bne	.L546
	ldr	r3, [r7, #12]
	adds	r3, r3, #2
	mov	r0, r3
	bl	_ZNK2OT7IntTypeIsLj2EEcvsEv(PLT)
	mov	r3, r0
	uxth	r3, r3
	sxth	r3, r3
	ldr	r0, [r7, #8]
	mov	r1, r3
	bl	_ZN9hb_font_t10em_scale_xEs(PLT)
	mov	r3, r0
	b	.L547
.L546:
	ldr	r3, [r7, #12]
	adds	r3, r3, #2
	mov	r0, r3
	bl	_ZNK2OT7IntTypeIsLj2EEcvsEv(PLT)
	mov	r3, r0
	uxth	r3, r3
	sxth	r3, r3
	ldr	r0, [r7, #8]
	mov	r1, r3
	bl	_ZN9hb_font_t10em_scale_yEs(PLT)
	mov	r3, r0
.L547:
	mov	r0, r3
	adds	r7, r7, #16
	mov	sp, r7
	@ sp needed
	pop	{r7, pc}
	.fnend
	.size	_ZNK2OT17CaretValueFormat115get_caret_valueEP9hb_font_t14hb_direction_tj, .-_ZNK2OT17CaretValueFormat115get_caret_valueEP9hb_font_t14hb_direction_tj
	.section	.text._ZN2OT17CaretValueFormat18sanitizeEPNS_21hb_sanitize_context_tE,"axG",%progbits,_ZN2OT17CaretValueFormat18sanitizeEPNS_21hb_sanitize_context_tE,comdat
	.align	2
	.weak	_ZN2OT17CaretValueFormat18sanitizeEPNS_21hb_sanitize_context_tE
	.thumb
	.thumb_func
	.type	_ZN2OT17CaretValueFormat18sanitizeEPNS_21hb_sanitize_context_tE, %function
_ZN2OT17CaretValueFormat18sanitizeEPNS_21hb_sanitize_context_tE:
	.fnstart
.LFB458:
	@ args = 0, pretend = 0, frame = 16
	@ frame_needed = 1, uses_anonymous_args = 0
	push	{r4, r7, lr}
	.save {r4, r7, lr}
	.pad #28
	sub	sp, sp, #28
	.setfp r7, sp, #8
	add	r7, sp, #8
	str	r0, [r7, #4]
	str	r1, [r7]
	ldr	r4, [r7]
	ldr	r0, [r7]
	bl	_ZN2OT21hb_sanitize_context_t8get_nameEv(PLT)
	mov	r3, r0
	add	r2, r7, #12
	ldr	r1, .L551
.LPIC62:
	add	r1, pc
	str	r1, [sp]
	ldr	r1, .L551+4
.LPIC63:
	add	r1, pc
	str	r1, [sp, #4]
	mov	r0, r2
	mov	r1, r4
	mov	r2, r3
	ldr	r3, [r7, #4]
	bl	_ZN15hb_auto_trace_tILi0EbEC1EPjPKcPKvS3_S3_z(PLT)
	ldr	r0, [r7]
	ldr	r1, [r7, #4]
	bl	_ZNK2OT21hb_sanitize_context_t12check_structINS_17CaretValueFormat1EEEbPKT_(PLT)
	mov	r3, r0
	add	r2, r7, #12
	mov	r0, r2
	mov	r1, r3
	movs	r2, #106
	bl	_ZN15hb_auto_trace_tILi0EbE3retEbj(PLT)
	mov	r3, r0
	mov	r0, r3
	adds	r7, r7, #20
	mov	sp, r7
	@ sp needed
	pop	{r4, r7, pc}
.L552:
	.align	2
.L551:
	.word	_ZZN2OT17CaretValueFormat18sanitizeEPNS_21hb_sanitize_context_tEE19__PRETTY_FUNCTION__-(.LPIC62+4)
	.word	.LC16-(.LPIC63+4)
	.fnend
	.size	_ZN2OT17CaretValueFormat18sanitizeEPNS_21hb_sanitize_context_tE, .-_ZN2OT17CaretValueFormat18sanitizeEPNS_21hb_sanitize_context_tE
	.section	.text._ZNK2OT17CaretValueFormat215get_caret_valueEP9hb_font_t14hb_direction_tj,"axG",%progbits,_ZNK2OT17CaretValueFormat215get_caret_valueEP9hb_font_t14hb_direction_tj,comdat
	.align	2
	.weak	_ZNK2OT17CaretValueFormat215get_caret_valueEP9hb_font_t14hb_direction_tj
	.thumb
	.thumb_func
	.type	_ZNK2OT17CaretValueFormat215get_caret_valueEP9hb_font_t14hb_direction_tj, %function
_ZNK2OT17CaretValueFormat215get_caret_valueEP9hb_font_t14hb_direction_tj:
	.fnstart
.LFB460:
	@ args = 0, pretend = 0, frame = 24
	@ frame_needed = 1, uses_anonymous_args = 0
	push	{r7, lr}
	.save {r7, lr}
	.pad #32
	sub	sp, sp, #32
	.setfp r7, sp, #8
	add	r7, sp, #8
	str	r0, [r7, #12]
	str	r1, [r7, #8]
	str	r2, [r7, #4]
	str	r3, [r7]
	ldr	r3, [r7, #12]
	adds	r3, r3, #2
	mov	r0, r3
	bl	_ZNK2OT7IntTypeItLj2EEcvtEv(PLT)
	mov	r3, r0
	add	r2, r7, #20
	str	r2, [sp]
	add	r2, r7, #16
	str	r2, [sp, #4]
	ldr	r0, [r7, #8]
	ldr	r1, [r7]
	mov	r2, r3
	ldr	r3, [r7, #4]
	bl	_ZN9hb_font_t34get_glyph_contour_point_for_originEjj14hb_direction_tPiS1_(PLT)
	mov	r3, r0
	cmp	r3, #0
	ite	ne
	movne	r3, #1
	moveq	r3, #0
	uxtb	r3, r3
	cmp	r3, #0
	beq	.L554
	ldr	r3, [r7, #4]
	bic	r3, r3, #1
	cmp	r3, #4
	bne	.L555
	ldr	r3, [r7, #20]
	b	.L556
.L555:
	ldr	r3, [r7, #16]
.L556:
	b	.L558
.L554:
	movs	r3, #0
.L558:
	mov	r0, r3
	adds	r7, r7, #24
	mov	sp, r7
	@ sp needed
	pop	{r7, pc}
	.fnend
	.size	_ZNK2OT17CaretValueFormat215get_caret_valueEP9hb_font_t14hb_direction_tj, .-_ZNK2OT17CaretValueFormat215get_caret_valueEP9hb_font_t14hb_direction_tj
	.section	.text._ZN2OT17CaretValueFormat28sanitizeEPNS_21hb_sanitize_context_tE,"axG",%progbits,_ZN2OT17CaretValueFormat28sanitizeEPNS_21hb_sanitize_context_tE,comdat
	.align	2
	.weak	_ZN2OT17CaretValueFormat28sanitizeEPNS_21hb_sanitize_context_tE
	.thumb
	.thumb_func
	.type	_ZN2OT17CaretValueFormat28sanitizeEPNS_21hb_sanitize_context_tE, %function
_ZN2OT17CaretValueFormat28sanitizeEPNS_21hb_sanitize_context_tE:
	.fnstart
.LFB461:
	@ args = 0, pretend = 0, frame = 16
	@ frame_needed = 1, uses_anonymous_args = 0
	push	{r4, r7, lr}
	.save {r4, r7, lr}
	.pad #28
	sub	sp, sp, #28
	.setfp r7, sp, #8
	add	r7, sp, #8
	str	r0, [r7, #4]
	str	r1, [r7]
	ldr	r4, [r7]
	ldr	r0, [r7]
	bl	_ZN2OT21hb_sanitize_context_t8get_nameEv(PLT)
	mov	r3, r0
	add	r2, r7, #12
	ldr	r1, .L561
.LPIC64:
	add	r1, pc
	str	r1, [sp]
	ldr	r1, .L561+4
.LPIC65:
	add	r1, pc
	str	r1, [sp, #4]
	mov	r0, r2
	mov	r1, r4
	mov	r2, r3
	ldr	r3, [r7, #4]
	bl	_ZN15hb_auto_trace_tILi0EbEC1EPjPKcPKvS3_S3_z(PLT)
	ldr	r0, [r7]
	ldr	r1, [r7, #4]
	bl	_ZNK2OT21hb_sanitize_context_t12check_structINS_17CaretValueFormat2EEEbPKT_(PLT)
	mov	r3, r0
	add	r2, r7, #12
	mov	r0, r2
	mov	r1, r3
	movs	r2, #132
	bl	_ZN15hb_auto_trace_tILi0EbE3retEbj(PLT)
	mov	r3, r0
	mov	r0, r3
	adds	r7, r7, #20
	mov	sp, r7
	@ sp needed
	pop	{r4, r7, pc}
.L562:
	.align	2
.L561:
	.word	_ZZN2OT17CaretValueFormat28sanitizeEPNS_21hb_sanitize_context_tEE19__PRETTY_FUNCTION__-(.LPIC64+4)
	.word	.LC16-(.LPIC65+4)
	.fnend
	.size	_ZN2OT17CaretValueFormat28sanitizeEPNS_21hb_sanitize_context_tE, .-_ZN2OT17CaretValueFormat28sanitizeEPNS_21hb_sanitize_context_tE
	.section	.text._ZNK2OT17CaretValueFormat315get_caret_valueEP9hb_font_t14hb_direction_tj,"axG",%progbits,_ZNK2OT17CaretValueFormat315get_caret_valueEP9hb_font_t14hb_direction_tj,comdat
	.align	2
	.weak	_ZNK2OT17CaretValueFormat315get_caret_valueEP9hb_font_t14hb_direction_tj
	.thumb
	.thumb_func
	.type	_ZNK2OT17CaretValueFormat315get_caret_valueEP9hb_font_t14hb_direction_tj, %function
_ZNK2OT17CaretValueFormat315get_caret_valueEP9hb_font_t14hb_direction_tj:
	.fnstart
.LFB463:
	@ args = 0, pretend = 0, frame = 24
	@ frame_needed = 1, uses_anonymous_args = 0
	push	{r4, r5, r6, r7, lr}
	.save {r4, r5, r6, r7, lr}
	.pad #28
	sub	sp, sp, #28
	.setfp r7, sp, #0
	add	r7, sp, #0
	str	r0, [r7, #12]
	str	r1, [r7, #8]
	str	r2, [r7, #4]
	str	r3, [r7]
	ldr	r3, [r7, #4]
	bic	r3, r3, #1
	movs	r4, #0
	movs	r5, #0
	cmp	r3, #4
	bne	.L564
	ldr	r3, [r7, #12]
	adds	r3, r3, #2
	mov	r0, r3
.LEHB0:
	bl	_ZNK2OT7IntTypeIsLj2EEcvsEv(PLT)
	mov	r3, r0
	uxth	r3, r3
	sxth	r3, r3
	ldr	r0, [r7, #8]
	mov	r1, r3
	bl	_ZN9hb_font_t10em_scale_xEs(PLT)
	mov	r6, r0
	ldr	r3, [r7, #12]
	str	r3, [r7, #16]
	movs	r4, #1
	ldr	r3, [r7, #12]
	adds	r3, r3, #4
	add	r2, r7, #16
	mov	r0, r2
	mov	r1, r3
	bl	_ZN2OTplIPKNS_17CaretValueFormat3ENS_7IntTypeItLj2EEENS_6DeviceEEERKT1_RKT_RKNS_8OffsetToIS7_T0_EE(PLT)
	mov	r3, r0
	mov	r0, r3
	ldr	r1, [r7, #8]
	bl	_ZNK2OT6Device11get_x_deltaEP9hb_font_t(PLT)
	mov	r3, r0
	add	r3, r3, r6
	b	.L565
.L564:
	ldr	r3, [r7, #12]
	adds	r3, r3, #2
	mov	r0, r3
	bl	_ZNK2OT7IntTypeIsLj2EEcvsEv(PLT)
	mov	r3, r0
	uxth	r3, r3
	sxth	r3, r3
	ldr	r0, [r7, #8]
	mov	r1, r3
	bl	_ZN9hb_font_t10em_scale_yEs(PLT)
	mov	r6, r0
	ldr	r3, [r7, #12]
	str	r3, [r7, #20]
	movs	r5, #1
	ldr	r3, [r7, #12]
	adds	r3, r3, #4
	add	r2, r7, #20
	mov	r0, r2
	mov	r1, r3
	bl	_ZN2OTplIPKNS_17CaretValueFormat3ENS_7IntTypeItLj2EEENS_6DeviceEEERKT1_RKT_RKNS_8OffsetToIS7_T0_EE(PLT)
	mov	r3, r0
	mov	r0, r3
	ldr	r1, [r7, #8]
	bl	_ZNK2OT6Device11get_y_deltaEP9hb_font_t(PLT)
.LEHE0:
	mov	r3, r0
	add	r3, r3, r6
.L565:
	cmp	r5, #0
	cmp	r4, #0
	b	.L573
.L572:
	cmp	r5, #0
	cmp	r4, #0
	nop
.LEHB1:
	bl	__cxa_end_cleanup(PLT)
.LEHE1:
.L573:
	mov	r0, r3
	adds	r7, r7, #28
	mov	sp, r7
	@ sp needed
	pop	{r4, r5, r6, r7, pc}
	.global	__gxx_personality_v0
	.personality	__gxx_personality_v0
	.handlerdata
.LLSDA463:
	.byte	0xff
	.byte	0xff
	.byte	0x1
	.uleb128 .LLSDACSE463-.LLSDACSB463
.LLSDACSB463:
	.uleb128 .LEHB0-.LFB463
	.uleb128 .LEHE0-.LEHB0
	.uleb128 .L572-.LFB463
	.uleb128 0
	.uleb128 .LEHB1-.LFB463
	.uleb128 .LEHE1-.LEHB1
	.uleb128 0
	.uleb128 0
.LLSDACSE463:
	.section	.text._ZNK2OT17CaretValueFormat315get_caret_valueEP9hb_font_t14hb_direction_tj,"axG",%progbits,_ZNK2OT17CaretValueFormat315get_caret_valueEP9hb_font_t14hb_direction_tj,comdat
	.fnend
	.size	_ZNK2OT17CaretValueFormat315get_caret_valueEP9hb_font_t14hb_direction_tj, .-_ZNK2OT17CaretValueFormat315get_caret_valueEP9hb_font_t14hb_direction_tj
	.section	.text._ZN2OT17CaretValueFormat38sanitizeEPNS_21hb_sanitize_context_tE,"axG",%progbits,_ZN2OT17CaretValueFormat38sanitizeEPNS_21hb_sanitize_context_tE,comdat
	.align	2
	.weak	_ZN2OT17CaretValueFormat38sanitizeEPNS_21hb_sanitize_context_tE
	.thumb
	.thumb_func
	.type	_ZN2OT17CaretValueFormat38sanitizeEPNS_21hb_sanitize_context_tE, %function
_ZN2OT17CaretValueFormat38sanitizeEPNS_21hb_sanitize_context_tE:
	.fnstart
.LFB464:
	@ args = 0, pretend = 0, frame = 16
	@ frame_needed = 1, uses_anonymous_args = 0
	push	{r4, r7, lr}
	.save {r4, r7, lr}
	.pad #28
	sub	sp, sp, #28
	.setfp r7, sp, #8
	add	r7, sp, #8
	str	r0, [r7, #4]
	str	r1, [r7]
	ldr	r4, [r7]
	ldr	r0, [r7]
	bl	_ZN2OT21hb_sanitize_context_t8get_nameEv(PLT)
	mov	r3, r0
	add	r2, r7, #12
	ldr	r1, .L578
.LPIC66:
	add	r1, pc
	str	r1, [sp]
	ldr	r1, .L578+4
.LPIC67:
	add	r1, pc
	str	r1, [sp, #4]
	mov	r0, r2
	mov	r1, r4
	mov	r2, r3
	ldr	r3, [r7, #4]
	bl	_ZN15hb_auto_trace_tILi0EbEC1EPjPKcPKvS3_S3_z(PLT)
	ldr	r0, [r7]
	ldr	r1, [r7, #4]
	bl	_ZNK2OT21hb_sanitize_context_t12check_structINS_17CaretValueFormat3EEEbPKT_(PLT)
	mov	r3, r0
	cmp	r3, #0
	beq	.L575
	ldr	r3, [r7, #4]
	adds	r3, r3, #4
	mov	r0, r3
	ldr	r1, [r7]
	ldr	r2, [r7, #4]
	bl	_ZN2OT8OffsetToINS_6DeviceENS_7IntTypeItLj2EEEE8sanitizeEPNS_21hb_sanitize_context_tEPv(PLT)
	mov	r3, r0
	cmp	r3, #0
	beq	.L575
	movs	r3, #1
	b	.L576
.L575:
	movs	r3, #0
.L576:
	add	r2, r7, #12
	mov	r0, r2
	mov	r1, r3
	movs	r2, #155
	bl	_ZN15hb_auto_trace_tILi0EbE3retEbj(PLT)
	mov	r3, r0
	mov	r0, r3
	adds	r7, r7, #20
	mov	sp, r7
	@ sp needed
	pop	{r4, r7, pc}
.L579:
	.align	2
.L578:
	.word	_ZZN2OT17CaretValueFormat38sanitizeEPNS_21hb_sanitize_context_tEE19__PRETTY_FUNCTION__-(.LPIC66+4)
	.word	.LC16-(.LPIC67+4)
	.fnend
	.size	_ZN2OT17CaretValueFormat38sanitizeEPNS_21hb_sanitize_context_tE, .-_ZN2OT17CaretValueFormat38sanitizeEPNS_21hb_sanitize_context_tE
	.section	.text._ZNK2OT10CaretValue15get_caret_valueEP9hb_font_t14hb_direction_tj,"axG",%progbits,_ZNK2OT10CaretValue15get_caret_valueEP9hb_font_t14hb_direction_tj,comdat
	.align	2
	.weak	_ZNK2OT10CaretValue15get_caret_valueEP9hb_font_t14hb_direction_tj
	.thumb
	.thumb_func
	.type	_ZNK2OT10CaretValue15get_caret_valueEP9hb_font_t14hb_direction_tj, %function
_ZNK2OT10CaretValue15get_caret_valueEP9hb_font_t14hb_direction_tj:
	.fnstart
.LFB466:
	@ args = 0, pretend = 0, frame = 16
	@ frame_needed = 1, uses_anonymous_args = 0
	push	{r7, lr}
	.save {r7, lr}
	.pad #16
	sub	sp, sp, #16
	.setfp r7, sp, #0
	add	r7, sp, #0
	str	r0, [r7, #12]
	str	r1, [r7, #8]
	str	r2, [r7, #4]
	str	r3, [r7]
	ldr	r3, [r7, #12]
	mov	r0, r3
	bl	_ZNK2OT7IntTypeItLj2EEcvtEv(PLT)
	mov	r3, r0
	cmp	r3, #2
	beq	.L582
	cmp	r3, #3
	beq	.L583
	cmp	r3, #1
	bne	.L586
	ldr	r3, [r7, #12]
	mov	r0, r3
	ldr	r1, [r7, #8]
	ldr	r2, [r7, #4]
	ldr	r3, [r7]
	bl	_ZNK2OT17CaretValueFormat115get_caret_valueEP9hb_font_t14hb_direction_tj(PLT)
	mov	r3, r0
	b	.L585
.L582:
	ldr	r3, [r7, #12]
	mov	r0, r3
	ldr	r1, [r7, #8]
	ldr	r2, [r7, #4]
	ldr	r3, [r7]
	bl	_ZNK2OT17CaretValueFormat215get_caret_valueEP9hb_font_t14hb_direction_tj(PLT)
	mov	r3, r0
	b	.L585
.L583:
	ldr	r3, [r7, #12]
	mov	r0, r3
	ldr	r1, [r7, #8]
	ldr	r2, [r7, #4]
	ldr	r3, [r7]
	bl	_ZNK2OT17CaretValueFormat315get_caret_valueEP9hb_font_t14hb_direction_tj(PLT)
	mov	r3, r0
	b	.L585
.L586:
	movs	r3, #0
.L585:
	mov	r0, r3
	adds	r7, r7, #16
	mov	sp, r7
	@ sp needed
	pop	{r7, pc}
	.fnend
	.size	_ZNK2OT10CaretValue15get_caret_valueEP9hb_font_t14hb_direction_tj, .-_ZNK2OT10CaretValue15get_caret_valueEP9hb_font_t14hb_direction_tj
	.section	.text._ZN2OT10CaretValue8sanitizeEPNS_21hb_sanitize_context_tE,"axG",%progbits,_ZN2OT10CaretValue8sanitizeEPNS_21hb_sanitize_context_tE,comdat
	.align	2
	.weak	_ZN2OT10CaretValue8sanitizeEPNS_21hb_sanitize_context_tE
	.thumb
	.thumb_func
	.type	_ZN2OT10CaretValue8sanitizeEPNS_21hb_sanitize_context_tE, %function
_ZN2OT10CaretValue8sanitizeEPNS_21hb_sanitize_context_tE:
	.fnstart
.LFB467:
	@ args = 0, pretend = 0, frame = 16
	@ frame_needed = 1, uses_anonymous_args = 0
	push	{r4, r7, lr}
	.save {r4, r7, lr}
	.pad #28
	sub	sp, sp, #28
	.setfp r7, sp, #8
	add	r7, sp, #8
	str	r0, [r7, #4]
	str	r1, [r7]
	ldr	r4, [r7]
	ldr	r0, [r7]
	bl	_ZN2OT21hb_sanitize_context_t8get_nameEv(PLT)
	mov	r3, r0
	add	r2, r7, #12
	ldr	r1, .L596
.LPIC68:
	add	r1, pc
	str	r1, [sp]
	ldr	r1, .L596+4
.LPIC69:
	add	r1, pc
	str	r1, [sp, #4]
	mov	r0, r2
	mov	r1, r4
	mov	r2, r3
	ldr	r3, [r7, #4]
	bl	_ZN15hb_auto_trace_tILi0EbEC1EPjPKcPKvS3_S3_z(PLT)
	ldr	r3, [r7, #4]
	mov	r0, r3
	ldr	r1, [r7]
	bl	_ZN2OT7IntTypeItLj2EE8sanitizeEPNS_21hb_sanitize_context_tE(PLT)
	mov	r3, r0
	eor	r3, r3, #1
	uxtb	r3, r3
	cmp	r3, #0
	beq	.L588
	add	r3, r7, #12
	mov	r0, r3
	movs	r1, #0
	movs	r2, #183
	bl	_ZN15hb_auto_trace_tILi0EbE3retEbj(PLT)
	mov	r3, r0
	b	.L594
.L588:
	ldr	r3, [r7, #4]
	mov	r0, r3
	bl	_ZNK2OT7IntTypeItLj2EEcvtEv(PLT)
	mov	r3, r0
	cmp	r3, #2
	beq	.L591
	cmp	r3, #3
	beq	.L592
	cmp	r3, #1
	bne	.L595
	ldr	r3, [r7, #4]
	mov	r0, r3
	ldr	r1, [r7]
	bl	_ZN2OT17CaretValueFormat18sanitizeEPNS_21hb_sanitize_context_tE(PLT)
	mov	r3, r0
	add	r2, r7, #12
	mov	r0, r2
	mov	r1, r3
	movs	r2, #185
	bl	_ZN15hb_auto_trace_tILi0EbE3retEbj(PLT)
	mov	r3, r0
	b	.L594
.L591:
	ldr	r3, [r7, #4]
	mov	r0, r3
	ldr	r1, [r7]
	bl	_ZN2OT17CaretValueFormat28sanitizeEPNS_21hb_sanitize_context_tE(PLT)
	mov	r3, r0
	add	r2, r7, #12
	mov	r0, r2
	mov	r1, r3
	movs	r2, #186
	bl	_ZN15hb_auto_trace_tILi0EbE3retEbj(PLT)
	mov	r3, r0
	b	.L594
.L592:
	ldr	r3, [r7, #4]
	mov	r0, r3
	ldr	r1, [r7]
	bl	_ZN2OT17CaretValueFormat38sanitizeEPNS_21hb_sanitize_context_tE(PLT)
	mov	r3, r0
	add	r2, r7, #12
	mov	r0, r2
	mov	r1, r3
	movs	r2, #187
	bl	_ZN15hb_auto_trace_tILi0EbE3retEbj(PLT)
	mov	r3, r0
	b	.L594
.L595:
	add	r3, r7, #12
	mov	r0, r3
	movs	r1, #1
	movs	r2, #188
	bl	_ZN15hb_auto_trace_tILi0EbE3retEbj(PLT)
	mov	r3, r0
.L594:
	mov	r0, r3
	adds	r7, r7, #20
	mov	sp, r7
	@ sp needed
	pop	{r4, r7, pc}
.L597:
	.align	2
.L596:
	.word	_ZZN2OT10CaretValue8sanitizeEPNS_21hb_sanitize_context_tEE19__PRETTY_FUNCTION__-(.LPIC68+4)
	.word	.LC16-(.LPIC69+4)
	.fnend
	.size	_ZN2OT10CaretValue8sanitizeEPNS_21hb_sanitize_context_tE, .-_ZN2OT10CaretValue8sanitizeEPNS_21hb_sanitize_context_tE
	.section	.text._ZNK2OT8LigGlyph14get_lig_caretsEP9hb_font_t14hb_direction_tjjPjPi,"axG",%progbits,_ZNK2OT8LigGlyph14get_lig_caretsEP9hb_font_t14hb_direction_tjjPjPi,comdat
	.align	2
	.weak	_ZNK2OT8LigGlyph14get_lig_caretsEP9hb_font_t14hb_direction_tjjPjPi
	.thumb
	.thumb_func
	.type	_ZNK2OT8LigGlyph14get_lig_caretsEP9hb_font_t14hb_direction_tjjPjPi, %function
_ZNK2OT8LigGlyph14get_lig_caretsEP9hb_font_t14hb_direction_tjjPjPi:
	.fnstart
.LFB469:
	@ args = 12, pretend = 0, frame = 32
	@ frame_needed = 1, uses_anonymous_args = 0
	push	{r4, r7, lr}
	.save {r4, r7, lr}
	.pad #36
	sub	sp, sp, #36
	.setfp r7, sp, #0
	add	r7, sp, #0
	str	r0, [r7, #12]
	str	r1, [r7, #8]
	str	r2, [r7, #4]
	str	r3, [r7]
	ldr	r3, [r7, #52]
	cmp	r3, #0
	beq	.L599
	ldr	r3, [r7, #12]
	mov	r0, r3
	ldr	r1, [r7, #48]
	ldr	r2, [r7, #52]
	bl	_ZNK2OT7ArrayOfINS_8OffsetToINS_10CaretValueENS_7IntTypeItLj2EEEEES4_E9sub_arrayEjPj(PLT)
	mov	r3, r0
	str	r3, [r7, #24]
	ldr	r3, [r7, #52]
	ldr	r3, [r3]
	str	r3, [r7, #20]
	movs	r3, #0
	str	r3, [r7, #28]
	b	.L600
.L601:
	ldr	r3, [r7, #28]
	lsls	r3, r3, #2
	ldr	r2, [r7, #56]
	adds	r4, r2, r3
	ldr	r3, [r7, #12]
	str	r3, [r7, #16]
	ldr	r3, [r7, #28]
	lsls	r3, r3, #1
	ldr	r2, [r7, #24]
	add	r3, r3, r2
	add	r2, r7, #16
	mov	r0, r2
	mov	r1, r3
	bl	_ZN2OTplIPKNS_8LigGlyphENS_7IntTypeItLj2EEENS_10CaretValueEEERKT1_RKT_RKNS_8OffsetToIS7_T0_EE(PLT)
	mov	r3, r0
	mov	r0, r3
	ldr	r1, [r7, #8]
	ldr	r2, [r7, #4]
	ldr	r3, [r7]
	bl	_ZNK2OT10CaretValue15get_caret_valueEP9hb_font_t14hb_direction_tj(PLT)
	mov	r3, r0
	str	r3, [r4]
	ldr	r3, [r7, #28]
	adds	r3, r3, #1
	str	r3, [r7, #28]
.L600:
	ldr	r2, [r7, #28]
	ldr	r3, [r7, #20]
	cmp	r2, r3
	bcc	.L601
.L599:
	ldr	r3, [r7, #12]
	mov	r0, r3
	bl	_ZNK2OT7IntTypeItLj2EEcvtEv(PLT)
	mov	r3, r0
	mov	r0, r3
	adds	r7, r7, #36
	mov	sp, r7
	@ sp needed
	pop	{r4, r7, pc}
	.fnend
	.size	_ZNK2OT8LigGlyph14get_lig_caretsEP9hb_font_t14hb_direction_tjjPjPi, .-_ZNK2OT8LigGlyph14get_lig_caretsEP9hb_font_t14hb_direction_tjjPjPi
	.section	.text._ZN2OT8LigGlyph8sanitizeEPNS_21hb_sanitize_context_tE,"axG",%progbits,_ZN2OT8LigGlyph8sanitizeEPNS_21hb_sanitize_context_tE,comdat
	.align	2
	.weak	_ZN2OT8LigGlyph8sanitizeEPNS_21hb_sanitize_context_tE
	.thumb
	.thumb_func
	.type	_ZN2OT8LigGlyph8sanitizeEPNS_21hb_sanitize_context_tE, %function
_ZN2OT8LigGlyph8sanitizeEPNS_21hb_sanitize_context_tE:
	.fnstart
.LFB470:
	@ args = 0, pretend = 0, frame = 16
	@ frame_needed = 1, uses_anonymous_args = 0
	push	{r4, r7, lr}
	.save {r4, r7, lr}
	.pad #28
	sub	sp, sp, #28
	.setfp r7, sp, #8
	add	r7, sp, #8
	str	r0, [r7, #4]
	str	r1, [r7]
	ldr	r4, [r7]
	ldr	r0, [r7]
	bl	_ZN2OT21hb_sanitize_context_t8get_nameEv(PLT)
	mov	r3, r0
	add	r2, r7, #12
	ldr	r1, .L605
.LPIC70:
	add	r1, pc
	str	r1, [sp]
	ldr	r1, .L605+4
.LPIC71:
	add	r1, pc
	str	r1, [sp, #4]
	mov	r0, r2
	mov	r1, r4
	mov	r2, r3
	ldr	r3, [r7, #4]
	bl	_ZN15hb_auto_trace_tILi0EbEC1EPjPKcPKvS3_S3_z(PLT)
	ldr	r3, [r7, #4]
	mov	r0, r3
	ldr	r1, [r7]
	ldr	r2, [r7, #4]
	bl	_ZN2OT7ArrayOfINS_8OffsetToINS_10CaretValueENS_7IntTypeItLj2EEEEES4_E8sanitizeEPNS_21hb_sanitize_context_tEPv(PLT)
	mov	r3, r0
	add	r2, r7, #12
	mov	r0, r2
	mov	r1, r3
	movs	r2, #224
	bl	_ZN15hb_auto_trace_tILi0EbE3retEbj(PLT)
	mov	r3, r0
	mov	r0, r3
	adds	r7, r7, #20
	mov	sp, r7
	@ sp needed
	pop	{r4, r7, pc}
.L606:
	.align	2
.L605:
	.word	_ZZN2OT8LigGlyph8sanitizeEPNS_21hb_sanitize_context_tEE19__PRETTY_FUNCTION__-(.LPIC70+4)
	.word	.LC16-(.LPIC71+4)
	.fnend
	.size	_ZN2OT8LigGlyph8sanitizeEPNS_21hb_sanitize_context_tE, .-_ZN2OT8LigGlyph8sanitizeEPNS_21hb_sanitize_context_tE
	.section	.text._ZNK2OT12LigCaretList14get_lig_caretsEP9hb_font_t14hb_direction_tjjPjPi,"axG",%progbits,_ZNK2OT12LigCaretList14get_lig_caretsEP9hb_font_t14hb_direction_tjjPjPi,comdat
	.align	2
	.weak	_ZNK2OT12LigCaretList14get_lig_caretsEP9hb_font_t14hb_direction_tjjPjPi
	.thumb
	.thumb_func
	.type	_ZNK2OT12LigCaretList14get_lig_caretsEP9hb_font_t14hb_direction_tjjPjPi, %function
_ZNK2OT12LigCaretList14get_lig_caretsEP9hb_font_t14hb_direction_tjjPjPi:
	.fnstart
.LFB473:
	@ args = 12, pretend = 0, frame = 32
	@ frame_needed = 1, uses_anonymous_args = 0
	push	{r7, lr}
	.save {r7, lr}
	.pad #48
	sub	sp, sp, #48
	.setfp r7, sp, #16
	add	r7, sp, #16
	str	r0, [r7, #12]
	str	r1, [r7, #8]
	str	r2, [r7, #4]
	str	r3, [r7]
	ldr	r3, [r7, #12]
	str	r3, [r7, #16]
	ldr	r3, [r7, #12]
	add	r2, r7, #16
	mov	r0, r2
	mov	r1, r3
	bl	_ZN2OTplIPKNS_12LigCaretListENS_7IntTypeItLj2EEENS_8CoverageEEERKT1_RKT_RKNS_8OffsetToIS7_T0_EE(PLT)
	mov	r3, r0
	mov	r0, r3
	ldr	r1, [r7]
	bl	_ZNK2OT8Coverage12get_coverageEj(PLT)
	mov	r3, r0
	str	r3, [r7, #28]
	ldr	r3, [r7, #28]
	cmp	r3, #-1
	bne	.L608
	ldr	r3, [r7, #44]
	cmp	r3, #0
	beq	.L609
	ldr	r3, [r7, #44]
	movs	r2, #0
	str	r2, [r3]
.L609:
	movs	r3, #0
	b	.L610
.L608:
	ldr	r3, [r7, #12]
	str	r3, [r7, #20]
	ldr	r3, [r7, #12]
	adds	r3, r3, #2
	mov	r0, r3
	ldr	r1, [r7, #28]
	bl	_ZNK2OT7ArrayOfINS_8OffsetToINS_8LigGlyphENS_7IntTypeItLj2EEEEES4_EixEj(PLT)
	mov	r3, r0
	add	r2, r7, #20
	mov	r0, r2
	mov	r1, r3
	bl	_ZN2OTplIPKNS_12LigCaretListENS_7IntTypeItLj2EEENS_8LigGlyphEEERKT1_RKT_RKNS_8OffsetToIS7_T0_EE(PLT)
	mov	r3, r0
	str	r3, [r7, #24]
	ldr	r3, [r7, #40]
	str	r3, [sp]
	ldr	r3, [r7, #44]
	str	r3, [sp, #4]
	ldr	r3, [r7, #48]
	str	r3, [sp, #8]
	ldr	r0, [r7, #24]
	ldr	r1, [r7, #8]
	ldr	r2, [r7, #4]
	ldr	r3, [r7]
	bl	_ZNK2OT8LigGlyph14get_lig_caretsEP9hb_font_t14hb_direction_tjjPjPi(PLT)
	mov	r3, r0
.L610:
	mov	r0, r3
	adds	r7, r7, #32
	mov	sp, r7
	@ sp needed
	pop	{r7, pc}
	.fnend
	.size	_ZNK2OT12LigCaretList14get_lig_caretsEP9hb_font_t14hb_direction_tjjPjPi, .-_ZNK2OT12LigCaretList14get_lig_caretsEP9hb_font_t14hb_direction_tjjPjPi
	.section	.text._ZN2OT12LigCaretList8sanitizeEPNS_21hb_sanitize_context_tE,"axG",%progbits,_ZN2OT12LigCaretList8sanitizeEPNS_21hb_sanitize_context_tE,comdat
	.align	2
	.weak	_ZN2OT12LigCaretList8sanitizeEPNS_21hb_sanitize_context_tE
	.thumb
	.thumb_func
	.type	_ZN2OT12LigCaretList8sanitizeEPNS_21hb_sanitize_context_tE, %function
_ZN2OT12LigCaretList8sanitizeEPNS_21hb_sanitize_context_tE:
	.fnstart
.LFB474:
	@ args = 0, pretend = 0, frame = 16
	@ frame_needed = 1, uses_anonymous_args = 0
	push	{r4, r7, lr}
	.save {r4, r7, lr}
	.pad #28
	sub	sp, sp, #28
	.setfp r7, sp, #8
	add	r7, sp, #8
	str	r0, [r7, #4]
	str	r1, [r7]
	ldr	r4, [r7]
	ldr	r0, [r7]
	bl	_ZN2OT21hb_sanitize_context_t8get_nameEv(PLT)
	mov	r3, r0
	add	r2, r7, #12
	ldr	r1, .L615
.LPIC72:
	add	r1, pc
	str	r1, [sp]
	ldr	r1, .L615+4
.LPIC73:
	add	r1, pc
	str	r1, [sp, #4]
	mov	r0, r2
	mov	r1, r4
	mov	r2, r3
	ldr	r3, [r7, #4]
	bl	_ZN15hb_auto_trace_tILi0EbEC1EPjPKcPKvS3_S3_z(PLT)
	ldr	r3, [r7, #4]
	mov	r0, r3
	ldr	r1, [r7]
	ldr	r2, [r7, #4]
	bl	_ZN2OT8OffsetToINS_8CoverageENS_7IntTypeItLj2EEEE8sanitizeEPNS_21hb_sanitize_context_tEPv(PLT)
	mov	r3, r0
	cmp	r3, #0
	beq	.L612
	ldr	r3, [r7, #4]
	adds	r3, r3, #2
	mov	r0, r3
	ldr	r1, [r7]
	ldr	r2, [r7, #4]
	bl	_ZN2OT7ArrayOfINS_8OffsetToINS_8LigGlyphENS_7IntTypeItLj2EEEEES4_E8sanitizeEPNS_21hb_sanitize_context_tEPv(PLT)
	mov	r3, r0
	cmp	r3, #0
	beq	.L612
	movs	r3, #1
	b	.L613
.L612:
	movs	r3, #0
.L613:
	add	r2, r7, #12
	mov	r0, r2
	mov	r1, r3
	mov	r2, #258
	bl	_ZN15hb_auto_trace_tILi0EbE3retEbj(PLT)
	mov	r3, r0
	mov	r0, r3
	adds	r7, r7, #20
	mov	sp, r7
	@ sp needed
	pop	{r4, r7, pc}
.L616:
	.align	2
.L615:
	.word	_ZZN2OT12LigCaretList8sanitizeEPNS_21hb_sanitize_context_tEE19__PRETTY_FUNCTION__-(.LPIC72+4)
	.word	.LC16-(.LPIC73+4)
	.fnend
	.size	_ZN2OT12LigCaretList8sanitizeEPNS_21hb_sanitize_context_tE, .-_ZN2OT12LigCaretList8sanitizeEPNS_21hb_sanitize_context_tE
	.section	.text._ZNK2OT20MarkGlyphSetsFormat16coversEjj,"axG",%progbits,_ZNK2OT20MarkGlyphSetsFormat16coversEjj,comdat
	.align	2
	.weak	_ZNK2OT20MarkGlyphSetsFormat16coversEjj
	.thumb
	.thumb_func
	.type	_ZNK2OT20MarkGlyphSetsFormat16coversEjj, %function
_ZNK2OT20MarkGlyphSetsFormat16coversEjj:
	.fnstart
.LFB477:
	@ args = 0, pretend = 0, frame = 24
	@ frame_needed = 1, uses_anonymous_args = 0
	push	{r7, lr}
	.save {r7, lr}
	.pad #24
	sub	sp, sp, #24
	.setfp r7, sp, #0
	add	r7, sp, #0
	str	r0, [r7, #12]
	str	r1, [r7, #8]
	str	r2, [r7, #4]
	ldr	r3, [r7, #12]
	str	r3, [r7, #20]
	ldr	r3, [r7, #12]
	adds	r3, r3, #2
	mov	r0, r3
	ldr	r1, [r7, #8]
	bl	_ZNK2OT7ArrayOfINS_8OffsetToINS_8CoverageENS_7IntTypeIjLj4EEEEENS3_ItLj2EEEEixEj(PLT)
	mov	r3, r0
	add	r2, r7, #20
	mov	r0, r2
	mov	r1, r3
	bl	_ZN2OTplIPKNS_20MarkGlyphSetsFormat1ENS_7IntTypeIjLj4EEENS_8CoverageEEERKT1_RKT_RKNS_8OffsetToIS7_T0_EE(PLT)
	mov	r3, r0
	mov	r0, r3
	ldr	r1, [r7, #4]
	bl	_ZNK2OT8Coverage12get_coverageEj(PLT)
	mov	r3, r0
	cmp	r3, #-1
	ite	ne
	movne	r3, #1
	moveq	r3, #0
	uxtb	r3, r3
	mov	r0, r3
	adds	r7, r7, #24
	mov	sp, r7
	@ sp needed
	pop	{r7, pc}
	.fnend
	.size	_ZNK2OT20MarkGlyphSetsFormat16coversEjj, .-_ZNK2OT20MarkGlyphSetsFormat16coversEjj
	.section	.text._ZN2OT20MarkGlyphSetsFormat18sanitizeEPNS_21hb_sanitize_context_tE,"axG",%progbits,_ZN2OT20MarkGlyphSetsFormat18sanitizeEPNS_21hb_sanitize_context_tE,comdat
	.align	2
	.weak	_ZN2OT20MarkGlyphSetsFormat18sanitizeEPNS_21hb_sanitize_context_tE
	.thumb
	.thumb_func
	.type	_ZN2OT20MarkGlyphSetsFormat18sanitizeEPNS_21hb_sanitize_context_tE, %function
_ZN2OT20MarkGlyphSetsFormat18sanitizeEPNS_21hb_sanitize_context_tE:
	.fnstart
.LFB478:
	@ args = 0, pretend = 0, frame = 16
	@ frame_needed = 1, uses_anonymous_args = 0
	push	{r4, r7, lr}
	.save {r4, r7, lr}
	.pad #28
	sub	sp, sp, #28
	.setfp r7, sp, #8
	add	r7, sp, #8
	str	r0, [r7, #4]
	str	r1, [r7]
	ldr	r4, [r7]
	ldr	r0, [r7]
	bl	_ZN2OT21hb_sanitize_context_t8get_nameEv(PLT)
	mov	r3, r0
	add	r2, r7, #12
	ldr	r1, .L621
.LPIC74:
	add	r1, pc
	str	r1, [sp]
	ldr	r1, .L621+4
.LPIC75:
	add	r1, pc
	str	r1, [sp, #4]
	mov	r0, r2
	mov	r1, r4
	mov	r2, r3
	ldr	r3, [r7, #4]
	bl	_ZN15hb_auto_trace_tILi0EbEC1EPjPKcPKvS3_S3_z(PLT)
	ldr	r3, [r7, #4]
	adds	r3, r3, #2
	mov	r0, r3
	ldr	r1, [r7]
	ldr	r2, [r7, #4]
	bl	_ZN2OT7ArrayOfINS_8OffsetToINS_8CoverageENS_7IntTypeIjLj4EEEEENS3_ItLj2EEEE8sanitizeEPNS_21hb_sanitize_context_tEPv(PLT)
	mov	r3, r0
	add	r2, r7, #12
	mov	r0, r2
	mov	r1, r3
	mov	r2, #280
	bl	_ZN15hb_auto_trace_tILi0EbE3retEbj(PLT)
	mov	r3, r0
	mov	r0, r3
	adds	r7, r7, #20
	mov	sp, r7
	@ sp needed
	pop	{r4, r7, pc}
.L622:
	.align	2
.L621:
	.word	_ZZN2OT20MarkGlyphSetsFormat18sanitizeEPNS_21hb_sanitize_context_tEE19__PRETTY_FUNCTION__-(.LPIC74+4)
	.word	.LC16-(.LPIC75+4)
	.fnend
	.size	_ZN2OT20MarkGlyphSetsFormat18sanitizeEPNS_21hb_sanitize_context_tE, .-_ZN2OT20MarkGlyphSetsFormat18sanitizeEPNS_21hb_sanitize_context_tE
	.section	.text._ZNK2OT13MarkGlyphSets6coversEjj,"axG",%progbits,_ZNK2OT13MarkGlyphSets6coversEjj,comdat
	.align	2
	.weak	_ZNK2OT13MarkGlyphSets6coversEjj
	.thumb
	.thumb_func
	.type	_ZNK2OT13MarkGlyphSets6coversEjj, %function
_ZNK2OT13MarkGlyphSets6coversEjj:
	.fnstart
.LFB481:
	@ args = 0, pretend = 0, frame = 16
	@ frame_needed = 1, uses_anonymous_args = 0
	push	{r7, lr}
	.save {r7, lr}
	.pad #16
	sub	sp, sp, #16
	.setfp r7, sp, #0
	add	r7, sp, #0
	str	r0, [r7, #12]
	str	r1, [r7, #8]
	str	r2, [r7, #4]
	ldr	r3, [r7, #12]
	mov	r0, r3
	bl	_ZNK2OT7IntTypeItLj2EEcvtEv(PLT)
	mov	r3, r0
	cmp	r3, #1
	bne	.L627
	ldr	r3, [r7, #12]
	mov	r0, r3
	ldr	r1, [r7, #8]
	ldr	r2, [r7, #4]
	bl	_ZNK2OT20MarkGlyphSetsFormat16coversEjj(PLT)
	mov	r3, r0
	b	.L626
.L627:
	movs	r3, #0
.L626:
	mov	r0, r3
	adds	r7, r7, #16
	mov	sp, r7
	@ sp needed
	pop	{r7, pc}
	.fnend
	.size	_ZNK2OT13MarkGlyphSets6coversEjj, .-_ZNK2OT13MarkGlyphSets6coversEjj
	.section	.text._ZN2OT13MarkGlyphSets8sanitizeEPNS_21hb_sanitize_context_tE,"axG",%progbits,_ZN2OT13MarkGlyphSets8sanitizeEPNS_21hb_sanitize_context_tE,comdat
	.align	2
	.weak	_ZN2OT13MarkGlyphSets8sanitizeEPNS_21hb_sanitize_context_tE
	.thumb
	.thumb_func
	.type	_ZN2OT13MarkGlyphSets8sanitizeEPNS_21hb_sanitize_context_tE, %function
_ZN2OT13MarkGlyphSets8sanitizeEPNS_21hb_sanitize_context_tE:
	.fnstart
.LFB482:
	@ args = 0, pretend = 0, frame = 16
	@ frame_needed = 1, uses_anonymous_args = 0
	push	{r4, r7, lr}
	.save {r4, r7, lr}
	.pad #28
	sub	sp, sp, #28
	.setfp r7, sp, #8
	add	r7, sp, #8
	str	r0, [r7, #4]
	str	r1, [r7]
	ldr	r4, [r7]
	ldr	r0, [r7]
	bl	_ZN2OT21hb_sanitize_context_t8get_nameEv(PLT)
	mov	r3, r0
	add	r2, r7, #12
	ldr	r1, .L635
.LPIC76:
	add	r1, pc
	str	r1, [sp]
	ldr	r1, .L635+4
.LPIC77:
	add	r1, pc
	str	r1, [sp, #4]
	mov	r0, r2
	mov	r1, r4
	mov	r2, r3
	ldr	r3, [r7, #4]
	bl	_ZN15hb_auto_trace_tILi0EbEC1EPjPKcPKvS3_S3_z(PLT)
	ldr	r3, [r7, #4]
	mov	r0, r3
	ldr	r1, [r7]
	bl	_ZN2OT7IntTypeItLj2EE8sanitizeEPNS_21hb_sanitize_context_tE(PLT)
	mov	r3, r0
	eor	r3, r3, #1
	uxtb	r3, r3
	cmp	r3, #0
	beq	.L629
	add	r3, r7, #12
	mov	r0, r3
	movs	r1, #0
	mov	r2, #304
	bl	_ZN15hb_auto_trace_tILi0EbE3retEbj(PLT)
	mov	r3, r0
	b	.L633
.L629:
	ldr	r3, [r7, #4]
	mov	r0, r3
	bl	_ZNK2OT7IntTypeItLj2EEcvtEv(PLT)
	mov	r3, r0
	cmp	r3, #1
	bne	.L634
	ldr	r3, [r7, #4]
	mov	r0, r3
	ldr	r1, [r7]
	bl	_ZN2OT20MarkGlyphSetsFormat18sanitizeEPNS_21hb_sanitize_context_tE(PLT)
	mov	r3, r0
	add	r2, r7, #12
	mov	r0, r2
	mov	r1, r3
	mov	r2, #306
	bl	_ZN15hb_auto_trace_tILi0EbE3retEbj(PLT)
	mov	r3, r0
	b	.L633
.L634:
	add	r3, r7, #12
	mov	r0, r3
	movs	r1, #1
	movw	r2, #307
	bl	_ZN15hb_auto_trace_tILi0EbE3retEbj(PLT)
	mov	r3, r0
.L633:
	mov	r0, r3
	adds	r7, r7, #20
	mov	sp, r7
	@ sp needed
	pop	{r4, r7, pc}
.L636:
	.align	2
.L635:
	.word	_ZZN2OT13MarkGlyphSets8sanitizeEPNS_21hb_sanitize_context_tEE19__PRETTY_FUNCTION__-(.LPIC76+4)
	.word	.LC16-(.LPIC77+4)
	.fnend
	.size	_ZN2OT13MarkGlyphSets8sanitizeEPNS_21hb_sanitize_context_tE, .-_ZN2OT13MarkGlyphSets8sanitizeEPNS_21hb_sanitize_context_tE
	.section	.text._ZNK2OT4GDEF17has_glyph_classesEv,"axG",%progbits,_ZNK2OT4GDEF17has_glyph_classesEv,comdat
	.align	2
	.weak	_ZNK2OT4GDEF17has_glyph_classesEv
	.thumb
	.thumb_func
	.type	_ZNK2OT4GDEF17has_glyph_classesEv, %function
_ZNK2OT4GDEF17has_glyph_classesEv:
	.fnstart
.LFB484:
	@ args = 0, pretend = 0, frame = 8
	@ frame_needed = 1, uses_anonymous_args = 0
	push	{r7, lr}
	.save {r7, lr}
	.pad #8
	sub	sp, sp, #8
	.setfp r7, sp, #0
	add	r7, sp, #0
	str	r0, [r7, #4]
	ldr	r3, [r7, #4]
	adds	r3, r3, #4
	mov	r0, r3
	bl	_ZNK2OT7IntTypeItLj2EEcvtEv(PLT)
	mov	r3, r0
	cmp	r3, #0
	ite	ne
	movne	r3, #1
	moveq	r3, #0
	uxtb	r3, r3
	mov	r0, r3
	adds	r7, r7, #8
	mov	sp, r7
	@ sp needed
	pop	{r7, pc}
	.fnend
	.size	_ZNK2OT4GDEF17has_glyph_classesEv, .-_ZNK2OT4GDEF17has_glyph_classesEv
	.section	.text._ZNK2OT4GDEF15get_glyph_classEj,"axG",%progbits,_ZNK2OT4GDEF15get_glyph_classEj,comdat
	.align	2
	.weak	_ZNK2OT4GDEF15get_glyph_classEj
	.thumb
	.thumb_func
	.type	_ZNK2OT4GDEF15get_glyph_classEj, %function
_ZNK2OT4GDEF15get_glyph_classEj:
	.fnstart
.LFB485:
	@ args = 0, pretend = 0, frame = 16
	@ frame_needed = 1, uses_anonymous_args = 0
	push	{r7, lr}
	.save {r7, lr}
	.pad #16
	sub	sp, sp, #16
	.setfp r7, sp, #0
	add	r7, sp, #0
	str	r0, [r7, #4]
	str	r1, [r7]
	ldr	r3, [r7, #4]
	str	r3, [r7, #12]
	ldr	r3, [r7, #4]
	adds	r3, r3, #4
	add	r2, r7, #12
	mov	r0, r2
	mov	r1, r3
	bl	_ZN2OTplIPKNS_4GDEFENS_7IntTypeItLj2EEENS_8ClassDefEEERKT1_RKT_RKNS_8OffsetToIS7_T0_EE(PLT)
	mov	r3, r0
	mov	r0, r3
	ldr	r1, [r7]
	bl	_ZNK2OT8ClassDef9get_classEj(PLT)
	mov	r3, r0
	mov	r0, r3
	adds	r7, r7, #16
	mov	sp, r7
	@ sp needed
	pop	{r7, pc}
	.fnend
	.size	_ZNK2OT4GDEF15get_glyph_classEj, .-_ZNK2OT4GDEF15get_glyph_classEj
	.section	.text._ZNK2OT4GDEF19get_glyphs_in_classEjP8hb_set_t,"axG",%progbits,_ZNK2OT4GDEF19get_glyphs_in_classEjP8hb_set_t,comdat
	.align	2
	.weak	_ZNK2OT4GDEF19get_glyphs_in_classEjP8hb_set_t
	.thumb
	.thumb_func
	.type	_ZNK2OT4GDEF19get_glyphs_in_classEjP8hb_set_t, %function
_ZNK2OT4GDEF19get_glyphs_in_classEjP8hb_set_t:
	.fnstart
.LFB486:
	@ args = 0, pretend = 0, frame = 24
	@ frame_needed = 1, uses_anonymous_args = 0
	push	{r7, lr}
	.save {r7, lr}
	.pad #24
	sub	sp, sp, #24
	.setfp r7, sp, #0
	add	r7, sp, #0
	str	r0, [r7, #12]
	str	r1, [r7, #8]
	str	r2, [r7, #4]
	ldr	r3, [r7, #12]
	str	r3, [r7, #20]
	ldr	r3, [r7, #12]
	adds	r3, r3, #4
	add	r2, r7, #20
	mov	r0, r2
	mov	r1, r3
	bl	_ZN2OTplIPKNS_4GDEFENS_7IntTypeItLj2EEENS_8ClassDefEEERKT1_RKT_RKNS_8OffsetToIS7_T0_EE(PLT)
	mov	r3, r0
	mov	r0, r3
	ldr	r1, [r7, #4]
	ldr	r2, [r7, #8]
	bl	_ZNK2OT8ClassDef9add_classEP8hb_set_tj(PLT)
	adds	r7, r7, #24
	mov	sp, r7
	@ sp needed
	pop	{r7, pc}
	.fnend
	.size	_ZNK2OT4GDEF19get_glyphs_in_classEjP8hb_set_t, .-_ZNK2OT4GDEF19get_glyphs_in_classEjP8hb_set_t
	.section	.text._ZNK2OT4GDEF24get_mark_attachment_typeEj,"axG",%progbits,_ZNK2OT4GDEF24get_mark_attachment_typeEj,comdat
	.align	2
	.weak	_ZNK2OT4GDEF24get_mark_attachment_typeEj
	.thumb
	.thumb_func
	.type	_ZNK2OT4GDEF24get_mark_attachment_typeEj, %function
_ZNK2OT4GDEF24get_mark_attachment_typeEj:
	.fnstart
.LFB488:
	@ args = 0, pretend = 0, frame = 16
	@ frame_needed = 1, uses_anonymous_args = 0
	push	{r7, lr}
	.save {r7, lr}
	.pad #16
	sub	sp, sp, #16
	.setfp r7, sp, #0
	add	r7, sp, #0
	str	r0, [r7, #4]
	str	r1, [r7]
	ldr	r3, [r7, #4]
	str	r3, [r7, #12]
	ldr	r3, [r7, #4]
	adds	r3, r3, #10
	add	r2, r7, #12
	mov	r0, r2
	mov	r1, r3
	bl	_ZN2OTplIPKNS_4GDEFENS_7IntTypeItLj2EEENS_8ClassDefEEERKT1_RKT_RKNS_8OffsetToIS7_T0_EE(PLT)
	mov	r3, r0
	mov	r0, r3
	ldr	r1, [r7]
	bl	_ZNK2OT8ClassDef9get_classEj(PLT)
	mov	r3, r0
	mov	r0, r3
	adds	r7, r7, #16
	mov	sp, r7
	@ sp needed
	pop	{r7, pc}
	.fnend
	.size	_ZNK2OT4GDEF24get_mark_attachment_typeEj, .-_ZNK2OT4GDEF24get_mark_attachment_typeEj
	.section	.text._ZNK2OT4GDEF17get_attach_pointsEjjPjS1_,"axG",%progbits,_ZNK2OT4GDEF17get_attach_pointsEjjPjS1_,comdat
	.align	2
	.weak	_ZNK2OT4GDEF17get_attach_pointsEjjPjS1_
	.thumb
	.thumb_func
	.type	_ZNK2OT4GDEF17get_attach_pointsEjjPjS1_, %function
_ZNK2OT4GDEF17get_attach_pointsEjjPjS1_:
	.fnstart
.LFB490:
	@ args = 4, pretend = 0, frame = 24
	@ frame_needed = 1, uses_anonymous_args = 0
	push	{r7, lr}
	.save {r7, lr}
	.pad #32
	sub	sp, sp, #32
	.setfp r7, sp, #8
	add	r7, sp, #8
	str	r0, [r7, #12]
	str	r1, [r7, #8]
	str	r2, [r7, #4]
	str	r3, [r7]
	ldr	r3, [r7, #12]
	str	r3, [r7, #20]
	ldr	r3, [r7, #12]
	adds	r3, r3, #6
	add	r2, r7, #20
	mov	r0, r2
	mov	r1, r3
	bl	_ZN2OTplIPKNS_4GDEFENS_7IntTypeItLj2EEENS_10AttachListEEERKT1_RKT_RKNS_8OffsetToIS7_T0_EE(PLT)
	mov	r3, r0
	ldr	r2, [r7, #32]
	str	r2, [sp]
	mov	r0, r3
	ldr	r1, [r7, #8]
	ldr	r2, [r7, #4]
	ldr	r3, [r7]
	bl	_ZNK2OT10AttachList17get_attach_pointsEjjPjS1_(PLT)
	mov	r3, r0
	mov	r0, r3
	adds	r7, r7, #24
	mov	sp, r7
	@ sp needed
	pop	{r7, pc}
	.fnend
	.size	_ZNK2OT4GDEF17get_attach_pointsEjjPjS1_, .-_ZNK2OT4GDEF17get_attach_pointsEjjPjS1_
	.section	.text._ZNK2OT4GDEF14get_lig_caretsEP9hb_font_t14hb_direction_tjjPjPi,"axG",%progbits,_ZNK2OT4GDEF14get_lig_caretsEP9hb_font_t14hb_direction_tjjPjPi,comdat
	.align	2
	.weak	_ZNK2OT4GDEF14get_lig_caretsEP9hb_font_t14hb_direction_tjjPjPi
	.thumb
	.thumb_func
	.type	_ZNK2OT4GDEF14get_lig_caretsEP9hb_font_t14hb_direction_tjjPjPi, %function
_ZNK2OT4GDEF14get_lig_caretsEP9hb_font_t14hb_direction_tjjPjPi:
	.fnstart
.LFB492:
	@ args = 12, pretend = 0, frame = 24
	@ frame_needed = 1, uses_anonymous_args = 0
	push	{r7, lr}
	.save {r7, lr}
	.pad #40
	sub	sp, sp, #40
	.setfp r7, sp, #16
	add	r7, sp, #16
	str	r0, [r7, #12]
	str	r1, [r7, #8]
	str	r2, [r7, #4]
	str	r3, [r7]
	ldr	r3, [r7, #12]
	str	r3, [r7, #20]
	ldr	r3, [r7, #12]
	adds	r3, r3, #8
	add	r2, r7, #20
	mov	r0, r2
	mov	r1, r3
	bl	_ZN2OTplIPKNS_4GDEFENS_7IntTypeItLj2EEENS_12LigCaretListEEERKT1_RKT_RKNS_8OffsetToIS7_T0_EE(PLT)
	mov	r3, r0
	ldr	r2, [r7, #32]
	str	r2, [sp]
	ldr	r2, [r7, #36]
	str	r2, [sp, #4]
	ldr	r2, [r7, #40]
	str	r2, [sp, #8]
	mov	r0, r3
	ldr	r1, [r7, #8]
	ldr	r2, [r7, #4]
	ldr	r3, [r7]
	bl	_ZNK2OT12LigCaretList14get_lig_caretsEP9hb_font_t14hb_direction_tjjPjPi(PLT)
	mov	r3, r0
	mov	r0, r3
	adds	r7, r7, #24
	mov	sp, r7
	@ sp needed
	pop	{r7, pc}
	.fnend
	.size	_ZNK2OT4GDEF14get_lig_caretsEP9hb_font_t14hb_direction_tjjPjPi, .-_ZNK2OT4GDEF14get_lig_caretsEP9hb_font_t14hb_direction_tjjPjPi
	.section	.text._ZNK2OT4GDEF15mark_set_coversEjj,"axG",%progbits,_ZNK2OT4GDEF15mark_set_coversEjj,comdat
	.align	2
	.weak	_ZNK2OT4GDEF15mark_set_coversEjj
	.thumb
	.thumb_func
	.type	_ZNK2OT4GDEF15mark_set_coversEjj, %function
_ZNK2OT4GDEF15mark_set_coversEjj:
	.fnstart
.LFB494:
	@ args = 0, pretend = 0, frame = 24
	@ frame_needed = 1, uses_anonymous_args = 0
	push	{r4, r7, lr}
	.save {r4, r7, lr}
	.pad #28
	sub	sp, sp, #28
	.setfp r7, sp, #0
	add	r7, sp, #0
	str	r0, [r7, #12]
	str	r1, [r7, #8]
	str	r2, [r7, #4]
	movs	r4, #0
	ldr	r3, [r7, #12]
	mov	r0, r3
.LEHB2:
	bl	_ZNK2OT12FixedVersion6to_intEv(PLT)
	mov	r3, r0
	cmp	r3, #65537
	bls	.L649
	ldr	r3, [r7, #12]
	str	r3, [r7, #20]
	movs	r4, #1
	ldr	r3, [r7, #12]
	adds	r3, r3, #12
	add	r2, r7, #20
	mov	r0, r2
	mov	r1, r3
	bl	_ZN2OTplIPKNS_4GDEFENS_7IntTypeItLj2EEENS_13MarkGlyphSetsEEERKT1_RKT_RKNS_8OffsetToIS7_T0_EE(PLT)
	mov	r3, r0
	mov	r0, r3
	ldr	r1, [r7, #8]
	ldr	r2, [r7, #4]
	bl	_ZNK2OT13MarkGlyphSets6coversEjj(PLT)
.LEHE2:
	mov	r3, r0
	cmp	r3, #0
	beq	.L649
	movs	r3, #1
	b	.L650
.L649:
	movs	r3, #0
.L650:
	cmp	r4, #0
	b	.L656
.L655:
	cmp	r4, #0
	nop
.LEHB3:
	bl	__cxa_end_cleanup(PLT)
.LEHE3:
.L656:
	mov	r0, r3
	adds	r7, r7, #28
	mov	sp, r7
	@ sp needed
	pop	{r4, r7, pc}
	.personality	__gxx_personality_v0
	.handlerdata
.LLSDA494:
	.byte	0xff
	.byte	0xff
	.byte	0x1
	.uleb128 .LLSDACSE494-.LLSDACSB494
.LLSDACSB494:
	.uleb128 .LEHB2-.LFB494
	.uleb128 .LEHE2-.LEHB2
	.uleb128 .L655-.LFB494
	.uleb128 0
	.uleb128 .LEHB3-.LFB494
	.uleb128 .LEHE3-.LEHB3
	.uleb128 0
	.uleb128 0
.LLSDACSE494:
	.section	.text._ZNK2OT4GDEF15mark_set_coversEjj,"axG",%progbits,_ZNK2OT4GDEF15mark_set_coversEjj,comdat
	.fnend
	.size	_ZNK2OT4GDEF15mark_set_coversEjj, .-_ZNK2OT4GDEF15mark_set_coversEjj
	.section	.text._ZN2OT4GDEF8sanitizeEPNS_21hb_sanitize_context_tE,"axG",%progbits,_ZN2OT4GDEF8sanitizeEPNS_21hb_sanitize_context_tE,comdat
	.align	2
	.weak	_ZN2OT4GDEF8sanitizeEPNS_21hb_sanitize_context_tE
	.thumb
	.thumb_func
	.type	_ZN2OT4GDEF8sanitizeEPNS_21hb_sanitize_context_tE, %function
_ZN2OT4GDEF8sanitizeEPNS_21hb_sanitize_context_tE:
	.fnstart
.LFB495:
	@ args = 0, pretend = 0, frame = 16
	@ frame_needed = 1, uses_anonymous_args = 0
	push	{r4, r7, lr}
	.save {r4, r7, lr}
	.pad #28
	sub	sp, sp, #28
	.setfp r7, sp, #8
	add	r7, sp, #8
	str	r0, [r7, #4]
	str	r1, [r7]
	ldr	r4, [r7]
	ldr	r0, [r7]
	bl	_ZN2OT21hb_sanitize_context_t8get_nameEv(PLT)
	mov	r3, r0
	add	r2, r7, #12
	ldr	r1, .L662
.LPIC78:
	add	r1, pc
	str	r1, [sp]
	ldr	r1, .L662+4
.LPIC79:
	add	r1, pc
	str	r1, [sp, #4]
	mov	r0, r2
	mov	r1, r4
	mov	r2, r3
	ldr	r3, [r7, #4]
	bl	_ZN15hb_auto_trace_tILi0EbEC1EPjPKcPKvS3_S3_z(PLT)
	ldr	r3, [r7, #4]
	mov	r0, r3
	ldr	r1, [r7]
	bl	_ZN2OT12FixedVersion8sanitizeEPNS_21hb_sanitize_context_tE(PLT)
	mov	r3, r0
	cmp	r3, #0
	beq	.L658
	ldr	r3, [r7, #4]
	mov	r0, r3
	bl	_ZNK2OT7IntTypeItLj2EEcvtEv(PLT)
	mov	r3, r0
	cmp	r3, #1
	bne	.L658
	ldr	r3, [r7, #4]
	adds	r3, r3, #4
	mov	r0, r3
	ldr	r1, [r7]
	ldr	r2, [r7, #4]
	bl	_ZN2OT8OffsetToINS_8ClassDefENS_7IntTypeItLj2EEEE8sanitizeEPNS_21hb_sanitize_context_tEPv(PLT)
	mov	r3, r0
	cmp	r3, #0
	beq	.L658
	ldr	r3, [r7, #4]
	adds	r3, r3, #6
	mov	r0, r3
	ldr	r1, [r7]
	ldr	r2, [r7, #4]
	bl	_ZN2OT8OffsetToINS_10AttachListENS_7IntTypeItLj2EEEE8sanitizeEPNS_21hb_sanitize_context_tEPv(PLT)
	mov	r3, r0
	cmp	r3, #0
	beq	.L658
	ldr	r3, [r7, #4]
	adds	r3, r3, #8
	mov	r0, r3
	ldr	r1, [r7]
	ldr	r2, [r7, #4]
	bl	_ZN2OT8OffsetToINS_12LigCaretListENS_7IntTypeItLj2EEEE8sanitizeEPNS_21hb_sanitize_context_tEPv(PLT)
	mov	r3, r0
	cmp	r3, #0
	beq	.L658
	ldr	r3, [r7, #4]
	adds	r3, r3, #10
	mov	r0, r3
	ldr	r1, [r7]
	ldr	r2, [r7, #4]
	bl	_ZN2OT8OffsetToINS_8ClassDefENS_7IntTypeItLj2EEEE8sanitizeEPNS_21hb_sanitize_context_tEPv(PLT)
	mov	r3, r0
	cmp	r3, #0
	beq	.L658
	ldr	r3, [r7, #4]
	mov	r0, r3
	bl	_ZNK2OT12FixedVersion6to_intEv(PLT)
	mov	r3, r0
	cmp	r3, #65537
	bls	.L659
	ldr	r3, [r7, #4]
	adds	r3, r3, #12
	mov	r0, r3
	ldr	r1, [r7]
	ldr	r2, [r7, #4]
	bl	_ZN2OT8OffsetToINS_13MarkGlyphSetsENS_7IntTypeItLj2EEEE8sanitizeEPNS_21hb_sanitize_context_tEPv(PLT)
	mov	r3, r0
	cmp	r3, #0
	beq	.L658
.L659:
	movs	r3, #1
	b	.L660
.L658:
	movs	r3, #0
.L660:
	add	r2, r7, #12
	mov	r0, r2
	mov	r1, r3
	movw	r2, #375
	bl	_ZN15hb_auto_trace_tILi0EbE3retEbj(PLT)
	mov	r3, r0
	mov	r0, r3
	adds	r7, r7, #20
	mov	sp, r7
	@ sp needed
	pop	{r4, r7, pc}
.L663:
	.align	2
.L662:
	.word	_ZZN2OT4GDEF8sanitizeEPNS_21hb_sanitize_context_tEE19__PRETTY_FUNCTION__-(.LPIC78+4)
	.word	.LC16-(.LPIC79+4)
	.fnend
	.size	_ZN2OT4GDEF8sanitizeEPNS_21hb_sanitize_context_tE, .-_ZN2OT4GDEF8sanitizeEPNS_21hb_sanitize_context_tE
	.section	.text._ZNK2OT4GDEF15get_glyph_propsEj,"axG",%progbits,_ZNK2OT4GDEF15get_glyph_propsEj,comdat
	.align	2
	.weak	_ZNK2OT4GDEF15get_glyph_propsEj
	.thumb
	.thumb_func
	.type	_ZNK2OT4GDEF15get_glyph_propsEj, %function
_ZNK2OT4GDEF15get_glyph_propsEj:
	.fnstart
.LFB496:
	@ args = 0, pretend = 0, frame = 16
	@ frame_needed = 1, uses_anonymous_args = 0
	push	{r7, lr}
	.save {r7, lr}
	.pad #16
	sub	sp, sp, #16
	.setfp r7, sp, #0
	add	r7, sp, #0
	str	r0, [r7, #4]
	str	r1, [r7]
	ldr	r0, [r7, #4]
	ldr	r1, [r7]
	bl	_ZNK2OT4GDEF15get_glyph_classEj(PLT)
	mov	r3, r0
	str	r3, [r7, #12]
	ldr	r3, [r7, #12]
	cmp	r3, #2
	beq	.L666
	cmp	r3, #3
	beq	.L667
	cmp	r3, #1
	beq	.L668
	movs	r3, #0
	b	.L669
.L668:
	movs	r3, #2
	b	.L669
.L666:
	movs	r3, #4
	b	.L669
.L667:
	ldr	r0, [r7, #4]
	ldr	r1, [r7]
	bl	_ZNK2OT4GDEF24get_mark_attachment_typeEj(PLT)
	mov	r3, r0
	str	r3, [r7, #12]
	ldr	r3, [r7, #12]
	lsls	r3, r3, #8
	orr	r3, r3, #8
.L669:
	mov	r0, r3
	adds	r7, r7, #16
	mov	sp, r7
	@ sp needed
	pop	{r7, pc}
	.fnend
	.size	_ZNK2OT4GDEF15get_glyph_propsEj, .-_ZNK2OT4GDEF15get_glyph_propsEj
	.section	.rodata
	.align	2
.LC17:
	.ascii	"CLOSURE\000"
	.section	.text._ZN2OT20hb_closure_context_t8get_nameEv,"axG",%progbits,_ZN2OT20hb_closure_context_t8get_nameEv,comdat
	.align	2
	.weak	_ZN2OT20hb_closure_context_t8get_nameEv
	.thumb
	.thumb_func
	.type	_ZN2OT20hb_closure_context_t8get_nameEv, %function
_ZN2OT20hb_closure_context_t8get_nameEv:
	.fnstart
.LFB499:
	@ args = 0, pretend = 0, frame = 8
	@ frame_needed = 1, uses_anonymous_args = 0
	@ link register save eliminated.
	push	{r7}
	sub	sp, sp, #12
	add	r7, sp, #0
	str	r0, [r7, #4]
	ldr	r3, .L672
.LPIC80:
	add	r3, pc
	mov	r0, r3
	adds	r7, r7, #12
	mov	sp, r7
	@ sp needed
	ldr	r7, [sp], #4
	bx	lr
.L673:
	.align	2
.L672:
	.word	.LC17-(.LPIC80+4)
	.cantunwind
	.fnend
	.size	_ZN2OT20hb_closure_context_t8get_nameEv, .-_ZN2OT20hb_closure_context_t8get_nameEv
	.section	.text._ZN2OT20hb_closure_context_t20default_return_valueEv,"axG",%progbits,_ZN2OT20hb_closure_context_t20default_return_valueEv,comdat
	.align	2
	.weak	_ZN2OT20hb_closure_context_t20default_return_valueEv
	.thumb
	.thumb_func
	.type	_ZN2OT20hb_closure_context_t20default_return_valueEv, %function
_ZN2OT20hb_closure_context_t20default_return_valueEv:
	.fnstart
.LFB501:
	@ args = 0, pretend = 0, frame = 0
	@ frame_needed = 1, uses_anonymous_args = 0
	@ link register save eliminated.
	push	{r7}
	add	r7, sp, #0
	movs	r3, #0
	mov	r0, r3
	mov	sp, r7
	@ sp needed
	ldr	r7, [sp], #4
	bx	lr
	.cantunwind
	.fnend
	.size	_ZN2OT20hb_closure_context_t20default_return_valueEv, .-_ZN2OT20hb_closure_context_t20default_return_valueEv
	.section	.text._ZNK2OT20hb_closure_context_t24stop_sublookup_iterationERK10_hb_void_t,"axG",%progbits,_ZNK2OT20hb_closure_context_t24stop_sublookup_iterationERK10_hb_void_t,comdat
	.align	2
	.weak	_ZNK2OT20hb_closure_context_t24stop_sublookup_iterationERK10_hb_void_t
	.thumb
	.thumb_func
	.type	_ZNK2OT20hb_closure_context_t24stop_sublookup_iterationERK10_hb_void_t, %function
_ZNK2OT20hb_closure_context_t24stop_sublookup_iterationERK10_hb_void_t:
	.fnstart
.LFB502:
	@ args = 0, pretend = 0, frame = 8
	@ frame_needed = 1, uses_anonymous_args = 0
	@ link register save eliminated.
	push	{r7}
	sub	sp, sp, #12
	add	r7, sp, #0
	str	r0, [r7, #4]
	str	r1, [r7]
	movs	r3, #0
	mov	r0, r3
	adds	r7, r7, #12
	mov	sp, r7
	@ sp needed
	ldr	r7, [sp], #4
	bx	lr
	.cantunwind
	.fnend
	.size	_ZNK2OT20hb_closure_context_t24stop_sublookup_iterationERK10_hb_void_t, .-_ZNK2OT20hb_closure_context_t24stop_sublookup_iterationERK10_hb_void_t
	.section	.text._ZN2OT20hb_closure_context_t7recurseEj,"axG",%progbits,_ZN2OT20hb_closure_context_t7recurseEj,comdat
	.align	2
	.weak	_ZN2OT20hb_closure_context_t7recurseEj
	.thumb
	.thumb_func
	.type	_ZN2OT20hb_closure_context_t7recurseEj, %function
_ZN2OT20hb_closure_context_t7recurseEj:
	.fnstart
.LFB503:
	@ args = 0, pretend = 0, frame = 8
	@ frame_needed = 1, uses_anonymous_args = 0
	push	{r7, lr}
	.save {r7, lr}
	.pad #8
	sub	sp, sp, #8
	.setfp r7, sp, #0
	add	r7, sp, #0
	str	r0, [r7, #4]
	str	r1, [r7]
	ldr	r3, [r7, #4]
	ldr	r3, [r3, #12]
	cmp	r3, #0
	beq	.L679
	ldr	r3, [r7, #4]
	ldr	r3, [r3, #8]
	cmp	r3, #0
	bne	.L680
.L679:
	bl	_ZN2OT20hb_closure_context_t20default_return_valueEv(PLT)
	mov	r3, r0
	b	.L681
.L680:
	ldr	r3, [r7, #4]
	ldr	r3, [r3, #12]
	subs	r2, r3, #1
	ldr	r3, [r7, #4]
	str	r2, [r3, #12]
	ldr	r3, [r7, #4]
	ldr	r3, [r3, #8]
	ldr	r0, [r7, #4]
	ldr	r1, [r7]
	blx	r3
	ldr	r3, [r7, #4]
	ldr	r3, [r3, #12]
	adds	r2, r3, #1
	ldr	r3, [r7, #4]
	str	r2, [r3, #12]
	movs	r3, #0
.L681:
	mov	r0, r3
	adds	r7, r7, #8
	mov	sp, r7
	@ sp needed
	pop	{r7, pc}
	.fnend
	.size	_ZN2OT20hb_closure_context_t7recurseEj, .-_ZN2OT20hb_closure_context_t7recurseEj
	.section	.text._ZN2OT20hb_closure_context_tC2EP9hb_face_tP8hb_set_tj,"axG",%progbits,_ZN2OT20hb_closure_context_tC5EP9hb_face_tP8hb_set_tj,comdat
	.align	2
	.weak	_ZN2OT20hb_closure_context_tC2EP9hb_face_tP8hb_set_tj
	.thumb
	.thumb_func
	.type	_ZN2OT20hb_closure_context_tC2EP9hb_face_tP8hb_set_tj, %function
_ZN2OT20hb_closure_context_tC2EP9hb_face_tP8hb_set_tj:
	.fnstart
.LFB505:
	@ args = 0, pretend = 0, frame = 16
	@ frame_needed = 1, uses_anonymous_args = 0
	@ link register save eliminated.
	push	{r7}
	sub	sp, sp, #20
	add	r7, sp, #0
	str	r0, [r7, #12]
	str	r1, [r7, #8]
	str	r2, [r7, #4]
	str	r3, [r7]
	ldr	r3, [r7, #12]
	ldr	r2, [r7, #8]
	str	r2, [r3]
	ldr	r3, [r7, #12]
	ldr	r2, [r7, #4]
	str	r2, [r3, #4]
	ldr	r3, [r7, #12]
	movs	r2, #0
	str	r2, [r3, #8]
	ldr	r3, [r7, #12]
	ldr	r2, [r7]
	str	r2, [r3, #12]
	ldr	r3, [r7, #12]
	movs	r2, #0
	str	r2, [r3, #16]
	ldr	r3, [r7, #12]
	mov	r0, r3
	adds	r7, r7, #20
	mov	sp, r7
	@ sp needed
	ldr	r7, [sp], #4
	bx	lr
	.cantunwind
	.fnend
	.size	_ZN2OT20hb_closure_context_tC2EP9hb_face_tP8hb_set_tj, .-_ZN2OT20hb_closure_context_tC2EP9hb_face_tP8hb_set_tj
	.weak	_ZN2OT20hb_closure_context_tC1EP9hb_face_tP8hb_set_tj
	.thumb_set _ZN2OT20hb_closure_context_tC1EP9hb_face_tP8hb_set_tj,_ZN2OT20hb_closure_context_tC2EP9hb_face_tP8hb_set_tj
	.section	.text._ZN2OT20hb_closure_context_t16set_recurse_funcEPFRK10_hb_void_tPS0_jE,"axG",%progbits,_ZN2OT20hb_closure_context_t16set_recurse_funcEPFRK10_hb_void_tPS0_jE,comdat
	.align	2
	.weak	_ZN2OT20hb_closure_context_t16set_recurse_funcEPFRK10_hb_void_tPS0_jE
	.thumb
	.thumb_func
	.type	_ZN2OT20hb_closure_context_t16set_recurse_funcEPFRK10_hb_void_tPS0_jE, %function
_ZN2OT20hb_closure_context_t16set_recurse_funcEPFRK10_hb_void_tPS0_jE:
	.fnstart
.LFB507:
	@ args = 0, pretend = 0, frame = 8
	@ frame_needed = 1, uses_anonymous_args = 0
	@ link register save eliminated.
	push	{r7}
	sub	sp, sp, #12
	add	r7, sp, #0
	str	r0, [r7, #4]
	str	r1, [r7]
	ldr	r3, [r7, #4]
	ldr	r2, [r7]
	str	r2, [r3, #8]
	adds	r7, r7, #12
	mov	sp, r7
	@ sp needed
	ldr	r7, [sp], #4
	bx	lr
	.cantunwind
	.fnend
	.size	_ZN2OT20hb_closure_context_t16set_recurse_funcEPFRK10_hb_void_tPS0_jE, .-_ZN2OT20hb_closure_context_t16set_recurse_funcEPFRK10_hb_void_tPS0_jE
	.section	.rodata
	.align	2
.LC18:
	.ascii	"WOULD_APPLY\000"
	.section	.text._ZN2OT24hb_would_apply_context_t8get_nameEv,"axG",%progbits,_ZN2OT24hb_would_apply_context_t8get_nameEv,comdat
	.align	2
	.weak	_ZN2OT24hb_would_apply_context_t8get_nameEv
	.thumb
	.thumb_func
	.type	_ZN2OT24hb_would_apply_context_t8get_nameEv, %function
_ZN2OT24hb_would_apply_context_t8get_nameEv:
	.fnstart
.LFB508:
	@ args = 0, pretend = 0, frame = 8
	@ frame_needed = 1, uses_anonymous_args = 0
	@ link register save eliminated.
	push	{r7}
	sub	sp, sp, #12
	add	r7, sp, #0
	str	r0, [r7, #4]
	ldr	r3, .L688
.LPIC81:
	add	r3, pc
	mov	r0, r3
	adds	r7, r7, #12
	mov	sp, r7
	@ sp needed
	ldr	r7, [sp], #4
	bx	lr
.L689:
	.align	2
.L688:
	.word	.LC18-(.LPIC81+4)
	.cantunwind
	.fnend
	.size	_ZN2OT24hb_would_apply_context_t8get_nameEv, .-_ZN2OT24hb_would_apply_context_t8get_nameEv
	.section	.text._ZN2OT24hb_would_apply_context_t20default_return_valueEv,"axG",%progbits,_ZN2OT24hb_would_apply_context_t20default_return_valueEv,comdat
	.align	2
	.weak	_ZN2OT24hb_would_apply_context_t20default_return_valueEv
	.thumb
	.thumb_func
	.type	_ZN2OT24hb_would_apply_context_t20default_return_valueEv, %function
_ZN2OT24hb_would_apply_context_t20default_return_valueEv:
	.fnstart
.LFB510:
	@ args = 0, pretend = 0, frame = 0
	@ frame_needed = 1, uses_anonymous_args = 0
	@ link register save eliminated.
	push	{r7}
	add	r7, sp, #0
	movs	r3, #0
	mov	r0, r3
	mov	sp, r7
	@ sp needed
	ldr	r7, [sp], #4
	bx	lr
	.cantunwind
	.fnend
	.size	_ZN2OT24hb_would_apply_context_t20default_return_valueEv, .-_ZN2OT24hb_would_apply_context_t20default_return_valueEv
	.section	.text._ZNK2OT24hb_would_apply_context_t24stop_sublookup_iterationEb,"axG",%progbits,_ZNK2OT24hb_would_apply_context_t24stop_sublookup_iterationEb,comdat
	.align	2
	.weak	_ZNK2OT24hb_would_apply_context_t24stop_sublookup_iterationEb
	.thumb
	.thumb_func
	.type	_ZNK2OT24hb_would_apply_context_t24stop_sublookup_iterationEb, %function
_ZNK2OT24hb_would_apply_context_t24stop_sublookup_iterationEb:
	.fnstart
.LFB511:
	@ args = 0, pretend = 0, frame = 8
	@ frame_needed = 1, uses_anonymous_args = 0
	@ link register save eliminated.
	push	{r7}
	sub	sp, sp, #12
	add	r7, sp, #0
	str	r0, [r7, #4]
	mov	r3, r1
	strb	r3, [r7, #3]
	ldrb	r3, [r7, #3]	@ zero_extendqisi2
	mov	r0, r3
	adds	r7, r7, #12
	mov	sp, r7
	@ sp needed
	ldr	r7, [sp], #4
	bx	lr
	.cantunwind
	.fnend
	.size	_ZNK2OT24hb_would_apply_context_t24stop_sublookup_iterationEb, .-_ZNK2OT24hb_would_apply_context_t24stop_sublookup_iterationEb
	.section	.text._ZN2OT24hb_would_apply_context_tC2EP9hb_face_tPKjjb,"axG",%progbits,_ZN2OT24hb_would_apply_context_tC5EP9hb_face_tPKjjb,comdat
	.align	2
	.weak	_ZN2OT24hb_would_apply_context_tC2EP9hb_face_tPKjjb
	.thumb
	.thumb_func
	.type	_ZN2OT24hb_would_apply_context_tC2EP9hb_face_tPKjjb, %function
_ZN2OT24hb_would_apply_context_tC2EP9hb_face_tPKjjb:
	.fnstart
.LFB513:
	@ args = 4, pretend = 0, frame = 16
	@ frame_needed = 1, uses_anonymous_args = 0
	@ link register save eliminated.
	push	{r7}
	sub	sp, sp, #20
	add	r7, sp, #0
	str	r0, [r7, #12]
	str	r1, [r7, #8]
	str	r2, [r7, #4]
	str	r3, [r7]
	ldr	r3, [r7, #12]
	ldr	r2, [r7, #8]
	str	r2, [r3]
	ldr	r3, [r7, #12]
	ldr	r2, [r7, #4]
	str	r2, [r3, #4]
	ldr	r3, [r7, #12]
	ldr	r2, [r7]
	str	r2, [r3, #8]
	ldr	r3, [r7, #12]
	ldrb	r2, [r7, #24]
	strb	r2, [r3, #12]
	ldr	r3, [r7, #12]
	movs	r2, #0
	str	r2, [r3, #16]
	ldr	r3, [r7, #12]
	mov	r0, r3
	adds	r7, r7, #20
	mov	sp, r7
	@ sp needed
	ldr	r7, [sp], #4
	bx	lr
	.cantunwind
	.fnend
	.size	_ZN2OT24hb_would_apply_context_tC2EP9hb_face_tPKjjb, .-_ZN2OT24hb_would_apply_context_tC2EP9hb_face_tPKjjb
	.weak	_ZN2OT24hb_would_apply_context_tC1EP9hb_face_tPKjjb
	.thumb_set _ZN2OT24hb_would_apply_context_tC1EP9hb_face_tPKjjb,_ZN2OT24hb_would_apply_context_tC2EP9hb_face_tPKjjb
	.section	.rodata
	.align	2
.LC19:
	.ascii	"COLLECT_GLYPHS\000"
	.section	.text._ZN2OT27hb_collect_glyphs_context_t8get_nameEv,"axG",%progbits,_ZN2OT27hb_collect_glyphs_context_t8get_nameEv,comdat
	.align	2
	.weak	_ZN2OT27hb_collect_glyphs_context_t8get_nameEv
	.thumb
	.thumb_func
	.type	_ZN2OT27hb_collect_glyphs_context_t8get_nameEv, %function
_ZN2OT27hb_collect_glyphs_context_t8get_nameEv:
	.fnstart
.LFB515:
	@ args = 0, pretend = 0, frame = 8
	@ frame_needed = 1, uses_anonymous_args = 0
	@ link register save eliminated.
	push	{r7}
	sub	sp, sp, #12
	add	r7, sp, #0
	str	r0, [r7, #4]
	ldr	r3, .L699
.LPIC82:
	add	r3, pc
	mov	r0, r3
	adds	r7, r7, #12
	mov	sp, r7
	@ sp needed
	ldr	r7, [sp], #4
	bx	lr
.L700:
	.align	2
.L699:
	.word	.LC19-(.LPIC82+4)
	.cantunwind
	.fnend
	.size	_ZN2OT27hb_collect_glyphs_context_t8get_nameEv, .-_ZN2OT27hb_collect_glyphs_context_t8get_nameEv
	.section	.text._ZN2OT27hb_collect_glyphs_context_t20default_return_valueEv,"axG",%progbits,_ZN2OT27hb_collect_glyphs_context_t20default_return_valueEv,comdat
	.align	2
	.weak	_ZN2OT27hb_collect_glyphs_context_t20default_return_valueEv
	.thumb
	.thumb_func
	.type	_ZN2OT27hb_collect_glyphs_context_t20default_return_valueEv, %function
_ZN2OT27hb_collect_glyphs_context_t20default_return_valueEv:
	.fnstart
.LFB517:
	@ args = 0, pretend = 0, frame = 0
	@ frame_needed = 1, uses_anonymous_args = 0
	@ link register save eliminated.
	push	{r7}
	add	r7, sp, #0
	movs	r3, #0
	mov	r0, r3
	mov	sp, r7
	@ sp needed
	ldr	r7, [sp], #4
	bx	lr
	.cantunwind
	.fnend
	.size	_ZN2OT27hb_collect_glyphs_context_t20default_return_valueEv, .-_ZN2OT27hb_collect_glyphs_context_t20default_return_valueEv
	.section	.text._ZNK2OT27hb_collect_glyphs_context_t24stop_sublookup_iterationERK10_hb_void_t,"axG",%progbits,_ZNK2OT27hb_collect_glyphs_context_t24stop_sublookup_iterationERK10_hb_void_t,comdat
	.align	2
	.weak	_ZNK2OT27hb_collect_glyphs_context_t24stop_sublookup_iterationERK10_hb_void_t
	.thumb
	.thumb_func
	.type	_ZNK2OT27hb_collect_glyphs_context_t24stop_sublookup_iterationERK10_hb_void_t, %function
_ZNK2OT27hb_collect_glyphs_context_t24stop_sublookup_iterationERK10_hb_void_t:
	.fnstart
.LFB518:
	@ args = 0, pretend = 0, frame = 8
	@ frame_needed = 1, uses_anonymous_args = 0
	@ link register save eliminated.
	push	{r7}
	sub	sp, sp, #12
	add	r7, sp, #0
	str	r0, [r7, #4]
	str	r1, [r7]
	movs	r3, #0
	mov	r0, r3
	adds	r7, r7, #12
	mov	sp, r7
	@ sp needed
	ldr	r7, [sp], #4
	bx	lr
	.cantunwind
	.fnend
	.size	_ZNK2OT27hb_collect_glyphs_context_t24stop_sublookup_iterationERK10_hb_void_t, .-_ZNK2OT27hb_collect_glyphs_context_t24stop_sublookup_iterationERK10_hb_void_t
	.section	.text._ZN2OT27hb_collect_glyphs_context_t7recurseEj,"axG",%progbits,_ZN2OT27hb_collect_glyphs_context_t7recurseEj,comdat
	.align	2
	.weak	_ZN2OT27hb_collect_glyphs_context_t7recurseEj
	.thumb
	.thumb_func
	.type	_ZN2OT27hb_collect_glyphs_context_t7recurseEj, %function
_ZN2OT27hb_collect_glyphs_context_t7recurseEj:
	.fnstart
.LFB519:
	@ args = 0, pretend = 0, frame = 24
	@ frame_needed = 1, uses_anonymous_args = 0
	push	{r4, r7, lr}
	.save {r4, r7, lr}
	.pad #28
	sub	sp, sp, #28
	.setfp r7, sp, #0
	add	r7, sp, #0
	str	r0, [r7, #4]
	str	r1, [r7]
	ldr	r3, [r7, #4]
	add	r3, r3, #8256
	adds	r3, r3, #8
	ldr	r3, [r3]
	cmp	r3, #0
	beq	.L706
	ldr	r3, [r7, #4]
	ldr	r3, [r3, #20]
	cmp	r3, #0
	bne	.L707
.L706:
	bl	_ZN2OT27hb_collect_glyphs_context_t20default_return_valueEv(PLT)
	mov	r3, r0
	b	.L708
.L707:
	ldr	r3, [r7, #4]
	ldr	r4, [r3, #16]
	bl	hb_set_get_empty(PLT)
	mov	r3, r0
	cmp	r4, r3
	ite	eq
	moveq	r3, #1
	movne	r3, #0
	uxtb	r3, r3
	cmp	r3, #0
	beq	.L709
	movs	r3, #0
	b	.L708
.L709:
	ldr	r3, [r7, #4]
	adds	r3, r3, #24
	mov	r0, r3
	ldr	r1, [r7]
	bl	_ZNK8hb_set_t3hasEj(PLT)
	mov	r3, r0
	cmp	r3, #0
	beq	.L710
	movs	r3, #0
	b	.L708
.L710:
	ldr	r3, [r7, #4]
	ldr	r3, [r3, #4]
	str	r3, [r7, #20]
	ldr	r3, [r7, #4]
	ldr	r3, [r3, #8]
	str	r3, [r7, #16]
	ldr	r3, [r7, #4]
	ldr	r3, [r3, #12]
	str	r3, [r7, #12]
	bl	hb_set_get_empty(PLT)
	mov	r2, r0
	ldr	r3, [r7, #4]
	str	r2, [r3, #12]
	ldr	r3, [r7, #4]
	ldr	r2, [r3, #12]
	ldr	r3, [r7, #4]
	str	r2, [r3, #8]
	ldr	r3, [r7, #4]
	ldr	r2, [r3, #8]
	ldr	r3, [r7, #4]
	str	r2, [r3, #4]
	ldr	r3, [r7, #4]
	add	r3, r3, #8256
	adds	r3, r3, #8
	ldr	r3, [r3]
	subs	r2, r3, #1
	ldr	r3, [r7, #4]
	add	r3, r3, #8256
	adds	r3, r3, #8
	str	r2, [r3]
	ldr	r3, [r7, #4]
	ldr	r3, [r3, #20]
	ldr	r0, [r7, #4]
	ldr	r1, [r7]
	blx	r3
	ldr	r3, [r7, #4]
	add	r3, r3, #8256
	adds	r3, r3, #8
	ldr	r3, [r3]
	adds	r2, r3, #1
	ldr	r3, [r7, #4]
	add	r3, r3, #8256
	adds	r3, r3, #8
	str	r2, [r3]
	ldr	r3, [r7, #4]
	ldr	r2, [r7, #20]
	str	r2, [r3, #4]
	ldr	r3, [r7, #4]
	ldr	r2, [r7, #16]
	str	r2, [r3, #8]
	ldr	r3, [r7, #4]
	ldr	r2, [r7, #12]
	str	r2, [r3, #12]
	ldr	r3, [r7, #4]
	adds	r3, r3, #24
	mov	r0, r3
	ldr	r1, [r7]
	bl	_ZN8hb_set_t3addEj(PLT)
	movs	r3, #0
.L708:
	mov	r0, r3
	adds	r7, r7, #28
	mov	sp, r7
	@ sp needed
	pop	{r4, r7, pc}
	.fnend
	.size	_ZN2OT27hb_collect_glyphs_context_t7recurseEj, .-_ZN2OT27hb_collect_glyphs_context_t7recurseEj
	.section	.text._ZN2OT27hb_collect_glyphs_context_tC2EP9hb_face_tP8hb_set_tS4_S4_S4_j,"axG",%progbits,_ZN2OT27hb_collect_glyphs_context_tC5EP9hb_face_tP8hb_set_tS4_S4_S4_j,comdat
	.align	2
	.weak	_ZN2OT27hb_collect_glyphs_context_tC2EP9hb_face_tP8hb_set_tS4_S4_S4_j
	.thumb
	.thumb_func
	.type	_ZN2OT27hb_collect_glyphs_context_tC2EP9hb_face_tP8hb_set_tS4_S4_S4_j, %function
_ZN2OT27hb_collect_glyphs_context_tC2EP9hb_face_tP8hb_set_tS4_S4_S4_j:
	.fnstart
.LFB521:
	@ args = 12, pretend = 0, frame = 16
	@ frame_needed = 1, uses_anonymous_args = 0
	push	{r7, lr}
	.save {r7, lr}
	.pad #16
	sub	sp, sp, #16
	.setfp r7, sp, #0
	add	r7, sp, #0
	str	r0, [r7, #12]
	str	r1, [r7, #8]
	str	r2, [r7, #4]
	str	r3, [r7]
	ldr	r3, [r7, #12]
	ldr	r2, [r7, #8]
	str	r2, [r3]
	ldr	r3, [r7, #4]
	cmp	r3, #0
	bne	.L712
	bl	hb_set_get_empty(PLT)
	mov	r3, r0
	b	.L713
.L712:
	ldr	r3, [r7, #4]
.L713:
	ldr	r2, [r7, #12]
	str	r3, [r2, #4]
	ldr	r3, [r7]
	cmp	r3, #0
	bne	.L714
	bl	hb_set_get_empty(PLT)
	mov	r3, r0
	b	.L715
.L714:
	ldr	r3, [r7]
.L715:
	ldr	r2, [r7, #12]
	str	r3, [r2, #8]
	ldr	r3, [r7, #24]
	cmp	r3, #0
	bne	.L716
	bl	hb_set_get_empty(PLT)
	mov	r3, r0
	b	.L717
.L716:
	ldr	r3, [r7, #24]
.L717:
	ldr	r2, [r7, #12]
	str	r3, [r2, #12]
	ldr	r3, [r7, #28]
	cmp	r3, #0
	bne	.L718
	bl	hb_set_get_empty(PLT)
	mov	r3, r0
	b	.L719
.L718:
	ldr	r3, [r7, #28]
.L719:
	ldr	r2, [r7, #12]
	str	r3, [r2, #16]
	ldr	r3, [r7, #12]
	movs	r2, #0
	str	r2, [r3, #20]
	ldr	r3, [r7, #12]
	add	r2, r3, #24
	movw	r3, #8240
	mov	r0, r2
	movs	r1, #0
	mov	r2, r3
	bl	memset(PLT)
	ldr	r3, [r7, #12]
	add	r3, r3, #8256
	adds	r3, r3, #8
	ldr	r2, [r7, #32]
	str	r2, [r3]
	ldr	r3, [r7, #12]
	add	r3, r3, #8256
	adds	r3, r3, #12
	movs	r2, #0
	str	r2, [r3]
	ldr	r3, [r7, #12]
	adds	r3, r3, #24
	mov	r0, r3
	bl	_ZN8hb_set_t4initEv(PLT)
	ldr	r3, [r7, #12]
	mov	r0, r3
	adds	r7, r7, #16
	mov	sp, r7
	@ sp needed
	pop	{r7, pc}
	.fnend
	.size	_ZN2OT27hb_collect_glyphs_context_tC2EP9hb_face_tP8hb_set_tS4_S4_S4_j, .-_ZN2OT27hb_collect_glyphs_context_tC2EP9hb_face_tP8hb_set_tS4_S4_S4_j
	.weak	_ZN2OT27hb_collect_glyphs_context_tC1EP9hb_face_tP8hb_set_tS4_S4_S4_j
	.thumb_set _ZN2OT27hb_collect_glyphs_context_tC1EP9hb_face_tP8hb_set_tS4_S4_S4_j,_ZN2OT27hb_collect_glyphs_context_tC2EP9hb_face_tP8hb_set_tS4_S4_S4_j
	.section	.text._ZN2OT27hb_collect_glyphs_context_tD2Ev,"axG",%progbits,_ZN2OT27hb_collect_glyphs_context_tD5Ev,comdat
	.align	2
	.weak	_ZN2OT27hb_collect_glyphs_context_tD2Ev
	.thumb
	.thumb_func
	.type	_ZN2OT27hb_collect_glyphs_context_tD2Ev, %function
_ZN2OT27hb_collect_glyphs_context_tD2Ev:
	.fnstart
.LFB524:
	@ args = 0, pretend = 0, frame = 8
	@ frame_needed = 1, uses_anonymous_args = 0
	push	{r7, lr}
	sub	sp, sp, #8
	add	r7, sp, #0
	str	r0, [r7, #4]
	ldr	r3, [r7, #4]
	adds	r3, r3, #24
	mov	r0, r3
	bl	_ZN8hb_set_t4finiEv(PLT)
	ldr	r3, [r7, #4]
	mov	r0, r3
	adds	r7, r7, #8
	mov	sp, r7
	@ sp needed
	pop	{r7, pc}
	.cantunwind
	.fnend
	.size	_ZN2OT27hb_collect_glyphs_context_tD2Ev, .-_ZN2OT27hb_collect_glyphs_context_tD2Ev
	.weak	_ZN2OT27hb_collect_glyphs_context_tD1Ev
	.thumb_set _ZN2OT27hb_collect_glyphs_context_tD1Ev,_ZN2OT27hb_collect_glyphs_context_tD2Ev
	.section	.text._ZN2OT27hb_collect_glyphs_context_t16set_recurse_funcEPFRK10_hb_void_tPS0_jE,"axG",%progbits,_ZN2OT27hb_collect_glyphs_context_t16set_recurse_funcEPFRK10_hb_void_tPS0_jE,comdat
	.align	2
	.weak	_ZN2OT27hb_collect_glyphs_context_t16set_recurse_funcEPFRK10_hb_void_tPS0_jE
	.thumb
	.thumb_func
	.type	_ZN2OT27hb_collect_glyphs_context_t16set_recurse_funcEPFRK10_hb_void_tPS0_jE, %function
_ZN2OT27hb_collect_glyphs_context_t16set_recurse_funcEPFRK10_hb_void_tPS0_jE:
	.fnstart
.LFB526:
	@ args = 0, pretend = 0, frame = 8
	@ frame_needed = 1, uses_anonymous_args = 0
	@ link register save eliminated.
	push	{r7}
	sub	sp, sp, #12
	add	r7, sp, #0
	str	r0, [r7, #4]
	str	r1, [r7]
	ldr	r3, [r7, #4]
	ldr	r2, [r7]
	str	r2, [r3, #20]
	adds	r7, r7, #12
	mov	sp, r7
	@ sp needed
	ldr	r7, [sp], #4
	bx	lr
	.cantunwind
	.fnend
	.size	_ZN2OT27hb_collect_glyphs_context_t16set_recurse_funcEPFRK10_hb_void_tPS0_jE, .-_ZN2OT27hb_collect_glyphs_context_t16set_recurse_funcEPFRK10_hb_void_tPS0_jE
	.section	.rodata
	.align	2
.LC20:
	.ascii	"GET_COVERAGE\000"
	.section	.text._ZN2OT25hb_get_coverage_context_t8get_nameEv,"axG",%progbits,_ZN2OT25hb_get_coverage_context_t8get_nameEv,comdat
	.align	2
	.weak	_ZN2OT25hb_get_coverage_context_t8get_nameEv
	.thumb
	.thumb_func
	.type	_ZN2OT25hb_get_coverage_context_t8get_nameEv, %function
_ZN2OT25hb_get_coverage_context_t8get_nameEv:
	.fnstart
.LFB527:
	@ args = 0, pretend = 0, frame = 8
	@ frame_needed = 1, uses_anonymous_args = 0
	@ link register save eliminated.
	push	{r7}
	sub	sp, sp, #12
	add	r7, sp, #0
	str	r0, [r7, #4]
	ldr	r3, .L728
.LPIC83:
	add	r3, pc
	mov	r0, r3
	adds	r7, r7, #12
	mov	sp, r7
	@ sp needed
	ldr	r7, [sp], #4
	bx	lr
.L729:
	.align	2
.L728:
	.word	.LC20-(.LPIC83+4)
	.cantunwind
	.fnend
	.size	_ZN2OT25hb_get_coverage_context_t8get_nameEv, .-_ZN2OT25hb_get_coverage_context_t8get_nameEv
	.section	.text._ZN2OT25hb_get_coverage_context_t20default_return_valueEv,"axG",%progbits,_ZN2OT25hb_get_coverage_context_t20default_return_valueEv,comdat
	.align	2
	.weak	_ZN2OT25hb_get_coverage_context_t20default_return_valueEv
	.thumb
	.thumb_func
	.type	_ZN2OT25hb_get_coverage_context_t20default_return_valueEv, %function
_ZN2OT25hb_get_coverage_context_t20default_return_valueEv:
	.fnstart
.LFB529:
	@ args = 0, pretend = 0, frame = 0
	@ frame_needed = 1, uses_anonymous_args = 0
	push	{r7, lr}
	.save {r7, lr}
	.setfp r7, sp, #0
	add	r7, sp, #0
	bl	_ZN2OTL4NullINS_8CoverageEEERKT_v(PLT)
	mov	r3, r0
	mov	r0, r3
	pop	{r7, pc}
	.fnend
	.size	_ZN2OT25hb_get_coverage_context_t20default_return_valueEv, .-_ZN2OT25hb_get_coverage_context_t20default_return_valueEv
	.section	.text._ZN2OT25hb_get_coverage_context_tC2Ev,"axG",%progbits,_ZN2OT25hb_get_coverage_context_tC5Ev,comdat
	.align	2
	.weak	_ZN2OT25hb_get_coverage_context_tC2Ev
	.thumb
	.thumb_func
	.type	_ZN2OT25hb_get_coverage_context_tC2Ev, %function
_ZN2OT25hb_get_coverage_context_tC2Ev:
	.fnstart
.LFB531:
	@ args = 0, pretend = 0, frame = 8
	@ frame_needed = 1, uses_anonymous_args = 0
	@ link register save eliminated.
	push	{r7}
	sub	sp, sp, #12
	add	r7, sp, #0
	str	r0, [r7, #4]
	ldr	r3, [r7, #4]
	movs	r2, #0
	str	r2, [r3]
	ldr	r3, [r7, #4]
	mov	r0, r3
	adds	r7, r7, #12
	mov	sp, r7
	@ sp needed
	ldr	r7, [sp], #4
	bx	lr
	.cantunwind
	.fnend
	.size	_ZN2OT25hb_get_coverage_context_tC2Ev, .-_ZN2OT25hb_get_coverage_context_tC2Ev
	.weak	_ZN2OT25hb_get_coverage_context_tC1Ev
	.thumb_set _ZN2OT25hb_get_coverage_context_tC1Ev,_ZN2OT25hb_get_coverage_context_tC2Ev
	.section	.rodata
	.align	2
.LC21:
	.ascii	"APPLY\000"
	.section	.text._ZN2OT18hb_apply_context_t8get_nameEv,"axG",%progbits,_ZN2OT18hb_apply_context_t8get_nameEv,comdat
	.align	2
	.weak	_ZN2OT18hb_apply_context_t8get_nameEv
	.thumb
	.thumb_func
	.type	_ZN2OT18hb_apply_context_t8get_nameEv, %function
_ZN2OT18hb_apply_context_t8get_nameEv:
	.fnstart
.LFB533:
	@ args = 0, pretend = 0, frame = 8
	@ frame_needed = 1, uses_anonymous_args = 0
	@ link register save eliminated.
	push	{r7}
	sub	sp, sp, #12
	add	r7, sp, #0
	str	r0, [r7, #4]
	ldr	r3, .L737
.LPIC84:
	add	r3, pc
	mov	r0, r3
	adds	r7, r7, #12
	mov	sp, r7
	@ sp needed
	ldr	r7, [sp], #4
	bx	lr
.L738:
	.align	2
.L737:
	.word	.LC21-(.LPIC84+4)
	.cantunwind
	.fnend
	.size	_ZN2OT18hb_apply_context_t8get_nameEv, .-_ZN2OT18hb_apply_context_t8get_nameEv
	.section	.text._ZN2OT18hb_apply_context_t20default_return_valueEv,"axG",%progbits,_ZN2OT18hb_apply_context_t20default_return_valueEv,comdat
	.align	2
	.weak	_ZN2OT18hb_apply_context_t20default_return_valueEv
	.thumb
	.thumb_func
	.type	_ZN2OT18hb_apply_context_t20default_return_valueEv, %function
_ZN2OT18hb_apply_context_t20default_return_valueEv:
	.fnstart
.LFB535:
	@ args = 0, pretend = 0, frame = 0
	@ frame_needed = 1, uses_anonymous_args = 0
	@ link register save eliminated.
	push	{r7}
	add	r7, sp, #0
	movs	r3, #0
	mov	r0, r3
	mov	sp, r7
	@ sp needed
	ldr	r7, [sp], #4
	bx	lr
	.cantunwind
	.fnend
	.size	_ZN2OT18hb_apply_context_t20default_return_valueEv, .-_ZN2OT18hb_apply_context_t20default_return_valueEv
	.section	.text._ZNK2OT18hb_apply_context_t24stop_sublookup_iterationEb,"axG",%progbits,_ZNK2OT18hb_apply_context_t24stop_sublookup_iterationEb,comdat
	.align	2
	.weak	_ZNK2OT18hb_apply_context_t24stop_sublookup_iterationEb
	.thumb
	.thumb_func
	.type	_ZNK2OT18hb_apply_context_t24stop_sublookup_iterationEb, %function
_ZNK2OT18hb_apply_context_t24stop_sublookup_iterationEb:
	.fnstart
.LFB536:
	@ args = 0, pretend = 0, frame = 8
	@ frame_needed = 1, uses_anonymous_args = 0
	@ link register save eliminated.
	push	{r7}
	sub	sp, sp, #12
	add	r7, sp, #0
	str	r0, [r7, #4]
	mov	r3, r1
	strb	r3, [r7, #3]
	ldrb	r3, [r7, #3]	@ zero_extendqisi2
	mov	r0, r3
	adds	r7, r7, #12
	mov	sp, r7
	@ sp needed
	ldr	r7, [sp], #4
	bx	lr
	.cantunwind
	.fnend
	.size	_ZNK2OT18hb_apply_context_t24stop_sublookup_iterationEb, .-_ZNK2OT18hb_apply_context_t24stop_sublookup_iterationEb
	.section	.text._ZN2OT18hb_apply_context_t7recurseEj,"axG",%progbits,_ZN2OT18hb_apply_context_t7recurseEj,comdat
	.align	2
	.weak	_ZN2OT18hb_apply_context_t7recurseEj
	.thumb
	.thumb_func
	.type	_ZN2OT18hb_apply_context_t7recurseEj, %function
_ZN2OT18hb_apply_context_t7recurseEj:
	.fnstart
.LFB537:
	@ args = 0, pretend = 0, frame = 16
	@ frame_needed = 1, uses_anonymous_args = 0
	push	{r7, lr}
	.save {r7, lr}
	.pad #16
	sub	sp, sp, #16
	.setfp r7, sp, #0
	add	r7, sp, #0
	str	r0, [r7, #4]
	str	r1, [r7]
	ldr	r3, [r7, #4]
	ldr	r3, [r3, #32]
	cmp	r3, #0
	beq	.L744
	ldr	r3, [r7, #4]
	ldr	r3, [r3, #28]
	cmp	r3, #0
	bne	.L745
.L744:
	bl	_ZN2OT18hb_apply_context_t20default_return_valueEv(PLT)
	mov	r3, r0
	b	.L746
.L745:
	ldr	r3, [r7, #4]
	ldr	r3, [r3, #32]
	subs	r2, r3, #1
	ldr	r3, [r7, #4]
	str	r2, [r3, #32]
	ldr	r3, [r7, #4]
	ldr	r3, [r3, #28]
	ldr	r0, [r7, #4]
	ldr	r1, [r7]
	blx	r3
	mov	r3, r0
	strb	r3, [r7, #15]
	ldr	r3, [r7, #4]
	ldr	r3, [r3, #32]
	adds	r2, r3, #1
	ldr	r3, [r7, #4]
	str	r2, [r3, #32]
	ldrb	r3, [r7, #15]	@ zero_extendqisi2
.L746:
	mov	r0, r3
	adds	r7, r7, #16
	mov	sp, r7
	@ sp needed
	pop	{r7, pc}
	.fnend
	.size	_ZN2OT18hb_apply_context_t7recurseEj, .-_ZN2OT18hb_apply_context_t7recurseEj
	.section	.text._ZN2OT18hb_apply_context_tC2EjP9hb_font_tP11hb_buffer_t,"axG",%progbits,_ZN2OT18hb_apply_context_tC5EjP9hb_font_tP11hb_buffer_t,comdat
	.align	2
	.weak	_ZN2OT18hb_apply_context_tC2EjP9hb_font_tP11hb_buffer_t
	.thumb
	.thumb_func
	.type	_ZN2OT18hb_apply_context_tC2EjP9hb_font_tP11hb_buffer_t, %function
_ZN2OT18hb_apply_context_tC2EjP9hb_font_tP11hb_buffer_t:
	.fnstart
.LFB539:
	@ args = 0, pretend = 0, frame = 16
	@ frame_needed = 1, uses_anonymous_args = 0
	push	{r7, lr}
	.save {r7, lr}
	.pad #16
	sub	sp, sp, #16
	.setfp r7, sp, #0
	add	r7, sp, #0
	str	r0, [r7, #12]
	str	r1, [r7, #8]
	str	r2, [r7, #4]
	str	r3, [r7]
	ldr	r3, [r7, #12]
	ldr	r2, [r7, #8]
	str	r2, [r3]
	ldr	r3, [r7, #12]
	ldr	r2, [r7, #4]
	str	r2, [r3, #4]
	ldr	r3, [r7, #12]
	ldr	r3, [r3, #4]
	ldr	r2, [r3, #52]
	ldr	r3, [r7, #12]
	str	r2, [r3, #8]
	ldr	r3, [r7, #12]
	ldr	r2, [r7]
	str	r2, [r3, #12]
	ldr	r3, [r7]
	ldr	r2, [r3, #60]
	ldr	r3, [r7, #12]
	str	r2, [r3, #16]
	ldr	r3, [r7, #12]
	movs	r2, #1
	str	r2, [r3, #20]
	ldr	r3, [r7, #12]
	movs	r2, #1
	strb	r2, [r3, #24]
	ldr	r3, [r7, #12]
	movs	r2, #0
	str	r2, [r3, #28]
	ldr	r3, [r7, #12]
	movs	r2, #8
	str	r2, [r3, #32]
	ldr	r3, [r7, #12]
	movs	r2, #0
	str	r2, [r3, #36]
	ldr	r3, [r7, #12]
	ldr	r3, [r3, #8]
	ldr	r3, [r3, #72]
	ldr	r2, [r3, #12]
	ldr	r3, [r7, #12]
	str	r2, [r3, #40]
	ldr	r3, [r7, #12]
	ldr	r3, [r3, #40]
	mov	r0, r3
	bl	_ZNK2OT4GDEF17has_glyph_classesEv(PLT)
	mov	r3, r0
	mov	r2, r3
	ldr	r3, [r7, #12]
	strb	r2, [r3, #44]
	ldr	r3, [r7, #12]
	movs	r2, #0
	str	r2, [r3, #48]
	ldr	r3, [r7, #12]
	mov	r0, r3
	adds	r7, r7, #16
	mov	sp, r7
	@ sp needed
	pop	{r7, pc}
	.fnend
	.size	_ZN2OT18hb_apply_context_tC2EjP9hb_font_tP11hb_buffer_t, .-_ZN2OT18hb_apply_context_tC2EjP9hb_font_tP11hb_buffer_t
	.weak	_ZN2OT18hb_apply_context_tC1EjP9hb_font_tP11hb_buffer_t
	.thumb_set _ZN2OT18hb_apply_context_tC1EjP9hb_font_tP11hb_buffer_t,_ZN2OT18hb_apply_context_tC2EjP9hb_font_tP11hb_buffer_t
	.section	.text._ZN2OT18hb_apply_context_t15set_lookup_maskEj,"axG",%progbits,_ZN2OT18hb_apply_context_t15set_lookup_maskEj,comdat
	.align	2
	.weak	_ZN2OT18hb_apply_context_t15set_lookup_maskEj
	.thumb
	.thumb_func
	.type	_ZN2OT18hb_apply_context_t15set_lookup_maskEj, %function
_ZN2OT18hb_apply_context_t15set_lookup_maskEj:
	.fnstart
.LFB541:
	@ args = 0, pretend = 0, frame = 8
	@ frame_needed = 1, uses_anonymous_args = 0
	@ link register save eliminated.
	push	{r7}
	sub	sp, sp, #12
	add	r7, sp, #0
	str	r0, [r7, #4]
	str	r1, [r7]
	ldr	r3, [r7, #4]
	ldr	r2, [r7]
	str	r2, [r3, #20]
	adds	r7, r7, #12
	mov	sp, r7
	@ sp needed
	ldr	r7, [sp], #4
	bx	lr
	.cantunwind
	.fnend
	.size	_ZN2OT18hb_apply_context_t15set_lookup_maskEj, .-_ZN2OT18hb_apply_context_t15set_lookup_maskEj
	.section	.text._ZN2OT18hb_apply_context_t12set_auto_zwjEb,"axG",%progbits,_ZN2OT18hb_apply_context_t12set_auto_zwjEb,comdat
	.align	2
	.weak	_ZN2OT18hb_apply_context_t12set_auto_zwjEb
	.thumb
	.thumb_func
	.type	_ZN2OT18hb_apply_context_t12set_auto_zwjEb, %function
_ZN2OT18hb_apply_context_t12set_auto_zwjEb:
	.fnstart
.LFB542:
	@ args = 0, pretend = 0, frame = 8
	@ frame_needed = 1, uses_anonymous_args = 0
	@ link register save eliminated.
	push	{r7}
	sub	sp, sp, #12
	add	r7, sp, #0
	str	r0, [r7, #4]
	mov	r3, r1
	strb	r3, [r7, #3]
	ldr	r3, [r7, #4]
	ldrb	r2, [r7, #3]
	strb	r2, [r3, #24]
	adds	r7, r7, #12
	mov	sp, r7
	@ sp needed
	ldr	r7, [sp], #4
	bx	lr
	.cantunwind
	.fnend
	.size	_ZN2OT18hb_apply_context_t12set_auto_zwjEb, .-_ZN2OT18hb_apply_context_t12set_auto_zwjEb
	.section	.text._ZN2OT18hb_apply_context_t16set_recurse_funcEPFbPS0_jE,"axG",%progbits,_ZN2OT18hb_apply_context_t16set_recurse_funcEPFbPS0_jE,comdat
	.align	2
	.weak	_ZN2OT18hb_apply_context_t16set_recurse_funcEPFbPS0_jE
	.thumb
	.thumb_func
	.type	_ZN2OT18hb_apply_context_t16set_recurse_funcEPFbPS0_jE, %function
_ZN2OT18hb_apply_context_t16set_recurse_funcEPFbPS0_jE:
	.fnstart
.LFB543:
	@ args = 0, pretend = 0, frame = 8
	@ frame_needed = 1, uses_anonymous_args = 0
	@ link register save eliminated.
	push	{r7}
	sub	sp, sp, #12
	add	r7, sp, #0
	str	r0, [r7, #4]
	str	r1, [r7]
	ldr	r3, [r7, #4]
	ldr	r2, [r7]
	str	r2, [r3, #28]
	adds	r7, r7, #12
	mov	sp, r7
	@ sp needed
	ldr	r7, [sp], #4
	bx	lr
	.cantunwind
	.fnend
	.size	_ZN2OT18hb_apply_context_t16set_recurse_funcEPFbPS0_jE, .-_ZN2OT18hb_apply_context_t16set_recurse_funcEPFbPS0_jE
	.section	.text._ZN2OT18hb_apply_context_t10set_lookupERKNS_6LookupE,"axG",%progbits,_ZN2OT18hb_apply_context_t10set_lookupERKNS_6LookupE,comdat
	.align	2
	.weak	_ZN2OT18hb_apply_context_t10set_lookupERKNS_6LookupE
	.thumb
	.thumb_func
	.type	_ZN2OT18hb_apply_context_t10set_lookupERKNS_6LookupE, %function
_ZN2OT18hb_apply_context_t10set_lookupERKNS_6LookupE:
	.fnstart
.LFB545:
	@ args = 0, pretend = 0, frame = 8
	@ frame_needed = 1, uses_anonymous_args = 0
	push	{r7, lr}
	.save {r7, lr}
	.pad #8
	sub	sp, sp, #8
	.setfp r7, sp, #0
	add	r7, sp, #0
	str	r0, [r7, #4]
	str	r1, [r7]
	ldr	r0, [r7]
	bl	_ZNK2OT6Lookup9get_propsEv(PLT)
	mov	r2, r0
	ldr	r3, [r7, #4]
	str	r2, [r3, #36]
	adds	r7, r7, #8
	mov	sp, r7
	@ sp needed
	pop	{r7, pc}
	.fnend
	.size	_ZN2OT18hb_apply_context_t10set_lookupERKNS_6LookupE, .-_ZN2OT18hb_apply_context_t10set_lookupERKNS_6LookupE
	.section	.text._ZN2OT18hb_apply_context_t9matcher_tC2Ev,"axG",%progbits,_ZN2OT18hb_apply_context_t9matcher_tC5Ev,comdat
	.align	2
	.weak	_ZN2OT18hb_apply_context_t9matcher_tC2Ev
	.thumb
	.thumb_func
	.type	_ZN2OT18hb_apply_context_t9matcher_tC2Ev, %function
_ZN2OT18hb_apply_context_t9matcher_tC2Ev:
	.fnstart
.LFB547:
	@ args = 0, pretend = 0, frame = 8
	@ frame_needed = 1, uses_anonymous_args = 0
	@ link register save eliminated.
	push	{r7}
	sub	sp, sp, #12
	add	r7, sp, #0
	str	r0, [r7, #4]
	ldr	r3, [r7, #4]
	movs	r2, #0
	str	r2, [r3]
	ldr	r3, [r7, #4]
	movs	r2, #0
	strb	r2, [r3, #4]
	ldr	r3, [r7, #4]
	movs	r2, #0
	strb	r2, [r3, #5]
	ldr	r3, [r7, #4]
	mov	r2, #-1
	str	r2, [r3, #8]
	ldr	r3, [r7, #4]
	movs	r2, #0
	strb	r2, [r3, #12]
	ldr	r3, [r7, #4]
	movs	r2, #0
	str	r2, [r3, #16]
	ldr	r3, [r7, #4]
	movs	r2, #0
	str	r2, [r3, #20]
	ldr	r3, [r7, #4]
	mov	r0, r3
	adds	r7, r7, #12
	mov	sp, r7
	@ sp needed
	ldr	r7, [sp], #4
	bx	lr
	.cantunwind
	.fnend
	.size	_ZN2OT18hb_apply_context_t9matcher_tC2Ev, .-_ZN2OT18hb_apply_context_t9matcher_tC2Ev
	.weak	_ZN2OT18hb_apply_context_t9matcher_tC1Ev
	.thumb_set _ZN2OT18hb_apply_context_t9matcher_tC1Ev,_ZN2OT18hb_apply_context_t9matcher_tC2Ev
	.section	.text._ZN2OT18hb_apply_context_t9matcher_t15set_ignore_zwnjEb,"axG",%progbits,_ZN2OT18hb_apply_context_t9matcher_t15set_ignore_zwnjEb,comdat
	.align	2
	.weak	_ZN2OT18hb_apply_context_t9matcher_t15set_ignore_zwnjEb
	.thumb
	.thumb_func
	.type	_ZN2OT18hb_apply_context_t9matcher_t15set_ignore_zwnjEb, %function
_ZN2OT18hb_apply_context_t9matcher_t15set_ignore_zwnjEb:
	.fnstart
.LFB549:
	@ args = 0, pretend = 0, frame = 8
	@ frame_needed = 1, uses_anonymous_args = 0
	@ link register save eliminated.
	push	{r7}
	sub	sp, sp, #12
	add	r7, sp, #0
	str	r0, [r7, #4]
	mov	r3, r1
	strb	r3, [r7, #3]
	ldr	r3, [r7, #4]
	ldrb	r2, [r7, #3]
	strb	r2, [r3, #4]
	adds	r7, r7, #12
	mov	sp, r7
	@ sp needed
	ldr	r7, [sp], #4
	bx	lr
	.cantunwind
	.fnend
	.size	_ZN2OT18hb_apply_context_t9matcher_t15set_ignore_zwnjEb, .-_ZN2OT18hb_apply_context_t9matcher_t15set_ignore_zwnjEb
	.section	.text._ZN2OT18hb_apply_context_t9matcher_t14set_ignore_zwjEb,"axG",%progbits,_ZN2OT18hb_apply_context_t9matcher_t14set_ignore_zwjEb,comdat
	.align	2
	.weak	_ZN2OT18hb_apply_context_t9matcher_t14set_ignore_zwjEb
	.thumb
	.thumb_func
	.type	_ZN2OT18hb_apply_context_t9matcher_t14set_ignore_zwjEb, %function
_ZN2OT18hb_apply_context_t9matcher_t14set_ignore_zwjEb:
	.fnstart
.LFB550:
	@ args = 0, pretend = 0, frame = 8
	@ frame_needed = 1, uses_anonymous_args = 0
	@ link register save eliminated.
	push	{r7}
	sub	sp, sp, #12
	add	r7, sp, #0
	str	r0, [r7, #4]
	mov	r3, r1
	strb	r3, [r7, #3]
	ldr	r3, [r7, #4]
	ldrb	r2, [r7, #3]
	strb	r2, [r3, #5]
	adds	r7, r7, #12
	mov	sp, r7
	@ sp needed
	ldr	r7, [sp], #4
	bx	lr
	.cantunwind
	.fnend
	.size	_ZN2OT18hb_apply_context_t9matcher_t14set_ignore_zwjEb, .-_ZN2OT18hb_apply_context_t9matcher_t14set_ignore_zwjEb
	.section	.text._ZN2OT18hb_apply_context_t9matcher_t16set_lookup_propsEj,"axG",%progbits,_ZN2OT18hb_apply_context_t9matcher_t16set_lookup_propsEj,comdat
	.align	2
	.weak	_ZN2OT18hb_apply_context_t9matcher_t16set_lookup_propsEj
	.thumb
	.thumb_func
	.type	_ZN2OT18hb_apply_context_t9matcher_t16set_lookup_propsEj, %function
_ZN2OT18hb_apply_context_t9matcher_t16set_lookup_propsEj:
	.fnstart
.LFB551:
	@ args = 0, pretend = 0, frame = 8
	@ frame_needed = 1, uses_anonymous_args = 0
	@ link register save eliminated.
	push	{r7}
	sub	sp, sp, #12
	add	r7, sp, #0
	str	r0, [r7, #4]
	str	r1, [r7]
	ldr	r3, [r7, #4]
	ldr	r2, [r7]
	str	r2, [r3]
	adds	r7, r7, #12
	mov	sp, r7
	@ sp needed
	ldr	r7, [sp], #4
	bx	lr
	.cantunwind
	.fnend
	.size	_ZN2OT18hb_apply_context_t9matcher_t16set_lookup_propsEj, .-_ZN2OT18hb_apply_context_t9matcher_t16set_lookup_propsEj
	.section	.text._ZN2OT18hb_apply_context_t9matcher_t8set_maskEj,"axG",%progbits,_ZN2OT18hb_apply_context_t9matcher_t8set_maskEj,comdat
	.align	2
	.weak	_ZN2OT18hb_apply_context_t9matcher_t8set_maskEj
	.thumb
	.thumb_func
	.type	_ZN2OT18hb_apply_context_t9matcher_t8set_maskEj, %function
_ZN2OT18hb_apply_context_t9matcher_t8set_maskEj:
	.fnstart
.LFB552:
	@ args = 0, pretend = 0, frame = 8
	@ frame_needed = 1, uses_anonymous_args = 0
	@ link register save eliminated.
	push	{r7}
	sub	sp, sp, #12
	add	r7, sp, #0
	str	r0, [r7, #4]
	str	r1, [r7]
	ldr	r3, [r7, #4]
	ldr	r2, [r7]
	str	r2, [r3, #8]
	adds	r7, r7, #12
	mov	sp, r7
	@ sp needed
	ldr	r7, [sp], #4
	bx	lr
	.cantunwind
	.fnend
	.size	_ZN2OT18hb_apply_context_t9matcher_t8set_maskEj, .-_ZN2OT18hb_apply_context_t9matcher_t8set_maskEj
	.section	.text._ZN2OT18hb_apply_context_t9matcher_t12set_syllableEh,"axG",%progbits,_ZN2OT18hb_apply_context_t9matcher_t12set_syllableEh,comdat
	.align	2
	.weak	_ZN2OT18hb_apply_context_t9matcher_t12set_syllableEh
	.thumb
	.thumb_func
	.type	_ZN2OT18hb_apply_context_t9matcher_t12set_syllableEh, %function
_ZN2OT18hb_apply_context_t9matcher_t12set_syllableEh:
	.fnstart
.LFB553:
	@ args = 0, pretend = 0, frame = 8
	@ frame_needed = 1, uses_anonymous_args = 0
	@ link register save eliminated.
	push	{r7}
	sub	sp, sp, #12
	add	r7, sp, #0
	str	r0, [r7, #4]
	mov	r3, r1
	strb	r3, [r7, #3]
	ldr	r3, [r7, #4]
	ldrb	r2, [r7, #3]
	strb	r2, [r3, #12]
	adds	r7, r7, #12
	mov	sp, r7
	@ sp needed
	ldr	r7, [sp], #4
	bx	lr
	.cantunwind
	.fnend
	.size	_ZN2OT18hb_apply_context_t9matcher_t12set_syllableEh, .-_ZN2OT18hb_apply_context_t9matcher_t12set_syllableEh
	.section	.text._ZN2OT18hb_apply_context_t9matcher_t14set_match_funcEPFbjRKNS_7IntTypeItLj2EEEPKvES7_,"axG",%progbits,_ZN2OT18hb_apply_context_t9matcher_t14set_match_funcEPFbjRKNS_7IntTypeItLj2EEEPKvES7_,comdat
	.align	2
	.weak	_ZN2OT18hb_apply_context_t9matcher_t14set_match_funcEPFbjRKNS_7IntTypeItLj2EEEPKvES7_
	.thumb
	.thumb_func
	.type	_ZN2OT18hb_apply_context_t9matcher_t14set_match_funcEPFbjRKNS_7IntTypeItLj2EEEPKvES7_, %function
_ZN2OT18hb_apply_context_t9matcher_t14set_match_funcEPFbjRKNS_7IntTypeItLj2EEEPKvES7_:
	.fnstart
.LFB554:
	@ args = 0, pretend = 0, frame = 16
	@ frame_needed = 1, uses_anonymous_args = 0
	@ link register save eliminated.
	push	{r7}
	sub	sp, sp, #20
	add	r7, sp, #0
	str	r0, [r7, #12]
	str	r1, [r7, #8]
	str	r2, [r7, #4]
	ldr	r3, [r7, #12]
	ldr	r2, [r7, #8]
	str	r2, [r3, #16]
	ldr	r3, [r7, #12]
	ldr	r2, [r7, #4]
	str	r2, [r3, #20]
	adds	r7, r7, #20
	mov	sp, r7
	@ sp needed
	ldr	r7, [sp], #4
	bx	lr
	.cantunwind
	.fnend
	.size	_ZN2OT18hb_apply_context_t9matcher_t14set_match_funcEPFbjRKNS_7IntTypeItLj2EEEPKvES7_, .-_ZN2OT18hb_apply_context_t9matcher_t14set_match_funcEPFbjRKNS_7IntTypeItLj2EEEPKvES7_
	.section	.text._ZNK2OT18hb_apply_context_t9matcher_t9may_matchERK15hb_glyph_info_tPKNS_7IntTypeItLj2EEE,"axG",%progbits,_ZNK2OT18hb_apply_context_t9matcher_t9may_matchERK15hb_glyph_info_tPKNS_7IntTypeItLj2EEE,comdat
	.align	2
	.weak	_ZNK2OT18hb_apply_context_t9matcher_t9may_matchERK15hb_glyph_info_tPKNS_7IntTypeItLj2EEE
	.thumb
	.thumb_func
	.type	_ZNK2OT18hb_apply_context_t9matcher_t9may_matchERK15hb_glyph_info_tPKNS_7IntTypeItLj2EEE, %function
_ZNK2OT18hb_apply_context_t9matcher_t9may_matchERK15hb_glyph_info_tPKNS_7IntTypeItLj2EEE:
	.fnstart
.LFB555:
	@ args = 0, pretend = 0, frame = 16
	@ frame_needed = 1, uses_anonymous_args = 0
	push	{r7, lr}
	.save {r7, lr}
	.pad #16
	sub	sp, sp, #16
	.setfp r7, sp, #0
	add	r7, sp, #0
	str	r0, [r7, #12]
	str	r1, [r7, #8]
	str	r2, [r7, #4]
	ldr	r3, [r7, #8]
	ldr	r2, [r3, #4]
	ldr	r3, [r7, #12]
	ldr	r3, [r3, #8]
	ands	r3, r3, r2
	cmp	r3, #0
	beq	.L764
	ldr	r3, [r7, #12]
	ldrb	r3, [r3, #12]	@ zero_extendqisi2
	cmp	r3, #0
	beq	.L765
	ldr	r3, [r7, #12]
	ldrb	r2, [r3, #12]	@ zero_extendqisi2
	ldr	r3, [r7, #8]
	ldrb	r3, [r3, #15]	@ zero_extendqisi2
	cmp	r2, r3
	beq	.L765
.L764:
	movs	r3, #0
	b	.L766
.L765:
	ldr	r3, [r7, #12]
	ldr	r3, [r3, #16]
	cmp	r3, #0
	beq	.L767
	ldr	r3, [r7, #12]
	ldr	r3, [r3, #16]
	ldr	r2, [r7, #8]
	ldr	r1, [r2]
	ldr	r2, [r7, #12]
	ldr	r2, [r2, #20]
	mov	r0, r1
	ldr	r1, [r7, #4]
	blx	r3
	mov	r3, r0
	cmp	r3, #0
	beq	.L768
	movs	r3, #1
	b	.L769
.L768:
	movs	r3, #0
.L769:
	b	.L766
.L767:
	movs	r3, #2
.L766:
	mov	r0, r3
	adds	r7, r7, #16
	mov	sp, r7
	@ sp needed
	pop	{r7, pc}
	.fnend
	.size	_ZNK2OT18hb_apply_context_t9matcher_t9may_matchERK15hb_glyph_info_tPKNS_7IntTypeItLj2EEE, .-_ZNK2OT18hb_apply_context_t9matcher_t9may_matchERK15hb_glyph_info_tPKNS_7IntTypeItLj2EEE
	.section	.text._ZNK2OT18hb_apply_context_t9matcher_t8may_skipEPKS0_RK15hb_glyph_info_t,"axG",%progbits,_ZNK2OT18hb_apply_context_t9matcher_t8may_skipEPKS0_RK15hb_glyph_info_t,comdat
	.align	2
	.weak	_ZNK2OT18hb_apply_context_t9matcher_t8may_skipEPKS0_RK15hb_glyph_info_t
	.thumb
	.thumb_func
	.type	_ZNK2OT18hb_apply_context_t9matcher_t8may_skipEPKS0_RK15hb_glyph_info_t, %function
_ZNK2OT18hb_apply_context_t9matcher_t8may_skipEPKS0_RK15hb_glyph_info_t:
	.fnstart
.LFB556:
	@ args = 0, pretend = 0, frame = 16
	@ frame_needed = 1, uses_anonymous_args = 0
	push	{r7, lr}
	.save {r7, lr}
	.pad #16
	sub	sp, sp, #16
	.setfp r7, sp, #0
	add	r7, sp, #0
	str	r0, [r7, #12]
	str	r1, [r7, #8]
	str	r2, [r7, #4]
	ldr	r3, [r7, #12]
