	.syntax unified
	.arch armv7-a
	.eabi_attribute 27, 3
	.eabi_attribute 28, 1
	.fpu vfpv3-d16
	.eabi_attribute 20, 1
	.eabi_attribute 21, 1
	.eabi_attribute 23, 3
	.eabi_attribute 24, 1
	.eabi_attribute 25, 1
	.eabi_attribute 26, 2
	.eabi_attribute 30, 6
	.eabi_attribute 34, 1
	.eabi_attribute 18, 4
	.thumb
	.file	"truetype.c"
	.section	.rodata
	.align	2
.LC4:
	.ascii	"interpreter-version\000"
	.section	.text.tt_property_set,"ax",%progbits
	.align	2
	.thumb
	.thumb_func
	.type	tt_property_set, %function
tt_property_set:
	@ args = 0, pretend = 0, frame = 32
	@ frame_needed = 1, uses_anonymous_args = 0
	push	{r7, lr}
	sub	sp, sp, #32
	add	r7, sp, #0
	str	r0, [r7, #12]
	str	r1, [r7, #8]
	str	r2, [r7, #4]
	movs	r3, #0
	str	r3, [r7, #28]
	ldr	r3, [r7, #12]
	str	r3, [r7, #24]
	ldr	r0, [r7, #8]
	ldr	r3, .L4
.LPIC0:
	add	r3, pc
	mov	r1, r3
	bl	strcmp(PLT)
	mov	r3, r0
	cmp	r3, #0
	bne	.L2
	ldr	r3, [r7, #4]
	str	r3, [r7, #20]
	ldr	r3, [r7, #20]
	ldr	r2, [r3]
	ldr	r3, [r7, #24]
	str	r2, [r3, #64]
	ldr	r3, [r7, #28]
	b	.L3
.L2:
	movs	r3, #12
.L3:
	mov	r0, r3
	adds	r7, r7, #32
	mov	sp, r7
	@ sp needed
	pop	{r7, pc}
.L5:
	.align	2
.L4:
	.word	.LC4-(.LPIC0+4)
	.size	tt_property_set, .-tt_property_set
	.section	.text.tt_property_get,"ax",%progbits
	.align	2
	.thumb
	.thumb_func
	.type	tt_property_get, %function
tt_property_get:
	@ args = 0, pretend = 0, frame = 32
	@ frame_needed = 1, uses_anonymous_args = 0
	push	{r7, lr}
	sub	sp, sp, #32
	add	r7, sp, #0
	str	r0, [r7, #12]
	str	r1, [r7, #8]
	str	r2, [r7, #4]
	movs	r3, #0
	str	r3, [r7, #28]
	ldr	r3, [r7, #12]
	str	r3, [r7, #24]
	ldr	r3, [r7, #24]
	ldr	r3, [r3, #64]
	str	r3, [r7, #20]
	ldr	r0, [r7, #8]
	ldr	r3, .L9
.LPIC1:
	add	r3, pc
	mov	r1, r3
	bl	strcmp(PLT)
	mov	r3, r0
	cmp	r3, #0
	bne	.L7
	ldr	r3, [r7, #4]
	str	r3, [r7, #16]
	ldr	r3, [r7, #16]
	ldr	r2, [r7, #20]
	str	r2, [r3]
	ldr	r3, [r7, #28]
	b	.L8
.L7:
	movs	r3, #12
.L8:
	mov	r0, r3
	adds	r7, r7, #32
	mov	sp, r7
	@ sp needed
	pop	{r7, pc}
.L10:
	.align	2
.L9:
	.word	.LC4-(.LPIC1+4)
	.size	tt_property_get, .-tt_property_get
	.section	.data.rel.ro.local.tt_service_properties,"aw",%progbits
	.align	2
	.type	tt_service_properties, %object
	.size	tt_service_properties, 8
tt_service_properties:
	.word	tt_property_set
	.word	tt_property_get
	.section	.text.tt_get_kerning,"ax",%progbits
	.align	2
	.thumb
	.thumb_func
	.type	tt_get_kerning, %function
tt_get_kerning:
	@ args = 0, pretend = 0, frame = 24
	@ frame_needed = 1, uses_anonymous_args = 0
	push	{r7, lr}
	sub	sp, sp, #24
	add	r7, sp, #0
	str	r0, [r7, #12]
	str	r1, [r7, #8]
	str	r2, [r7, #4]
	str	r3, [r7]
	ldr	r3, [r7, #12]
	str	r3, [r7, #20]
	ldr	r3, [r7, #20]
	ldr	r3, [r3, #532]
	str	r3, [r7, #16]
	ldr	r3, [r7]
	movs	r2, #0
	str	r2, [r3]
	ldr	r3, [r7]
	movs	r2, #0
	str	r2, [r3, #4]
	ldr	r3, [r7, #16]
	cmp	r3, #0
	beq	.L12
	ldr	r3, [r7, #16]
	ldr	r3, [r3, #84]
	ldr	r0, [r7, #20]
	ldr	r1, [r7, #8]
	ldr	r2, [r7, #4]
	blx	r3
	mov	r2, r0
	ldr	r3, [r7]
	str	r2, [r3]
.L12:
	movs	r3, #0
	mov	r0, r3
	adds	r7, r7, #24
	mov	sp, r7
	@ sp needed
	pop	{r7, pc}
	.size	tt_get_kerning, .-tt_get_kerning
	.section	.text.tt_get_advances,"ax",%progbits
	.align	2
	.thumb
	.thumb_func
	.type	tt_get_advances, %function
tt_get_advances:
	@ args = 4, pretend = 0, frame = 32
	@ frame_needed = 1, uses_anonymous_args = 0
	push	{r7, lr}
	sub	sp, sp, #40
	add	r7, sp, #8
	str	r0, [r7, #12]
	str	r1, [r7, #8]
	str	r2, [r7, #4]
	str	r3, [r7]
	ldr	r3, [r7, #12]
	str	r3, [r7, #24]
	ldr	r3, [r7]
	and	r3, r3, #16
	cmp	r3, #0
	beq	.L15
	movs	r3, #0
	str	r3, [r7, #28]
	b	.L16
.L17:
	ldr	r2, [r7, #8]
	ldr	r3, [r7, #28]
	add	r2, r2, r3
	add	r3, r7, #22
	add	r1, r7, #20
	str	r1, [sp]
	ldr	r0, [r7, #24]
	mov	r1, r2
	movs	r2, #0
	bl	TT_Get_VMetrics(PLT)
	ldr	r3, [r7, #28]
	lsls	r3, r3, #2
	ldr	r2, [r7, #40]
	add	r3, r3, r2
	ldrh	r2, [r7, #20]
	str	r2, [r3]
	ldr	r3, [r7, #28]
	adds	r3, r3, #1
	str	r3, [r7, #28]
.L16:
	ldr	r2, [r7, #28]
	ldr	r3, [r7, #4]
	cmp	r2, r3
	bcc	.L17
	b	.L18
.L15:
	movs	r3, #0
	str	r3, [r7, #28]
	b	.L19
.L20:
	ldr	r2, [r7, #8]
	ldr	r3, [r7, #28]
	adds	r1, r2, r3
	add	r2, r7, #18
	add	r3, r7, #16
	ldr	r0, [r7, #24]
	bl	TT_Get_HMetrics(PLT)
	ldr	r3, [r7, #28]
	lsls	r3, r3, #2
	ldr	r2, [r7, #40]
	add	r3, r3, r2
	ldrh	r2, [r7, #16]
	str	r2, [r3]
	ldr	r3, [r7, #28]
	adds	r3, r3, #1
	str	r3, [r7, #28]
.L19:
	ldr	r2, [r7, #28]
	ldr	r3, [r7, #4]
	cmp	r2, r3
	bcc	.L20
.L18:
	movs	r3, #0
	mov	r0, r3
	adds	r7, r7, #32
	mov	sp, r7
	@ sp needed
	pop	{r7, pc}
	.size	tt_get_advances, .-tt_get_advances
	.section	.text.tt_size_select,"ax",%progbits
	.align	2
	.thumb
	.thumb_func
	.type	tt_size_select, %function
tt_size_select:
	@ args = 0, pretend = 0, frame = 32
	@ frame_needed = 1, uses_anonymous_args = 0
	push	{r7, lr}
	sub	sp, sp, #32
	add	r7, sp, #0
	str	r0, [r7, #4]
	str	r1, [r7]
	ldr	r3, [r7, #4]
	ldr	r3, [r3]
	str	r3, [r7, #24]
	ldr	r3, [r7, #4]
	str	r3, [r7, #20]
	movs	r3, #0
	str	r3, [r7, #28]
	ldr	r3, [r7, #20]
	ldr	r2, [r7]
	str	r2, [r3, #112]
	ldr	r3, [r7, #4]
	ldr	r3, [r3]
	ldr	r3, [r3, #8]
	and	r3, r3, #1
	cmp	r3, #0
	beq	.L23
	ldr	r3, [r7, #4]
	ldr	r3, [r3]
	mov	r0, r3
	ldr	r1, [r7]
	bl	FT_Select_Metrics(PLT)
	ldr	r0, [r7, #20]
	bl	tt_size_reset(PLT)
	b	.L24
.L23:
	ldr	r3, [r7, #24]
	ldr	r3, [r3, #532]
	str	r3, [r7, #16]
	ldr	r3, [r7, #4]
	adds	r3, r3, #12
	str	r3, [r7, #12]
	ldr	r3, [r7, #16]
	ldr	r3, [r3, #108]
	ldr	r0, [r7, #24]
	ldr	r1, [r7]
	ldr	r2, [r7, #12]
	blx	r3
	str	r0, [r7, #28]
	ldr	r3, [r7, #28]
	cmp	r3, #0
	beq	.L24
	ldr	r3, [r7, #20]
	mov	r2, #-1
	str	r2, [r3, #112]
.L24:
	ldr	r3, [r7, #28]
	mov	r0, r3
	adds	r7, r7, #32
	mov	sp, r7
	@ sp needed
	pop	{r7, pc}
	.size	tt_size_select, .-tt_size_select
	.section	.text.tt_size_request,"ax",%progbits
	.align	2
	.thumb
	.thumb_func
	.type	tt_size_request, %function
tt_size_request:
	@ args = 0, pretend = 0, frame = 32
	@ frame_needed = 1, uses_anonymous_args = 0
	push	{r4, r5, r7, lr}
	sub	sp, sp, #32
	add	r7, sp, #0
	str	r0, [r7, #4]
	str	r1, [r7]
	ldr	r3, [r7, #4]
	str	r3, [r7, #24]
	movs	r3, #0
	str	r3, [r7, #28]
	ldr	r3, [r7, #4]
	ldr	r3, [r3]
	ldr	r3, [r3, #8]
	and	r3, r3, #2
	cmp	r3, #0
	beq	.L27
	ldr	r3, [r7, #4]
	ldr	r3, [r3]
	str	r3, [r7, #20]
	ldr	r3, [r7, #20]
	ldr	r3, [r3, #532]
	str	r3, [r7, #16]
	ldr	r3, [r7, #16]
	ldr	r3, [r3, #104]
	add	r2, r7, #12
	ldr	r0, [r7, #20]
	ldr	r1, [r7]
	blx	r3
	str	r0, [r7, #28]
	ldr	r3, [r7, #28]
	cmp	r3, #0
	beq	.L28
	ldr	r3, [r7, #24]
	mov	r2, #-1
	str	r2, [r3, #112]
	b	.L27
.L28:
	ldr	r3, [r7, #12]
	ldr	r0, [r7, #4]
	mov	r1, r3
	bl	tt_size_select(PLT)
	mov	r3, r0
	b	.L29
.L27:
	ldr	r3, [r7, #4]
	ldr	r3, [r3]
	mov	r0, r3
	ldr	r1, [r7]
	bl	FT_Request_Metrics(PLT)
	ldr	r3, [r7, #4]
	ldr	r3, [r3]
	ldr	r3, [r3, #8]
	and	r3, r3, #1
	cmp	r3, #0
	beq	.L30
	ldr	r0, [r7, #24]
	bl	tt_size_reset(PLT)
	str	r0, [r7, #28]
	ldr	r2, [r7, #24]
	ldr	r3, [r7, #24]
	add	r4, r2, #12
	add	r5, r3, #44
	ldmia	r5!, {r0, r1, r2, r3}
	stmia	r4!, {r0, r1, r2, r3}
	ldmia	r5, {r0, r1, r2}
	stmia	r4, {r0, r1, r2}
.L30:
	ldr	r3, [r7, #28]
.L29:
	mov	r0, r3
	adds	r7, r7, #32
	mov	sp, r7
	@ sp needed
	pop	{r4, r5, r7, pc}
	.size	tt_size_request, .-tt_size_request
	.section	.text.tt_glyph_load,"ax",%progbits
	.align	2
	.thumb
	.thumb_func
	.type	tt_glyph_load, %function
tt_glyph_load:
	@ args = 0, pretend = 0, frame = 32
	@ frame_needed = 1, uses_anonymous_args = 0
	push	{r7, lr}
	sub	sp, sp, #32
	add	r7, sp, #0
	str	r0, [r7, #12]
	str	r1, [r7, #8]
	str	r2, [r7, #4]
	str	r3, [r7]
	ldr	r3, [r7, #12]
	str	r3, [r7, #28]
	ldr	r3, [r7, #8]
	str	r3, [r7, #24]
	ldr	r3, [r7, #12]
	ldr	r3, [r3, #4]
	str	r3, [r7, #20]
	ldr	r3, [r7, #28]
	cmp	r3, #0
	bne	.L32
	movs	r3, #37
	b	.L33
.L32:
	ldr	r3, [r7, #24]
	cmp	r3, #0
	bne	.L34
	movs	r3, #36
	b	.L33
.L34:
	ldr	r3, [r7, #20]
	cmp	r3, #0
	bne	.L35
	movs	r3, #35
	b	.L33
.L35:
	ldr	r3, [r7, #20]
	ldr	r3, [r3, #16]
	mov	r2, r3
	ldr	r3, [r7, #4]
	cmp	r2, r3
	bhi	.L36
	ldr	r3, [r7, #20]
	ldr	r3, [r3, #128]
	ldr	r3, [r3, #48]
	cmp	r3, #0
	bne	.L36
	movs	r3, #6
	b	.L33
.L36:
	ldr	r3, [r7]
	and	r3, r3, #2
	cmp	r3, #0
	beq	.L37
	ldr	r3, [r7, #20]
	ldr	r3, [r3, #8]
	and	r3, r3, #8192
	cmp	r3, #0
	beq	.L38
	ldr	r3, [r7]
	bic	r3, r3, #2
	str	r3, [r7]
.L38:
	ldr	r3, [r7]
	and	r3, r3, #32768
	cmp	r3, #0
	beq	.L37
	ldr	r3, [r7]
	orr	r3, r3, #2
	str	r3, [r7]
.L37:
	ldr	r2, [r7]
	movw	r3, #1025
	ands	r3, r3, r2
	cmp	r3, #0
	beq	.L39
	ldr	r3, [r7]
	orr	r3, r3, #9
	str	r3, [r7]
	ldr	r3, [r7, #20]
	ldr	r3, [r3, #8]
	and	r3, r3, #8192
	cmp	r3, #0
	bne	.L39
	ldr	r3, [r7]
	orr	r3, r3, #2
	str	r3, [r7]
.L39:
	ldr	r0, [r7, #24]
	ldr	r1, [r7, #28]
	ldr	r2, [r7, #4]
	ldr	r3, [r7]
	bl	TT_Load_Glyph(PLT)
	str	r0, [r7, #16]
	ldr	r3, [r7, #16]
.L33:
	mov	r0, r3
	adds	r7, r7, #32
	mov	sp, r7
	@ sp needed
	pop	{r7, pc}
	.size	tt_glyph_load, .-tt_glyph_load
	.section	.data.rel.ro.local.tt_service_gx_multi_masters,"aw",%progbits
	.align	2
	.type	tt_service_gx_multi_masters, %object
	.size	tt_service_gx_multi_masters, 20
tt_service_gx_multi_masters:
	.word	0
	.word	0
	.word	TT_Set_MM_Blend
	.word	TT_Get_MM_Var
	.word	TT_Set_Var_Design
	.section	.rodata.tt_service_truetype_engine,"a",%progbits
	.align	2
	.type	tt_service_truetype_engine, %object
	.size	tt_service_truetype_engine, 4
tt_service_truetype_engine:
	.word	2
	.section	.data.rel.ro.local.tt_service_truetype_glyf,"aw",%progbits
	.align	2
	.type	tt_service_truetype_glyf, %object
	.size	tt_service_truetype_glyf, 4
tt_service_truetype_glyf:
	.word	tt_face_get_location
	.section	.rodata
	.align	2
.LC5:
	.ascii	"font-format\000"
	.align	2
.LC6:
	.ascii	"TrueType\000"
	.align	2
.LC7:
	.ascii	"multi-masters\000"
	.align	2
.LC8:
	.ascii	"truetype-engine\000"
	.align	2
.LC9:
	.ascii	"tt-glyf\000"
	.align	2
.LC10:
	.ascii	"properties\000"
	.section	.data.rel.ro.local.tt_services,"aw",%progbits
	.align	2
	.type	tt_services, %object
	.size	tt_services, 48
tt_services:
	.word	.LC5
	.word	.LC6
	.word	.LC7
	.word	tt_service_gx_multi_masters
	.word	.LC8
	.word	tt_service_truetype_engine
	.word	.LC9
	.word	tt_service_truetype_glyf
	.word	.LC10
	.word	tt_service_properties
	.word	0
	.word	0
	.section	.rodata
	.align	2
.LC11:
	.ascii	"sfnt\000"
	.section	.text.tt_get_interface,"ax",%progbits
	.align	2
	.thumb
	.thumb_func
	.type	tt_get_interface, %function
tt_get_interface:
	@ args = 0, pretend = 0, frame = 24
	@ frame_needed = 1, uses_anonymous_args = 0
	push	{r7, lr}
	sub	sp, sp, #24
	add	r7, sp, #0
	str	r0, [r7, #4]
	str	r1, [r7]
	ldr	r3, .L46
.LPIC2:
	add	r3, pc
	mov	r0, r3
	ldr	r1, [r7]
	bl	ft_service_list_lookup(PLT)
	str	r0, [r7, #20]
	ldr	r3, [r7, #20]
	cmp	r3, #0
	beq	.L41
	ldr	r3, [r7, #20]
	b	.L42
.L41:
	ldr	r3, [r7, #4]
	cmp	r3, #0
	bne	.L43
	movs	r3, #0
	b	.L42
.L43:
	ldr	r3, [r7, #4]
	ldr	r3, [r3, #4]
	str	r3, [r7, #16]
	ldr	r3, [r7, #16]
	cmp	r3, #0
	bne	.L44
	movs	r3, #0
	b	.L42
.L44:
	ldr	r0, [r7, #16]
	ldr	r3, .L46+4
.LPIC3:
	add	r3, pc
	mov	r1, r3
	bl	FT_Get_Module(PLT)
	str	r0, [r7, #12]
	ldr	r3, [r7, #12]
	cmp	r3, #0
	beq	.L45
	ldr	r3, [r7, #12]
	ldr	r3, [r3]
	ldr	r3, [r3, #20]
	str	r3, [r7, #8]
	ldr	r3, [r7, #8]
	cmp	r3, #0
	beq	.L45
	ldr	r3, [r7, #8]
	ldr	r3, [r3, #16]
	ldr	r0, [r7, #4]
	ldr	r1, [r7]
	blx	r3
	mov	r3, r0
	b	.L42
.L45:
	movs	r3, #0
.L42:
	mov	r0, r3
	adds	r7, r7, #24
	mov	sp, r7
	@ sp needed
	pop	{r7, pc}
.L47:
	.align	2
.L46:
	.word	tt_services-(.LPIC2+4)
	.word	.LC11-(.LPIC3+4)
	.size	tt_get_interface, .-tt_get_interface
	.global	tt_driver_class
	.section	.rodata
	.align	2
.LC12:
	.ascii	"truetype\000"
	.section	.data.rel.ro.local.tt_driver_class,"aw",%progbits
	.align	2
	.type	tt_driver_class, %object
	.size	tt_driver_class, 96
tt_driver_class:
	.word	1281
	.word	68
	.word	.LC12
	.word	65536
	.word	131072
	.word	0
	.word	tt_driver_init
	.word	tt_driver_done
	.word	tt_get_interface
	.word	800
	.word	304
	.word	160
	.word	tt_face_init
	.word	tt_face_done
	.word	tt_size_init
	.word	tt_size_done
	.word	tt_slot_init
	.word	0
	.word	tt_glyph_load
	.word	tt_get_kerning
	.word	0
	.word	tt_get_advances
	.word	tt_size_request
	.word	tt_size_select
	.section	.text.tt_face_load_loca,"ax",%progbits
	.align	2
	.thumb
	.thumb_func
	.type	tt_face_load_loca, %function
tt_face_load_loca:
	@ args = 0, pretend = 0, frame = 48
	@ frame_needed = 1, uses_anonymous_args = 0
	push	{r4, r7, lr}
	sub	sp, sp, #52
	add	r7, sp, #0
	str	r0, [r7, #4]
	str	r1, [r7]
	ldr	r3, [r7, #4]
	ldr	r4, [r3, #508]
	ldr	r3, [r7, #4]
	add	r3, r3, #668
	ldr	r0, [r7, #4]
	movw	r1, #31078
	movt	r1, 26476
	ldr	r2, [r7]
	blx	r4
	str	r0, [r7, #44]
	ldr	r3, [r7, #44]
	uxtb	r3, r3
	cmp	r3, #142
	bne	.L49
	ldr	r3, [r7, #4]
	movs	r2, #0
	str	r2, [r3, #668]
	b	.L50
.L49:
	ldr	r3, [r7, #44]
	cmp	r3, #0
	beq	.L50
	b	.L51
.L50:
	ldr	r3, [r7, #4]
	ldr	r4, [r3, #508]
	add	r3, r7, #8
	ldr	r0, [r7, #4]
	movw	r1, #25441
	movt	r1, 27759
	ldr	r2, [r7]
	blx	r4
	str	r0, [r7, #44]
	ldr	r3, [r7, #44]
	cmp	r3, #0
	beq	.L52
	movs	r3, #144
	str	r3, [r7, #44]
	b	.L51
.L52:
	ldr	r3, [r7, #4]
	ldrh	r3, [r3, #210]
	cmp	r3, #0
	beq	.L53
	movs	r3, #2
	str	r3, [r7, #40]
	ldr	r3, [r7, #8]
	cmp	r3, #262144
	bcc	.L54
	movs	r3, #8
	str	r3, [r7, #44]
	b	.L51
.L54:
	ldr	r2, [r7, #8]
	ldr	r3, [r7, #40]
	lsrs	r2, r2, r3
	ldr	r3, [r7, #4]
	str	r2, [r3, #696]
	b	.L55
.L53:
	movs	r3, #1
	str	r3, [r7, #40]
	ldr	r3, [r7, #8]
	cmp	r3, #131072
	bcc	.L56
	movs	r3, #8
	str	r3, [r7, #44]
	b	.L51
.L56:
	ldr	r2, [r7, #8]
	ldr	r3, [r7, #40]
	lsrs	r2, r2, r3
	ldr	r3, [r7, #4]
	str	r2, [r3, #696]
.L55:
	ldr	r3, [r7, #4]
	ldr	r2, [r3, #696]
	ldr	r3, [r7, #4]
	ldr	r3, [r3, #16]
	adds	r3, r3, #1
	cmp	r2, r3
	beq	.L57
	ldr	r3, [r7, #4]
	ldr	r2, [r3, #696]
	ldr	r3, [r7, #4]
	ldr	r3, [r3, #16]
	cmp	r2, r3
	bhi	.L57
	ldr	r3, [r7, #4]
	ldr	r3, [r3, #16]
	adds	r2, r3, #1
	ldr	r3, [r7, #40]
	lsl	r3, r2, r3
	str	r3, [r7, #24]
	ldr	r3, [r7, #4]
	ldr	r3, [r3, #156]
	str	r3, [r7, #36]
	ldr	r3, [r7, #4]
	ldrh	r3, [r3, #152]
	lsls	r3, r3, #4
	ldr	r2, [r7, #36]
	add	r3, r3, r2
	str	r3, [r7, #20]
	ldr	r0, [r7]
	bl	FT_Stream_Pos(PLT)
	mov	r3, r0
	str	r3, [r7, #16]
	mvn	r3, #-2147483648
	str	r3, [r7, #32]
	movs	r3, #0
	strb	r3, [r7, #31]
	b	.L58
.L60:
	ldr	r3, [r7, #36]
	ldr	r3, [r3, #8]
	mov	r2, r3
	ldr	r3, [r7, #16]
	subs	r3, r2, r3
	str	r3, [r7, #12]
	ldr	r3, [r7, #12]
	cmp	r3, #0
	ble	.L59
	ldr	r2, [r7, #12]
	ldr	r3, [r7, #32]
	cmp	r2, r3
	bge	.L59
	ldr	r3, [r7, #12]
	str	r3, [r7, #32]
	movs	r3, #1
	strb	r3, [r7, #31]
.L59:
	ldr	r3, [r7, #36]
	adds	r3, r3, #16
	str	r3, [r7, #36]
.L58:
	ldr	r2, [r7, #36]
	ldr	r3, [r7, #20]
	cmp	r2, r3
	bcc	.L60
	ldrb	r3, [r7, #31]	@ zero_extendqisi2
	cmp	r3, #0
	bne	.L61
	ldr	r3, [r7]
	ldr	r3, [r3, #4]
	mov	r2, r3
	ldr	r3, [r7, #16]
	subs	r3, r2, r3
	str	r3, [r7, #32]
.L61:
	ldr	r2, [r7, #32]
	ldr	r3, [r7, #24]
	cmp	r2, r3
	bcc	.L62
	ldr	r3, [r7, #4]
	ldr	r3, [r3, #16]
	adds	r2, r3, #1
	ldr	r3, [r7, #4]
	str	r2, [r3, #696]
	ldr	r3, [r7, #24]
	str	r3, [r7, #8]
	b	.L57
.L62:
	ldr	r3, [r7, #4]
	ldr	r3, [r3, #696]
	cmp	r3, #0
	beq	.L63
	ldr	r3, [r7, #4]
	ldr	r3, [r3, #696]
	subs	r3, r3, #1
	b	.L64
.L63:
	movs	r3, #0
.L64:
	ldr	r2, [r7, #4]
	str	r3, [r2, #16]
.L57:
	ldr	r2, [r7, #8]
	ldr	r3, [r7, #4]
	add	r3, r3, #700
	ldr	r0, [r7]
	mov	r1, r2
	mov	r2, r3
	bl	FT_Stream_ExtractFrame(PLT)
	str	r0, [r7, #44]
	ldr	r3, [r7, #44]
	cmp	r3, #0
	beq	.L51
	nop
.L51:
	ldr	r3, [r7, #44]
	mov	r0, r3
	adds	r7, r7, #52
	mov	sp, r7
	@ sp needed
	pop	{r4, r7, pc}
	.size	tt_face_load_loca, .-tt_face_load_loca
	.section	.text.tt_face_get_location,"ax",%progbits
	.align	2
	.thumb
	.thumb_func
	.type	tt_face_get_location, %function
tt_face_get_location:
	@ args = 0, pretend = 0, frame = 32
	@ frame_needed = 1, uses_anonymous_args = 0
	@ link register save eliminated.
	push	{r7}
	sub	sp, sp, #36
	add	r7, sp, #0
	str	r0, [r7, #12]
	str	r1, [r7, #8]
	str	r2, [r7, #4]
	movs	r3, #0
	str	r3, [r7, #24]
	ldr	r3, [r7, #24]
	str	r3, [r7, #28]
	ldr	r3, [r7, #12]
	ldr	r2, [r3, #696]
	ldr	r3, [r7, #8]
	cmp	r2, r3
	bls	.L67
	ldr	r3, [r7, #12]
	ldrh	r3, [r3, #210]
	cmp	r3, #0
	beq	.L68
	ldr	r3, [r7, #12]
	ldr	r2, [r3, #700]
	ldr	r3, [r7, #8]
	lsls	r3, r3, #2
	add	r3, r3, r2
	str	r3, [r7, #20]
	ldr	r3, [r7, #12]
	ldr	r2, [r3, #700]
	ldr	r3, [r7, #12]
	ldr	r3, [r3, #696]
	lsls	r3, r3, #2
	add	r3, r3, r2
	str	r3, [r7, #16]
	ldr	r3, [r7, #20]
	adds	r3, r3, #4
	str	r3, [r7, #20]
	ldr	r3, [r7, #20]
	subs	r3, r3, #4
	ldrb	r3, [r3]	@ zero_extendqisi2
	lsls	r2, r3, #24
	ldr	r3, [r7, #20]
	subs	r3, r3, #3
	ldrb	r3, [r3]	@ zero_extendqisi2
	lsls	r3, r3, #16
	orrs	r2, r2, r3
	ldr	r3, [r7, #20]
	subs	r3, r3, #2
	ldrb	r3, [r3]	@ zero_extendqisi2
	lsls	r3, r3, #8
	orrs	r2, r2, r3
	ldr	r3, [r7, #20]
	subs	r3, r3, #1
	ldrb	r3, [r3]	@ zero_extendqisi2
	orrs	r3, r3, r2
	str	r3, [r7, #28]
	ldr	r3, [r7, #28]
	str	r3, [r7, #24]
	ldr	r3, [r7, #20]
	adds	r2, r3, #4
	ldr	r3, [r7, #16]
	cmp	r2, r3
	bhi	.L67
	ldr	r3, [r7, #20]
	adds	r3, r3, #4
	str	r3, [r7, #20]
	ldr	r3, [r7, #20]
	subs	r3, r3, #4
	ldrb	r3, [r3]	@ zero_extendqisi2
	lsls	r2, r3, #24
	ldr	r3, [r7, #20]
	subs	r3, r3, #3
	ldrb	r3, [r3]	@ zero_extendqisi2
	lsls	r3, r3, #16
	orrs	r2, r2, r3
	ldr	r3, [r7, #20]
	subs	r3, r3, #2
	ldrb	r3, [r3]	@ zero_extendqisi2
	lsls	r3, r3, #8
	orrs	r2, r2, r3
	ldr	r3, [r7, #20]
	subs	r3, r3, #1
	ldrb	r3, [r3]	@ zero_extendqisi2
	orrs	r3, r3, r2
	str	r3, [r7, #24]
	b	.L67
.L68:
	ldr	r3, [r7, #12]
	ldr	r2, [r3, #700]
	ldr	r3, [r7, #8]
	lsls	r3, r3, #1
	add	r3, r3, r2
	str	r3, [r7, #20]
	ldr	r3, [r7, #12]
	ldr	r2, [r3, #700]
	ldr	r3, [r7, #12]
	ldr	r3, [r3, #696]
	lsls	r3, r3, #1
	add	r3, r3, r2
	str	r3, [r7, #16]
	ldr	r3, [r7, #20]
	adds	r3, r3, #2
	str	r3, [r7, #20]
	ldr	r3, [r7, #20]
	subs	r3, r3, #2
	ldrb	r3, [r3]	@ zero_extendqisi2
	lsls	r3, r3, #8
	uxth	r2, r3
	ldr	r3, [r7, #20]
	subs	r3, r3, #1
	ldrb	r3, [r3]	@ zero_extendqisi2
	orrs	r3, r3, r2
	uxth	r3, r3
	uxth	r3, r3
	str	r3, [r7, #28]
	ldr	r3, [r7, #28]
	str	r3, [r7, #24]
	ldr	r3, [r7, #20]
	adds	r2, r3, #2
	ldr	r3, [r7, #16]
	cmp	r2, r3
	bhi	.L70
	ldr	r3, [r7, #20]
	adds	r3, r3, #2
	str	r3, [r7, #20]
	ldr	r3, [r7, #20]
	subs	r3, r3, #2
	ldrb	r3, [r3]	@ zero_extendqisi2
	lsls	r3, r3, #8
	uxth	r2, r3
	ldr	r3, [r7, #20]
	subs	r3, r3, #1
	ldrb	r3, [r3]	@ zero_extendqisi2
	orrs	r3, r3, r2
	uxth	r3, r3
	uxth	r3, r3
	str	r3, [r7, #24]
.L70:
	ldr	r3, [r7, #28]
	lsls	r3, r3, #1
	str	r3, [r7, #28]
	ldr	r3, [r7, #24]
	lsls	r3, r3, #1
	str	r3, [r7, #24]
.L67:
	ldr	r3, [r7, #12]
	ldr	r2, [r3, #668]
	ldr	r3, [r7, #28]
	cmp	r2, r3
	bcs	.L71
	ldr	r3, [r7, #4]
	movs	r2, #0
	str	r2, [r3]
	movs	r3, #0
	b	.L72
.L71:
	ldr	r3, [r7, #12]
	ldr	r2, [r3, #668]
	ldr	r3, [r7, #24]
	cmp	r2, r3
	bcs	.L73
	ldr	r3, [r7, #12]
	ldr	r3, [r3, #668]
	str	r3, [r7, #24]
.L73:
	ldr	r2, [r7, #24]
	ldr	r3, [r7, #28]
	cmp	r2, r3
	bcc	.L74
	ldr	r2, [r7, #24]
	ldr	r3, [r7, #28]
	subs	r2, r2, r3
	ldr	r3, [r7, #4]
	str	r2, [r3]
	b	.L75
.L74:
	ldr	r3, [r7, #12]
	ldr	r2, [r3, #668]
	ldr	r3, [r7, #28]
	subs	r2, r2, r3
	ldr	r3, [r7, #4]
	str	r2, [r3]
.L75:
	ldr	r3, [r7, #28]
.L72:
	mov	r0, r3
	adds	r7, r7, #36
	mov	sp, r7
	@ sp needed
	ldr	r7, [sp], #4
	bx	lr
	.size	tt_face_get_location, .-tt_face_get_location
	.section	.text.tt_face_done_loca,"ax",%progbits
	.align	2
	.thumb
	.thumb_func
	.type	tt_face_done_loca, %function
tt_face_done_loca:
	@ args = 0, pretend = 0, frame = 16
	@ frame_needed = 1, uses_anonymous_args = 0
	push	{r7, lr}
	sub	sp, sp, #16
	add	r7, sp, #0
	str	r0, [r7, #4]
	ldr	r3, [r7, #4]
	ldr	r3, [r3, #104]
	str	r3, [r7, #12]
	ldr	r3, [r7, #4]
	add	r3, r3, #700
	ldr	r0, [r7, #12]
	mov	r1, r3
	bl	FT_Stream_ReleaseFrame(PLT)
	ldr	r3, [r7, #4]
	movs	r2, #0
	str	r2, [r3, #696]
	adds	r7, r7, #16
	mov	sp, r7
	@ sp needed
	pop	{r7, pc}
	.size	tt_face_done_loca, .-tt_face_done_loca
	.section	.text.tt_face_load_cvt,"ax",%progbits
	.align	2
	.thumb
	.thumb_func
	.type	tt_face_load_cvt, %function
tt_face_load_cvt:
	@ args = 0, pretend = 0, frame = 32
	@ frame_needed = 1, uses_anonymous_args = 0
	push	{r4, r7, lr}
	sub	sp, sp, #44
	add	r7, sp, #8
	str	r0, [r7, #4]
	str	r1, [r7]
	ldr	r3, [r7]
	ldr	r3, [r3, #28]
	str	r3, [r7, #24]
	ldr	r3, [r7, #4]
	ldr	r4, [r3, #508]
	add	r3, r7, #12
	ldr	r0, [r7, #4]
	movw	r1, #29728
	movt	r1, 25462
	ldr	r2, [r7]
	blx	r4
	mov	r3, r0
	str	r3, [r7, #16]
	ldr	r3, [r7, #16]
	cmp	r3, #0
	beq	.L78
	ldr	r3, [r7, #4]
	movs	r2, #0
	str	r2, [r3, #644]
	ldr	r3, [r7, #4]
	movs	r2, #0
	str	r2, [r3, #648]
	movs	r3, #0
	str	r3, [r7, #16]
	b	.L79
.L78:
	ldr	r3, [r7, #12]
	lsrs	r2, r3, #1
	ldr	r3, [r7, #4]
	str	r2, [r3, #644]
	ldr	r3, [r7, #4]
	ldr	r3, [r3, #644]
	movs	r2, #0
	str	r2, [sp]
	add	r2, r7, #16
	str	r2, [sp, #4]
	ldr	r0, [r7, #24]
	movs	r1, #2
	movs	r2, #0
	bl	ft_mem_realloc(PLT)
	mov	r2, r0
	ldr	r3, [r7, #4]
	str	r2, [r3, #648]
	ldr	r3, [r7, #16]
	cmp	r3, #0
	beq	.L80
	b	.L79
.L80:
	ldr	r3, [r7, #4]
	ldr	r3, [r3, #644]
	lsls	r3, r3, #1
	ldr	r0, [r7]
	mov	r1, r3
	bl	FT_Stream_EnterFrame(PLT)
	mov	r3, r0
	str	r3, [r7, #16]
	ldr	r3, [r7, #16]
	cmp	r3, #0
	beq	.L81
	b	.L79
.L81:
	ldr	r3, [r7, #4]
	ldr	r3, [r3, #648]
	str	r3, [r7, #28]
	ldr	r3, [r7, #4]
	ldr	r3, [r3, #644]
	lsls	r3, r3, #1
	ldr	r2, [r7, #28]
	add	r3, r3, r2
	str	r3, [r7, #20]
	b	.L82
.L83:
	ldr	r0, [r7]
	bl	FT_Stream_GetUShort(PLT)
	mov	r3, r0
	uxth	r2, r3
	ldr	r3, [r7, #28]
	strh	r2, [r3]	@ movhi
	ldr	r3, [r7, #28]
	adds	r3, r3, #2
	str	r3, [r7, #28]
.L82:
	ldr	r2, [r7, #28]
	ldr	r3, [r7, #20]
	cmp	r2, r3
	bcc	.L83
	ldr	r0, [r7]
	bl	FT_Stream_ExitFrame(PLT)
	ldr	r3, [r7, #4]
	ldrb	r3, [r3, #672]	@ zero_extendqisi2
	cmp	r3, #0
	beq	.L79
	ldr	r0, [r7, #4]
	ldr	r1, [r7]
	bl	tt_face_vary_cvt(PLT)
	mov	r3, r0
	str	r3, [r7, #16]
.L79:
	ldr	r3, [r7, #16]
	mov	r0, r3
	adds	r7, r7, #36
	mov	sp, r7
	@ sp needed
	pop	{r4, r7, pc}
	.size	tt_face_load_cvt, .-tt_face_load_cvt
	.section	.text.tt_face_load_fpgm,"ax",%progbits
	.align	2
	.thumb
	.thumb_func
	.type	tt_face_load_fpgm, %function
tt_face_load_fpgm:
	@ args = 0, pretend = 0, frame = 16
	@ frame_needed = 1, uses_anonymous_args = 0
	push	{r4, r7, lr}
	sub	sp, sp, #20
	add	r7, sp, #0
	str	r0, [r7, #4]
	str	r1, [r7]
	ldr	r3, [r7, #4]
	ldr	r4, [r3, #508]
	add	r3, r7, #8
	ldr	r0, [r7, #4]
	movw	r1, #26477
	movt	r1, 26224
	ldr	r2, [r7]
	blx	r4
	str	r0, [r7, #12]
	ldr	r3, [r7, #12]
	cmp	r3, #0
	beq	.L86
	ldr	r3, [r7, #4]
	movs	r2, #0
	str	r2, [r3, #632]
	ldr	r3, [r7, #4]
	movs	r2, #0
	str	r2, [r3, #628]
	movs	r3, #0
	str	r3, [r7, #12]
	b	.L87
.L86:
	ldr	r2, [r7, #8]
	ldr	r3, [r7, #4]
	str	r2, [r3, #628]
	ldr	r2, [r7, #8]
	ldr	r3, [r7, #4]
	add	r3, r3, #632
	ldr	r0, [r7]
	mov	r1, r2
	mov	r2, r3
	bl	FT_Stream_ExtractFrame(PLT)
	str	r0, [r7, #12]
	ldr	r3, [r7, #12]
	cmp	r3, #0
	beq	.L87
	nop
.L87:
	ldr	r3, [r7, #12]
	mov	r0, r3
	adds	r7, r7, #20
	mov	sp, r7
	@ sp needed
	pop	{r4, r7, pc}
	.size	tt_face_load_fpgm, .-tt_face_load_fpgm
	.section	.text.tt_face_load_prep,"ax",%progbits
	.align	2
	.thumb
	.thumb_func
	.type	tt_face_load_prep, %function
tt_face_load_prep:
	@ args = 0, pretend = 0, frame = 16
	@ frame_needed = 1, uses_anonymous_args = 0
	push	{r4, r7, lr}
	sub	sp, sp, #20
	add	r7, sp, #0
	str	r0, [r7, #4]
	str	r1, [r7]
	ldr	r3, [r7, #4]
	ldr	r4, [r3, #508]
	add	r3, r7, #8
	ldr	r0, [r7, #4]
	movw	r1, #25968
	movt	r1, 28786
	ldr	r2, [r7]
	blx	r4
	str	r0, [r7, #12]
	ldr	r3, [r7, #12]
	cmp	r3, #0
	beq	.L90
	ldr	r3, [r7, #4]
	movs	r2, #0
	str	r2, [r3, #640]
	ldr	r3, [r7, #4]
	movs	r2, #0
	str	r2, [r3, #636]
	movs	r3, #0
	str	r3, [r7, #12]
	b	.L91
.L90:
	ldr	r2, [r7, #8]
	ldr	r3, [r7, #4]
	str	r2, [r3, #636]
	ldr	r2, [r7, #8]
	ldr	r3, [r7, #4]
	add	r3, r3, #640
	ldr	r0, [r7]
	mov	r1, r2
	mov	r2, r3
	bl	FT_Stream_ExtractFrame(PLT)
	str	r0, [r7, #12]
	ldr	r3, [r7, #12]
	cmp	r3, #0
	beq	.L91
	nop
.L91:
	ldr	r3, [r7, #12]
	mov	r0, r3
	adds	r7, r7, #20
	mov	sp, r7
	@ sp needed
	pop	{r4, r7, pc}
	.size	tt_face_load_prep, .-tt_face_load_prep
	.section	.text.tt_face_load_hdmx,"ax",%progbits
	.align	2
	.thumb
	.thumb_func
	.type	tt_face_load_hdmx, %function
tt_face_load_hdmx:
	@ args = 0, pretend = 0, frame = 48
	@ frame_needed = 1, uses_anonymous_args = 0
	push	{r4, r7, lr}
	sub	sp, sp, #60
	add	r7, sp, #8
	str	r0, [r7, #4]
	str	r1, [r7]
	ldr	r3, [r7]
	ldr	r3, [r3, #28]
	str	r3, [r7, #32]
	ldr	r3, [r7, #4]
	ldr	r4, [r3, #508]
	add	r3, r7, #12
	ldr	r0, [r7, #4]
	movw	r1, #28024
	movt	r1, 26724
	ldr	r2, [r7]
	blx	r4
	mov	r3, r0
	str	r3, [r7, #16]
	ldr	r3, [r7, #16]
	cmp	r3, #0
	bne	.L94
	ldr	r3, [r7, #12]
	cmp	r3, #7
	bhi	.L95
.L94:
	movs	r3, #0
	b	.L108
.L95:
	ldr	r2, [r7, #12]
	ldr	r3, [r7, #4]
	add	r3, r3, #704
	ldr	r0, [r7]
	mov	r1, r2
	mov	r2, r3
	bl	FT_Stream_ExtractFrame(PLT)
	mov	r3, r0
	str	r3, [r7, #16]
	ldr	r3, [r7, #16]
	cmp	r3, #0
	beq	.L97
	b	.L98
.L97:
	ldr	r3, [r7, #4]
	ldr	r3, [r3, #704]
	str	r3, [r7, #36]
	ldr	r3, [r7, #12]
	ldr	r2, [r7, #36]
	add	r3, r3, r2
	str	r3, [r7, #28]
	ldr	r3, [r7, #36]
	adds	r3, r3, #2
	str	r3, [r7, #36]
	ldr	r3, [r7, #36]
	subs	r3, r3, #2
	ldrb	r3, [r3]	@ zero_extendqisi2
	lsls	r3, r3, #8
	uxth	r2, r3
	ldr	r3, [r7, #36]
	subs	r3, r3, #1
	ldrb	r3, [r3]	@ zero_extendqisi2
	orrs	r3, r3, r2
	uxth	r3, r3
	uxth	r3, r3
	str	r3, [r7, #24]
	ldr	r3, [r7, #36]
	adds	r3, r3, #2
	str	r3, [r7, #36]
	ldr	r3, [r7, #36]
	subs	r3, r3, #2
	ldrb	r3, [r3]	@ zero_extendqisi2
	lsls	r3, r3, #8
	uxth	r2, r3
	ldr	r3, [r7, #36]
	subs	r3, r3, #1
	ldrb	r3, [r3]	@ zero_extendqisi2
	orrs	r3, r3, r2
	uxth	r3, r3
	uxth	r3, r3
	str	r3, [r7, #20]
	ldr	r3, [r7, #36]
	adds	r3, r3, #4
	str	r3, [r7, #36]
	ldr	r3, [r7, #36]
	subs	r3, r3, #4
	ldrb	r3, [r3]	@ zero_extendqisi2
	lsls	r2, r3, #24
	ldr	r3, [r7, #36]
	subs	r3, r3, #3
	ldrb	r3, [r3]	@ zero_extendqisi2
	lsls	r3, r3, #16
	orrs	r2, r2, r3
	ldr	r3, [r7, #36]
	subs	r3, r3, #2
	ldrb	r3, [r3]	@ zero_extendqisi2
	lsls	r3, r3, #8
	orrs	r2, r2, r3
	ldr	r3, [r7, #36]
	subs	r3, r3, #1
	ldrb	r3, [r3]	@ zero_extendqisi2
	orrs	r3, r3, r2
	str	r3, [r7, #40]
	ldr	r3, [r7, #40]
	cmn	r3, #65537
	bls	.L99
	ldr	r3, [r7, #40]
	uxth	r3, r3
	str	r3, [r7, #40]
.L99:
	ldr	r3, [r7, #24]
	cmp	r3, #0
	bne	.L100
	ldr	r3, [r7, #20]
	cmp	r3, #255
	bhi	.L100
	ldr	r3, [r7, #40]
	cmp	r3, #65537
	bhi	.L100
	ldr	r3, [r7, #40]
	cmp	r3, #3
	bhi	.L101
.L100:
	movs	r3, #3
	str	r3, [r7, #16]
	b	.L102
.L101:
	ldr	r3, [r7, #20]
	movs	r2, #0
	str	r2, [sp]
	add	r2, r7, #16
	str	r2, [sp, #4]
	ldr	r0, [r7, #32]
	movs	r1, #1
	movs	r2, #0
	bl	ft_mem_realloc(PLT)
	mov	r2, r0
	ldr	r3, [r7, #4]
	str	r2, [r3, #720]
	ldr	r3, [r7, #16]
	cmp	r3, #0
	beq	.L103
	b	.L102
.L103:
	movs	r3, #0
	str	r3, [r7, #44]
	b	.L104
.L107:
	ldr	r2, [r7, #36]
	ldr	r3, [r7, #40]
	add	r2, r2, r3
	ldr	r3, [r7, #28]
	cmp	r2, r3
	bls	.L105
	b	.L106
.L105:
	ldr	r3, [r7, #4]
	ldr	r2, [r3, #720]
	ldr	r3, [r7, #44]
	add	r3, r3, r2
	ldr	r2, [r7, #36]
	ldrb	r2, [r2]	@ zero_extendqisi2
	strb	r2, [r3]
	ldr	r2, [r7, #36]
	ldr	r3, [r7, #40]
	add	r3, r3, r2
	str	r3, [r7, #36]
	ldr	r3, [r7, #44]
	adds	r3, r3, #1
	str	r3, [r7, #44]
.L104:
	ldr	r2, [r7, #44]
	ldr	r3, [r7, #20]
	cmp	r2, r3
	bcc	.L107
.L106:
	ldr	r3, [r7, #4]
	ldr	r2, [r7, #44]
	str	r2, [r3, #712]
	ldr	r2, [r7, #12]
	ldr	r3, [r7, #4]
	str	r2, [r3, #708]
	ldr	r3, [r7, #4]
	ldr	r2, [r7, #40]
	str	r2, [r3, #716]
.L98:
	ldr	r3, [r7, #16]
	b	.L108
.L102:
	ldr	r3, [r7, #4]
	add	r3, r3, #704
	ldr	r0, [r7]
	mov	r1, r3
	bl	FT_Stream_ReleaseFrame(PLT)
	ldr	r3, [r7, #4]
	movs	r2, #0
	str	r2, [r3, #708]
	b	.L98
.L108:
	mov	r0, r3
	adds	r7, r7, #52
	mov	sp, r7
	@ sp needed
	pop	{r4, r7, pc}
	.size	tt_face_load_hdmx, .-tt_face_load_hdmx
	.section	.text.tt_face_free_hdmx,"ax",%progbits
	.align	2
	.thumb
	.thumb_func
	.type	tt_face_free_hdmx, %function
tt_face_free_hdmx:
	@ args = 0, pretend = 0, frame = 16
	@ frame_needed = 1, uses_anonymous_args = 0
	push	{r7, lr}
	sub	sp, sp, #16
	add	r7, sp, #0
	str	r0, [r7, #4]
	ldr	r3, [r7, #4]
	ldr	r3, [r3, #104]
	str	r3, [r7, #12]
	ldr	r3, [r7, #12]
	ldr	r3, [r3, #28]
	str	r3, [r7, #8]
	ldr	r3, [r7, #4]
	ldr	r3, [r3, #720]
	ldr	r0, [r7, #8]
	mov	r1, r3
	bl	ft_mem_free(PLT)
	ldr	r3, [r7, #4]
	movs	r2, #0
	str	r2, [r3, #720]
	ldr	r3, [r7, #4]
	add	r3, r3, #704
	ldr	r0, [r7, #12]
	mov	r1, r3
	bl	FT_Stream_ReleaseFrame(PLT)
	adds	r7, r7, #16
	mov	sp, r7
	@ sp needed
	pop	{r7, pc}
	.size	tt_face_free_hdmx, .-tt_face_free_hdmx
	.section	.text.tt_face_get_device_metrics,"ax",%progbits
	.align	2
	.thumb
	.thumb_func
	.type	tt_face_get_device_metrics, %function
tt_face_get_device_metrics:
	@ args = 0, pretend = 0, frame = 32
	@ frame_needed = 1, uses_anonymous_args = 0
	@ link register save eliminated.
	push	{r7}
	sub	sp, sp, #36
	add	r7, sp, #0
	str	r0, [r7, #12]
	str	r1, [r7, #8]
	str	r2, [r7, #4]
	movs	r3, #0
	str	r3, [r7, #24]
	ldr	r3, [r7, #12]
	ldr	r3, [r3, #716]
	str	r3, [r7, #20]
	ldr	r3, [r7, #12]
	ldr	r3, [r3, #704]
	adds	r3, r3, #8
	str	r3, [r7, #16]
	movs	r3, #0
	str	r3, [r7, #28]
	b	.L111
.L115:
	ldr	r3, [r7, #12]
	ldr	r2, [r3, #720]
	ldr	r3, [r7, #28]
	add	r3, r3, r2
	ldrb	r3, [r3]	@ zero_extendqisi2
	mov	r2, r3
	ldr	r3, [r7, #8]
	cmp	r2, r3
	bne	.L112
	ldr	r3, [r7, #4]
	adds	r3, r3, #2
	str	r3, [r7, #4]
	ldr	r2, [r7, #4]
	ldr	r3, [r7, #20]
	cmp	r2, r3
	bcs	.L113
	ldr	r3, [r7, #28]
	ldr	r2, [r7, #20]
	mul	r2, r2, r3
	ldr	r3, [r7, #4]
	add	r3, r3, r2
	ldr	r2, [r7, #16]
	add	r3, r3, r2
	str	r3, [r7, #24]
	b	.L114
.L113:
	b	.L114
.L112:
	ldr	r3, [r7, #28]
	adds	r3, r3, #1
	str	r3, [r7, #28]
.L111:
	ldr	r3, [r7, #12]
	ldr	r2, [r3, #712]
	ldr	r3, [r7, #28]
	cmp	r2, r3
	bhi	.L115
.L114:
	ldr	r3, [r7, #24]
	mov	r0, r3
	adds	r7, r7, #36
	mov	sp, r7
	@ sp needed
	ldr	r7, [sp], #4
	bx	lr
	.size	tt_face_get_device_metrics, .-tt_face_get_device_metrics
	.section	.text.FT_MulFix_arm,"ax",%progbits
	.align	2
	.thumb
	.thumb_func
	.type	FT_MulFix_arm, %function
FT_MulFix_arm:
	@ args = 0, pretend = 0, frame = 16
	@ frame_needed = 1, uses_anonymous_args = 0
	@ link register save eliminated.
	push	{r7}
	sub	sp, sp, #20
	add	r7, sp, #0
	str	r0, [r7, #4]
	str	r1, [r7]
	ldr	r3, [r7, #4]
	ldr	r2, [r7]
#APP
@ 86 "../../../libs/freetype/include/freetype/internal/ftcalc.h" 1
	smull  r0, r1, r2, r3
	mov    r3, r1, asr #31
	add    r3, r3, #0x8000
	adds   r0, r0, r3
	adc    r1, r1, #0
	mov    r3, r0, lsr #16
	orr    r3, r3, r1, lsl #16
	
@ 0 "" 2
	.thumb
	str	r3, [r7, #4]
	str	r0, [r7, #12]
	str	r1, [r7, #8]
	ldr	r3, [r7, #4]
	mov	r0, r3
	adds	r7, r7, #20
	mov	sp, r7
	@ sp needed
	ldr	r7, [sp], #4
	bx	lr
	.size	FT_MulFix_arm, .-FT_MulFix_arm
	.section	.text.TT_Get_HMetrics,"ax",%progbits
	.align	2
	.thumb
	.thumb_func
	.type	TT_Get_HMetrics, %function
TT_Get_HMetrics:
	@ args = 0, pretend = 0, frame = 16
	@ frame_needed = 1, uses_anonymous_args = 0
	push	{r4, r7, lr}
	sub	sp, sp, #28
	add	r7, sp, #8
	str	r0, [r7, #12]
	str	r1, [r7, #8]
	str	r2, [r7, #4]
	str	r3, [r7]
	ldr	r3, [r7, #12]
	ldr	r3, [r3, #532]
	ldr	r4, [r3, #112]
	ldr	r3, [r7]
	str	r3, [sp]
	ldr	r0, [r7, #12]
	movs	r1, #0
	ldr	r2, [r7, #8]
	ldr	r3, [r7, #4]
	blx	r4
	adds	r7, r7, #20
	mov	sp, r7
	@ sp needed
	pop	{r4, r7, pc}
	.size	TT_Get_HMetrics, .-TT_Get_HMetrics
	.section	.text.TT_Get_VMetrics,"ax",%progbits
	.align	2
	.thumb
	.thumb_func
	.type	TT_Get_VMetrics, %function
TT_Get_VMetrics:
	@ args = 4, pretend = 0, frame = 16
	@ frame_needed = 1, uses_anonymous_args = 0
	push	{r4, r7, lr}
	sub	sp, sp, #28
	add	r7, sp, #8
	str	r0, [r7, #12]
	str	r1, [r7, #8]
	str	r2, [r7, #4]
	str	r3, [r7]
	ldr	r3, [r7, #12]
	ldrb	r3, [r3, #292]	@ zero_extendqisi2
	cmp	r3, #0
	beq	.L121
	ldr	r3, [r7, #12]
	ldr	r3, [r3, #532]
	ldr	r4, [r3, #112]
	ldr	r3, [r7, #32]
	str	r3, [sp]
	ldr	r0, [r7, #12]
	movs	r1, #1
	ldr	r2, [r7, #8]
	ldr	r3, [r7]
	blx	r4
	b	.L120
.L121:
	ldr	r3, [r7, #12]
	ldrh	r2, [r3, #364]
	movw	r3, #65535
	cmp	r2, r3
	beq	.L123
	ldr	r3, [r7, #12]
	ldrh	r3, [r3, #434]
	uxth	r2, r3
	ldr	r3, [r7, #4]
	uxth	r3, r3
	subs	r3, r2, r3
	uxth	r3, r3
	uxth	r2, r3
	ldr	r3, [r7]
	strh	r2, [r3]	@ movhi
	ldr	r3, [r7, #12]
	ldrh	r3, [r3, #434]
	sxth	r2, r3
	ldr	r3, [r7, #12]
	ldrh	r3, [r3, #436]
	sxth	r3, r3
	subs	r3, r2, r3
	cmp	r3, #0
	bge	.L124
	ldr	r3, [r7, #12]
	ldrh	r3, [r3, #436]
	uxth	r2, r3
	ldr	r3, [r7, #12]
	ldrh	r3, [r3, #434]
	uxth	r3, r3
	subs	r3, r2, r3
	uxth	r3, r3
	b	.L125
.L124:
	ldr	r3, [r7, #12]
	ldrh	r3, [r3, #434]
	uxth	r2, r3
	ldr	r3, [r7, #12]
	ldrh	r3, [r3, #436]
	uxth	r3, r3
	subs	r3, r2, r3
	uxth	r3, r3
.L125:
	ldr	r2, [r7, #32]
	strh	r3, [r2]	@ movhi
	b	.L120
.L123:
	ldr	r3, [r7, #12]
	ldrh	r3, [r3, #220]
	uxth	r2, r3
	ldr	r3, [r7, #4]
	uxth	r3, r3
	subs	r3, r2, r3
	uxth	r3, r3
	uxth	r2, r3
	ldr	r3, [r7]
	strh	r2, [r3]	@ movhi
	ldr	r3, [r7, #12]
	ldrh	r3, [r3, #220]
	sxth	r2, r3
	ldr	r3, [r7, #12]
	ldrh	r3, [r3, #222]
	sxth	r3, r3
	subs	r3, r2, r3
	cmp	r3, #0
	bge	.L126
	ldr	r3, [r7, #12]
	ldrh	r3, [r3, #222]
	uxth	r2, r3
	ldr	r3, [r7, #12]
	ldrh	r3, [r3, #220]
	uxth	r3, r3
	subs	r3, r2, r3
	uxth	r3, r3
	b	.L127
.L126:
	ldr	r3, [r7, #12]
	ldrh	r3, [r3, #220]
	uxth	r2, r3
	ldr	r3, [r7, #12]
	ldrh	r3, [r3, #222]
	uxth	r3, r3
	subs	r3, r2, r3
	uxth	r3, r3
.L127:
	ldr	r2, [r7, #32]
	strh	r3, [r2]	@ movhi
.L120:
	adds	r7, r7, #20
	mov	sp, r7
	@ sp needed
	pop	{r4, r7, pc}
	.size	TT_Get_VMetrics, .-TT_Get_VMetrics
	.section	.text.tt_get_metrics,"ax",%progbits
	.align	2
	.thumb
	.thumb_func
	.type	tt_get_metrics, %function
tt_get_metrics:
	@ args = 0, pretend = 0, frame = 40
	@ frame_needed = 1, uses_anonymous_args = 0
	push	{r7, lr}
	sub	sp, sp, #48
	add	r7, sp, #8
	str	r0, [r7, #4]
	str	r1, [r7]
	ldr	r3, [r7, #4]
	ldr	r3, [r3]
	str	r3, [r7, #36]
	ldr	r3, [r7, #36]
	ldr	r3, [r3, #96]
	str	r3, [r7, #32]
	ldr	r3, [r7, #4]
	ldr	r3, [r3, #24]
	str	r3, [r7, #28]
	movs	r3, #0
	strh	r3, [r7, #18]	@ movhi
	movs	r3, #0
	strh	r3, [r7, #16]	@ movhi
	movs	r3, #0
	strh	r3, [r7, #14]	@ movhi
	movs	r3, #0
	strh	r3, [r7, #12]	@ movhi
	ldr	r0, [r7, #28]
	bl	FT_Stream_Pos(PLT)
	str	r0, [r7, #24]
	add	r2, r7, #18
	add	r3, r7, #14
	ldr	r0, [r7, #36]
	ldr	r1, [r7]
	bl	TT_Get_HMetrics(PLT)
	ldr	r3, [r7, #4]
	ldr	r2, [r3, #48]
	add	r3, r7, #16
	add	r1, r7, #12
	str	r1, [sp]
	ldr	r0, [r7, #36]
	ldr	r1, [r7]
	bl	TT_Get_VMetrics(PLT)
	ldr	r0, [r7, #28]
	ldr	r1, [r7, #24]
	bl	FT_Stream_Seek(PLT)
	str	r0, [r7, #20]
	ldr	r3, [r7, #20]
	cmp	r3, #0
	beq	.L129
	ldr	r3, [r7, #20]
	b	.L133
.L129:
	ldrh	r3, [r7, #18]
	sxth	r2, r3
	ldr	r3, [r7, #4]
	str	r2, [r3, #52]
	ldrh	r3, [r7, #14]
	mov	r2, r3
	ldr	r3, [r7, #4]
	str	r2, [r3, #56]
	ldrh	r3, [r7, #16]
	sxth	r2, r3
	ldr	r3, [r7, #4]
	str	r2, [r3, #176]
	ldrh	r3, [r7, #12]
	mov	r2, r3
	ldr	r3, [r7, #4]
	str	r2, [r3, #180]
	ldr	r3, [r7, #32]
	ldr	r3, [r3, #64]
	cmp	r3, #38
	bne	.L131
	ldr	r3, [r7, #4]
	ldr	r3, [r3, #160]
	cmp	r3, #0
	beq	.L131
	ldr	r3, [r7, #4]
	ldr	r3, [r3, #160]
	movs	r2, #0
	str	r2, [r3, #632]
	ldr	r0, [r7, #4]
	ldr	r1, [r7]
	bl	sph_set_tweaks(PLT)
.L131:
	ldr	r3, [r7, #4]
	ldrb	r3, [r3, #64]	@ zero_extendqisi2
	cmp	r3, #0
	bne	.L132
	ldr	r3, [r7, #4]
	movs	r2, #1
	strb	r2, [r3, #64]
	ldrh	r3, [r7, #14]
	mov	r2, r3
	ldr	r3, [r7, #4]
	str	r2, [r3, #60]
.L132:
	movs	r3, #0
.L133:
	mov	r0, r3
	adds	r7, r7, #40
	mov	sp, r7
	@ sp needed
	pop	{r7, pc}
	.size	tt_get_metrics, .-tt_get_metrics
	.section	.text.tt_get_metrics_incr_overrides,"ax",%progbits
	.align	2
	.thumb
	.thumb_func
	.type	tt_get_metrics_incr_overrides, %function
tt_get_metrics_incr_overrides:
	@ args = 0, pretend = 0, frame = 40
	@ frame_needed = 1, uses_anonymous_args = 0
	push	{r4, r7, lr}
	sub	sp, sp, #44
	add	r7, sp, #0
	str	r0, [r7, #4]
	str	r1, [r7]
	ldr	r3, [r7, #4]
	ldr	r3, [r3]
	str	r3, [r7, #36]
	movs	r3, #0
	strh	r3, [r7, #34]	@ movhi
	movs	r3, #0
	strh	r3, [r7, #32]	@ movhi
	movs	r3, #0
	strh	r3, [r7, #30]	@ movhi
	movs	r3, #0
	strh	r3, [r7, #28]	@ movhi
	ldr	r3, [r7, #36]
	ldr	r3, [r3, #128]
	ldr	r3, [r3, #48]
	cmp	r3, #0
	beq	.L135
	ldr	r3, [r7, #36]
	ldr	r3, [r3, #128]
	ldr	r3, [r3, #48]
	ldr	r3, [r3]
	ldr	r3, [r3, #8]
	cmp	r3, #0
	beq	.L135
	ldr	r3, [r7, #4]
	ldr	r3, [r3, #52]
	str	r3, [r7, #8]
	movs	r3, #0
	str	r3, [r7, #12]
	ldr	r3, [r7, #4]
	ldr	r3, [r3, #56]
	str	r3, [r7, #16]
	movs	r3, #0
	str	r3, [r7, #20]
	ldr	r3, [r7, #36]
	ldr	r3, [r3, #128]
	ldr	r3, [r3, #48]
	ldr	r3, [r3]
	ldr	r4, [r3, #8]
	ldr	r3, [r7, #36]
	ldr	r3, [r3, #128]
	ldr	r3, [r3, #48]
	ldr	r2, [r3, #4]
	add	r3, r7, #8
	mov	r0, r2
	ldr	r1, [r7]
	movs	r2, #0
	blx	r4
	str	r0, [r7, #24]
	ldr	r3, [r7, #24]
	cmp	r3, #0
	beq	.L136
	b	.L134
.L136:
	ldr	r3, [r7, #8]
	strh	r3, [r7, #34]	@ movhi
	ldr	r3, [r7, #16]
	strh	r3, [r7, #30]	@ movhi
	ldrsh	r2, [r7, #34]
	ldr	r3, [r7, #4]
	str	r2, [r3, #52]
	ldrh	r2, [r7, #30]
	ldr	r3, [r7, #4]
	str	r2, [r3, #56]
	ldrsh	r2, [r7, #32]
	ldr	r3, [r7, #4]
	str	r2, [r3, #176]
	ldrh	r2, [r7, #28]
	ldr	r3, [r7, #4]
	str	r2, [r3, #180]
	ldr	r3, [r7, #4]
	ldrb	r3, [r3, #64]	@ zero_extendqisi2
	cmp	r3, #0
	bne	.L135
	ldr	r3, [r7, #4]
	movs	r2, #1
	strb	r2, [r3, #64]
	ldrh	r2, [r7, #30]
	ldr	r3, [r7, #4]
	str	r2, [r3, #60]
.L135:
	nop
.L134:
	adds	r7, r7, #44
	mov	sp, r7
	@ sp needed
	pop	{r4, r7, pc}
	.size	tt_get_metrics_incr_overrides, .-tt_get_metrics_incr_overrides
	.section	.text.TT_Access_Glyph_Frame,"ax",%progbits
	.align	2
	.thumb
	.thumb_func
	.type	TT_Access_Glyph_Frame, %function
TT_Access_Glyph_Frame:
	@ args = 0, pretend = 0, frame = 24
	@ frame_needed = 1, uses_anonymous_args = 0
	push	{r7, lr}
	sub	sp, sp, #24
	add	r7, sp, #0
	str	r0, [r7, #12]
	str	r1, [r7, #8]
	str	r2, [r7, #4]
	str	r3, [r7]
	ldr	r3, [r7, #12]
	ldr	r3, [r3, #24]
	str	r3, [r7, #16]
	ldr	r0, [r7, #16]
	ldr	r1, [r7, #4]
	bl	FT_Stream_Seek(PLT)
	str	r0, [r7, #20]
	ldr	r3, [r7, #20]
	cmp	r3, #0
	bne	.L140
	ldr	r0, [r7, #16]
	ldr	r1, [r7]
	bl	FT_Stream_EnterFrame(PLT)
	str	r0, [r7, #20]
	ldr	r3, [r7, #20]
	cmp	r3, #0
	beq	.L141
.L140:
	ldr	r3, [r7, #20]
	b	.L142
.L141:
	ldr	r3, [r7, #16]
	ldr	r2, [r3, #32]
	ldr	r3, [r7, #12]
	str	r2, [r3, #200]
	ldr	r3, [r7, #16]
	ldr	r2, [r3, #36]
	ldr	r3, [r7, #12]
	str	r2, [r3, #204]
	movs	r3, #0
.L142:
	mov	r0, r3
	adds	r7, r7, #24
	mov	sp, r7
	@ sp needed
	pop	{r7, pc}
	.size	TT_Access_Glyph_Frame, .-TT_Access_Glyph_Frame
	.section	.text.TT_Forget_Glyph_Frame,"ax",%progbits
	.align	2
	.thumb
	.thumb_func
	.type	TT_Forget_Glyph_Frame, %function
TT_Forget_Glyph_Frame:
	@ args = 0, pretend = 0, frame = 16
	@ frame_needed = 1, uses_anonymous_args = 0
	push	{r7, lr}
	sub	sp, sp, #16
	add	r7, sp, #0
	str	r0, [r7, #4]
	ldr	r3, [r7, #4]
	ldr	r3, [r3, #24]
	str	r3, [r7, #12]
	ldr	r0, [r7, #12]
	bl	FT_Stream_ExitFrame(PLT)
	adds	r7, r7, #16
	mov	sp, r7
	@ sp needed
	pop	{r7, pc}
	.size	TT_Forget_Glyph_Frame, .-TT_Forget_Glyph_Frame
	.section	.text.TT_Load_Glyph_Header,"ax",%progbits
	.align	2
	.thumb
	.thumb_func
	.type	TT_Load_Glyph_Header, %function
TT_Load_Glyph_Header:
	@ args = 0, pretend = 0, frame = 16
	@ frame_needed = 1, uses_anonymous_args = 0
	@ link register save eliminated.
	push	{r7}
	sub	sp, sp, #20
	add	r7, sp, #0
	str	r0, [r7, #4]
	ldr	r3, [r7, #4]
	ldr	r3, [r3, #200]
	str	r3, [r7, #12]
	ldr	r3, [r7, #4]
	ldr	r3, [r3, #204]
	str	r3, [r7, #8]
	ldr	r3, [r7, #12]
	add	r2, r3, #10
	ldr	r3, [r7, #8]
	cmp	r2, r3
	bls	.L145
	movs	r3, #20
	b	.L146
.L145:
	ldr	r3, [r7, #12]
	adds	r3, r3, #2
	str	r3, [r7, #12]
	ldr	r3, [r7, #12]
	subs	r3, r3, #2
	ldrb	r3, [r3]	@ zero_extendqisi2
	lsls	r3, r3, #8
	uxth	r2, r3
	ldr	r3, [r7, #12]
	subs	r3, r3, #1
	ldrb	r3, [r3]	@ zero_extendqisi2
	orrs	r3, r3, r2
	uxth	r2, r3
	ldr	r3, [r7, #4]
	strh	r2, [r3, #32]	@ movhi
	ldr	r3, [r7, #12]
	adds	r3, r3, #2
	str	r3, [r7, #12]
	ldr	r3, [r7, #12]
	subs	r3, r3, #2
	ldrb	r3, [r3]	@ zero_extendqisi2
	lsls	r3, r3, #8
	uxth	r2, r3
	ldr	r3, [r7, #12]
	subs	r3, r3, #1
	ldrb	r3, [r3]	@ zero_extendqisi2
	orrs	r3, r3, r2
	uxth	r3, r3
	sxth	r2, r3
	ldr	r3, [r7, #4]
	str	r2, [r3, #36]
	ldr	r3, [r7, #12]
	adds	r3, r3, #2
	str	r3, [r7, #12]
	ldr	r3, [r7, #12]
	subs	r3, r3, #2
	ldrb	r3, [r3]	@ zero_extendqisi2
	lsls	r3, r3, #8
	uxth	r2, r3
	ldr	r3, [r7, #12]
	subs	r3, r3, #1
	ldrb	r3, [r3]	@ zero_extendqisi2
	orrs	r3, r3, r2
	uxth	r3, r3
	sxth	r2, r3
	ldr	r3, [r7, #4]
	str	r2, [r3, #40]
	ldr	r3, [r7, #12]
	adds	r3, r3, #2
	str	r3, [r7, #12]
	ldr	r3, [r7, #12]
	subs	r3, r3, #2
	ldrb	r3, [r3]	@ zero_extendqisi2
	lsls	r3, r3, #8
	uxth	r2, r3
	ldr	r3, [r7, #12]
	subs	r3, r3, #1
	ldrb	r3, [r3]	@ zero_extendqisi2
	orrs	r3, r3, r2
	uxth	r3, r3
	sxth	r2, r3
	ldr	r3, [r7, #4]
	str	r2, [r3, #44]
	ldr	r3, [r7, #12]
	adds	r3, r3, #2
	str	r3, [r7, #12]
	ldr	r3, [r7, #12]
	subs	r3, r3, #2
	ldrb	r3, [r3]	@ zero_extendqisi2
	lsls	r3, r3, #8
	uxth	r2, r3
	ldr	r3, [r7, #12]
	subs	r3, r3, #1
	ldrb	r3, [r3]	@ zero_extendqisi2
	orrs	r3, r3, r2
	uxth	r3, r3
	sxth	r2, r3
	ldr	r3, [r7, #4]
	str	r2, [r3, #48]
	ldr	r3, [r7, #4]
	ldr	r2, [r7, #12]
	str	r2, [r3, #200]
	movs	r3, #0
.L146:
	mov	r0, r3
	adds	r7, r7, #20
	mov	sp, r7
	@ sp needed
	ldr	r7, [sp], #4
	bx	lr
	.size	TT_Load_Glyph_Header, .-TT_Load_Glyph_Header
	.section	.text.TT_Load_Simple_Glyph,"ax",%progbits
	.align	2
	.thumb
	.thumb_func
	.type	TT_Load_Simple_Glyph, %function
TT_Load_Simple_Glyph:
	@ args = 0, pretend = 0, frame = 104
	@ frame_needed = 1, uses_anonymous_args = 0
	push	{r7, lr}
	sub	sp, sp, #112
	add	r7, sp, #8
	str	r0, [r7, #4]
	ldr	r3, [r7, #4]
	ldr	r3, [r3, #200]
	str	r3, [r7, #96]
	ldr	r3, [r7, #4]
	ldr	r3, [r3, #204]
	str	r3, [r7, #56]
	ldr	r3, [r7, #4]
	ldr	r3, [r3, #12]
	str	r3, [r7, #52]
	ldr	r3, [r7, #4]
	ldrh	r3, [r3, #32]
	sxth	r3, r3
	str	r3, [r7, #48]
	movs	r3, #0
	str	r3, [r7, #44]
	ldr	r3, [r7, #48]
	cmp	r3, #0
	beq	.L148
	ldr	r3, [r7, #52]
	ldrh	r3, [r3, #20]
	sxth	r2, r3
	ldr	r3, [r7, #52]
	ldrh	r3, [r3, #56]
	sxth	r3, r3
	add	r2, r2, r3
	ldr	r3, [r7, #48]
	add	r2, r2, r3
	ldr	r3, [r7, #52]
	ldr	r3, [r3, #8]
	cmp	r2, r3
	bls	.L148
	ldr	r3, [r7, #48]
	ldr	r0, [r7, #52]
	movs	r1, #0
	mov	r2, r3
	bl	FT_GlyphLoader_CheckPoints(PLT)
	mov	r3, r0
	b	.L149
.L148:
	movs	r3, #0
.L149:
	str	r3, [r7, #100]
	ldr	r3, [r7, #100]
	cmp	r3, #0
	beq	.L150
	b	.L151
.L150:
	ldr	r3, [r7, #52]
	ldr	r3, [r3, #68]
	str	r3, [r7, #72]
	ldr	r3, [r7, #48]
	lsls	r3, r3, #1
	ldr	r2, [r7, #72]
	add	r3, r3, r2
	str	r3, [r7, #40]
	ldr	r2, [r7, #48]
	movw	r3, #4094
	cmp	r2, r3
	bgt	.L152
	ldr	r3, [r7, #48]
	adds	r3, r3, #1
	lsls	r3, r3, #1
	ldr	r2, [r7, #96]
	add	r2, r2, r3
	ldr	r3, [r7, #56]
	cmp	r2, r3
	bhi	.L152
	ldr	r3, [r7, #96]
	adds	r3, r3, #2
	str	r3, [r7, #96]
	ldr	r3, [r7, #96]
	subs	r3, r3, #2
	ldrb	r3, [r3]	@ zero_extendqisi2
	lsls	r3, r3, #8
	uxth	r2, r3
	ldr	r3, [r7, #96]
	subs	r3, r3, #1
	ldrb	r3, [r3]	@ zero_extendqisi2
	orrs	r3, r3, r2
	strh	r3, [r7, #70]	@ movhi
	ldr	r3, [r7, #48]
	cmp	r3, #0
	ble	.L153
	ldr	r3, [r7, #72]
	ldrh	r2, [r7, #70]	@ movhi
	strh	r2, [r3]	@ movhi
.L153:
	ldrsh	r3, [r7, #70]
	cmp	r3, #0
	bge	.L154
	b	.L152
.L154:
	ldr	r3, [r7, #72]
	adds	r3, r3, #2
	str	r3, [r7, #72]
	b	.L155
.L157:
	ldr	r3, [r7, #96]
	adds	r3, r3, #2
	str	r3, [r7, #96]
	ldr	r3, [r7, #96]
	subs	r3, r3, #2
	ldrb	r3, [r3]	@ zero_extendqisi2
	lsls	r3, r3, #8
	uxth	r2, r3
	ldr	r3, [r7, #96]
	subs	r3, r3, #1
	ldrb	r3, [r3]	@ zero_extendqisi2
	orrs	r3, r3, r2
	uxth	r2, r3
	ldr	r3, [r7, #72]
	strh	r2, [r3]	@ movhi
	ldr	r3, [r7, #72]
	ldrh	r3, [r3]
	ldrsh	r2, [r7, #70]
	sxth	r3, r3
	cmp	r2, r3
	blt	.L156
	b	.L152
.L156:
	ldr	r3, [r7, #72]
	ldrh	r3, [r3]	@ movhi
	strh	r3, [r7, #70]	@ movhi
	ldr	r3, [r7, #72]
	adds	r3, r3, #2
	str	r3, [r7, #72]
.L155:
	ldr	r2, [r7, #72]
	ldr	r3, [r7, #40]
	cmp	r2, r3
	bcc	.L157
	movs	r3, #0
	str	r3, [r7, #92]
	ldr	r3, [r7, #48]
	cmp	r3, #0
	ble	.L158
	ldr	r3, [r7, #72]
	subs	r3, r3, #2
	ldrh	r3, [r3]
	sxth	r3, r3
	adds	r3, r3, #1
	str	r3, [r7, #92]
	ldr	r3, [r7, #92]
	cmp	r3, #0
	bge	.L158
	b	.L152
.L158:
	ldr	r3, [r7, #92]
	cmn	r3, #4
	beq	.L159
	ldr	r3, [r7, #52]
	ldrh	r3, [r3, #22]
	sxth	r2, r3
	ldr	r3, [r7, #52]
	ldrh	r3, [r3, #58]
	sxth	r3, r3
	add	r2, r2, r3
	ldr	r3, [r7, #92]
	add	r3, r3, r2
	adds	r2, r3, #4
	ldr	r3, [r7, #52]
	ldr	r3, [r3, #4]
	cmp	r2, r3
	bls	.L159
	ldr	r3, [r7, #92]
	adds	r3, r3, #4
	ldr	r0, [r7, #52]
	mov	r1, r3
	movs	r2, #0
	bl	FT_GlyphLoader_CheckPoints(PLT)
	mov	r3, r0
	b	.L160
.L159:
	movs	r3, #0
.L160:
	str	r3, [r7, #100]
	ldr	r3, [r7, #100]
	cmp	r3, #0
	beq	.L161
	b	.L151
.L161:
	ldr	r3, [r7, #4]
	ldr	r3, [r3, #8]
	movs	r2, #0
	str	r2, [r3, #140]
	ldr	r3, [r7, #4]
	ldr	r3, [r3, #8]
	movs	r2, #0
	str	r2, [r3, #136]
	ldr	r3, [r7, #96]
	adds	r2, r3, #2
	ldr	r3, [r7, #56]
	cmp	r2, r3
	bls	.L162
	b	.L152
.L162:
	ldr	r3, [r7, #96]
	adds	r3, r3, #2
	str	r3, [r7, #96]
	ldr	r3, [r7, #96]
	subs	r3, r3, #2
	ldrb	r3, [r3]	@ zero_extendqisi2
	lsls	r3, r3, #8
	uxth	r2, r3
	ldr	r3, [r7, #96]
	subs	r3, r3, #1
	ldrb	r3, [r3]	@ zero_extendqisi2
	orrs	r3, r3, r2
	uxth	r3, r3
	strh	r3, [r7, #38]	@ movhi
	ldr	r2, [r7, #56]
	ldr	r3, [r7, #96]
	subs	r2, r2, r3
	ldrh	r3, [r7, #38]
	cmp	r2, r3
	bge	.L163
	movs	r3, #22
	str	r3, [r7, #100]
	b	.L151
.L163:
	ldr	r3, [r7, #4]
	ldr	r3, [r3, #16]
	and	r3, r3, #2
	cmp	r3, #0
	bne	.L164
	ldr	r3, [r7, #4]
	ldr	r3, [r3, #160]
	ldr	r3, [r3, #388]
	str	r3, [r7, #12]
	ldr	r3, [r7, #4]
	ldr	r3, [r3, #160]
	ldr	r1, [r3, #8]
	ldr	r3, [r7, #4]
	ldr	r3, [r3, #160]
	add	r3, r3, #392
	ldrh	r0, [r7, #38]
	add	r2, r7, #12
	str	r0, [sp]
	mov	r0, r1
	mov	r1, r2
	movs	r2, #1
	bl	Update_Max(PLT)
	str	r0, [r7, #100]
	ldr	r3, [r7, #4]
	ldr	r3, [r3, #160]
	ldr	r2, [r7, #12]
	uxth	r2, r2
	str	r2, [r3, #388]
	ldr	r3, [r7, #100]
	cmp	r3, #0
	beq	.L165
	ldr	r3, [r7, #100]
	b	.L189
.L165:
	ldr	r3, [r7, #4]
	ldr	r3, [r3, #8]
	ldrh	r2, [r7, #38]
	str	r2, [r3, #140]
	ldr	r3, [r7, #4]
	ldr	r3, [r3, #8]
	ldr	r2, [r7, #4]
	ldr	r2, [r2, #160]
	ldr	r2, [r2, #392]
	str	r2, [r3, #136]
	ldr	r3, [r7, #4]
	ldr	r3, [r3, #160]
	ldr	r2, [r3, #392]
	ldrh	r3, [r7, #38]
	mov	r0, r2
	ldr	r1, [r7, #96]
	mov	r2, r3
	bl	memcpy(PLT)
.L164:
	ldrh	r3, [r7, #38]
	ldr	r2, [r7, #96]
	add	r3, r3, r2
	str	r3, [r7, #96]
	ldr	r3, [r7, #52]
	adds	r3, r3, #56
	str	r3, [r7, #32]
	ldr	r3, [r7, #32]
	ldr	r3, [r3, #8]
	str	r3, [r7, #88]
	ldr	r3, [r7, #92]
	ldr	r2, [r7, #88]
	add	r3, r3, r2
	str	r3, [r7, #28]
	b	.L167
.L173:
	ldr	r3, [r7, #96]
	adds	r2, r3, #1
	ldr	r3, [r7, #56]
	cmp	r2, r3
	bls	.L168
	b	.L152
.L168:
	ldr	r3, [r7, #88]
	adds	r2, r3, #1
	str	r2, [r7, #88]
	ldr	r2, [r7, #96]
	adds	r1, r2, #1
	str	r1, [r7, #96]
	ldrb	r2, [r2]
	strb	r2, [r7, #27]
	ldrb	r2, [r7, #27]
	strb	r2, [r3]
	ldrb	r3, [r7, #27]	@ zero_extendqisi2
	and	r3, r3, #8
	cmp	r3, #0
	beq	.L167
	ldr	r3, [r7, #96]
	adds	r2, r3, #1
	ldr	r3, [r7, #56]
	cmp	r2, r3
	bls	.L169
	b	.L152
.L169:
	ldr	r3, [r7, #96]
	adds	r2, r3, #1
	str	r2, [r7, #96]
	ldrb	r3, [r3]
	strb	r3, [r7, #87]
	ldrb	r3, [r7, #87]	@ zero_extendqisi2
	ldr	r2, [r7, #88]
	add	r2, r2, r3
	ldr	r3, [r7, #28]
	cmp	r2, r3
	bls	.L170
	b	.L152
.L170:
	b	.L171
.L172:
	ldr	r3, [r7, #88]
	adds	r2, r3, #1
	str	r2, [r7, #88]
	ldrb	r2, [r7, #27]
	strb	r2, [r3]
	ldrb	r3, [r7, #87]	@ zero_extendqisi2
	subs	r3, r3, #1
	strb	r3, [r7, #87]
.L171:
	ldrb	r3, [r7, #87]	@ zero_extendqisi2
	cmp	r3, #0
	bne	.L172
.L167:
	ldr	r2, [r7, #88]
	ldr	r3, [r7, #28]
	cmp	r2, r3
	bcc	.L173
	ldr	r3, [r7, #32]
	ldr	r3, [r3, #4]
	str	r3, [r7, #80]
	ldr	r3, [r7, #92]
	lsls	r3, r3, #3
	ldr	r2, [r7, #80]
	add	r3, r3, r2
	str	r3, [r7, #20]
	ldr	r3, [r7, #32]
	ldr	r3, [r3, #8]
	str	r3, [r7, #88]
	movs	r3, #0
	str	r3, [r7, #76]
	ldr	r3, [r7, #44]
	ldr	r2, [r7, #96]
	add	r2, r2, r3
	ldr	r3, [r7, #56]
	cmp	r2, r3
	bls	.L174
	b	.L152
.L174:
	b	.L175
.L181:
	movs	r3, #0
	str	r3, [r7, #64]
	ldr	r3, [r7, #88]
	ldrb	r3, [r3]
	strb	r3, [r7, #19]
	ldrb	r3, [r7, #19]	@ zero_extendqisi2
	and	r3, r3, #2
	cmp	r3, #0
	beq	.L176
	ldr	r3, [r7, #96]
	adds	r2, r3, #1
	ldr	r3, [r7, #56]
	cmp	r2, r3
	bls	.L177
	b	.L152
.L177:
	ldr	r3, [r7, #96]
	adds	r2, r3, #1
	str	r2, [r7, #96]
	ldrb	r3, [r3]	@ zero_extendqisi2
	str	r3, [r7, #64]
	ldrb	r3, [r7, #19]	@ zero_extendqisi2
	and	r3, r3, #16
	cmp	r3, #0
	bne	.L179
	ldr	r3, [r7, #64]
	negs	r3, r3
	str	r3, [r7, #64]
	b	.L179
.L176:
	ldrb	r3, [r7, #19]	@ zero_extendqisi2
	and	r3, r3, #16
	cmp	r3, #0
	bne	.L179
	ldr	r3, [r7, #96]
	adds	r2, r3, #2
	ldr	r3, [r7, #56]
	cmp	r2, r3
	bls	.L180
	b	.L152
.L180:
	ldr	r3, [r7, #96]
	adds	r3, r3, #2
	str	r3, [r7, #96]
	ldr	r3, [r7, #96]
	subs	r3, r3, #2
	ldrb	r3, [r3]	@ zero_extendqisi2
	lsls	r3, r3, #8
	uxth	r2, r3
	ldr	r3, [r7, #96]
	subs	r3, r3, #1
	ldrb	r3, [r3]	@ zero_extendqisi2
	orrs	r3, r3, r2
	uxth	r3, r3
	sxth	r3, r3
	str	r3, [r7, #64]
.L179:
	ldr	r2, [r7, #76]
	ldr	r3, [r7, #64]
	add	r3, r3, r2
	str	r3, [r7, #76]
	ldr	r3, [r7, #80]
	ldr	r2, [r7, #76]
	str	r2, [r3]
	ldrb	r3, [r7, #19]
	bic	r3, r3, #18
	uxtb	r2, r3
	ldr	r3, [r7, #88]
	strb	r2, [r3]
	ldr	r3, [r7, #80]
	adds	r3, r3, #8
	str	r3, [r7, #80]
	ldr	r3, [r7, #88]
	adds	r3, r3, #1
	str	r3, [r7, #88]
.L175:
	ldr	r2, [r7, #80]
	ldr	r3, [r7, #20]
	cmp	r2, r3
	bcc	.L181
	ldr	r3, [r7, #52]
	ldr	r3, [r3, #60]
	str	r3, [r7, #80]
	ldr	r3, [r7, #92]
	lsls	r3, r3, #3
	ldr	r2, [r7, #80]
	add	r3, r3, r2
	str	r3, [r7, #20]
	ldr	r3, [r7, #32]
	ldr	r3, [r3, #8]
	str	r3, [r7, #88]
	movs	r3, #0
	str	r3, [r7, #76]
	b	.L182
.L188:
	movs	r3, #0
	str	r3, [r7, #60]
	ldr	r3, [r7, #88]
	ldrb	r3, [r3]
	strb	r3, [r7, #18]
	ldrb	r3, [r7, #18]	@ zero_extendqisi2
	and	r3, r3, #4
	cmp	r3, #0
	beq	.L183
	ldr	r3, [r7, #96]
	adds	r2, r3, #1
	ldr	r3, [r7, #56]
	cmp	r2, r3
	bls	.L184
	b	.L152
.L184:
	ldr	r3, [r7, #96]
	adds	r2, r3, #1
	str	r2, [r7, #96]
	ldrb	r3, [r3]	@ zero_extendqisi2
	str	r3, [r7, #60]
	ldrb	r3, [r7, #18]	@ zero_extendqisi2
	and	r3, r3, #32
	cmp	r3, #0
	bne	.L186
	ldr	r3, [r7, #60]
	negs	r3, r3
	str	r3, [r7, #60]
	b	.L186
.L183:
	ldrb	r3, [r7, #18]	@ zero_extendqisi2
	and	r3, r3, #32
	cmp	r3, #0
	bne	.L186
	ldr	r3, [r7, #96]
	adds	r2, r3, #2
	ldr	r3, [r7, #56]
	cmp	r2, r3
	bls	.L187
	b	.L152
.L187:
	ldr	r3, [r7, #96]
	adds	r3, r3, #2
	str	r3, [r7, #96]
	ldr	r3, [r7, #96]
	subs	r3, r3, #2
	ldrb	r3, [r3]	@ zero_extendqisi2
	lsls	r3, r3, #8
	uxth	r2, r3
	ldr	r3, [r7, #96]
	subs	r3, r3, #1
	ldrb	r3, [r3]	@ zero_extendqisi2
	orrs	r3, r3, r2
	uxth	r3, r3
	sxth	r3, r3
	str	r3, [r7, #60]
.L186:
	ldr	r2, [r7, #76]
	ldr	r3, [r7, #60]
	add	r3, r3, r2
	str	r3, [r7, #76]
	ldr	r3, [r7, #80]
	ldr	r2, [r7, #76]
	str	r2, [r3, #4]
	ldrb	r3, [r7, #18]
	and	r3, r3, #1
	uxtb	r2, r3
	ldr	r3, [r7, #88]
	strb	r2, [r3]
	ldr	r3, [r7, #80]
	adds	r3, r3, #8
	str	r3, [r7, #80]
	ldr	r3, [r7, #88]
	adds	r3, r3, #1
	str	r3, [r7, #88]
.L182:
	ldr	r2, [r7, #80]
	ldr	r3, [r7, #20]
	cmp	r2, r3
	bcc	.L188
	ldr	r3, [r7, #92]
	uxth	r2, r3
	ldr	r3, [r7, #32]
	strh	r2, [r3, #2]	@ movhi
	ldr	r3, [r7, #48]
	uxth	r2, r3
	ldr	r3, [r7, #32]
	strh	r2, [r3]	@ movhi
	ldr	r3, [r7, #4]
	ldr	r2, [r7, #96]
	str	r2, [r3, #200]
.L151:
	ldr	r3, [r7, #100]
	b	.L189
.L152:
	movs	r3, #20
	str	r3, [r7, #100]
	b	.L151
.L189:
	mov	r0, r3
	adds	r7, r7, #104
	mov	sp, r7
	@ sp needed
	pop	{r7, pc}
	.size	TT_Load_Simple_Glyph, .-TT_Load_Simple_Glyph
	.section	.text.TT_Load_Composite_Glyph,"ax",%progbits
	.align	2
	.thumb
	.thumb_func
	.type	TT_Load_Composite_Glyph, %function
TT_Load_Composite_Glyph:
	@ args = 0, pretend = 0, frame = 56
	@ frame_needed = 1, uses_anonymous_args = 0
	push	{r7, lr}
	sub	sp, sp, #56
	add	r7, sp, #0
	str	r0, [r7, #4]
	ldr	r3, [r7, #4]
	ldr	r3, [r3, #200]
	str	r3, [r7, #48]
	ldr	r3, [r7, #4]
	ldr	r3, [r3, #204]
	str	r3, [r7, #20]
	ldr	r3, [r7, #4]
	ldr	r3, [r3, #12]
	str	r3, [r7, #16]
	movs	r3, #0
	str	r3, [r7, #44]
.L208:
	ldr	r3, [r7, #44]
	adds	r3, r3, #1
	ldr	r0, [r7, #16]
	mov	r1, r3
	bl	FT_GlyphLoader_CheckSubGlyphs(PLT)
	str	r0, [r7, #52]
	ldr	r3, [r7, #52]
	cmp	r3, #0
	beq	.L191
	b	.L192
.L191:
	ldr	r3, [r7, #48]
	adds	r2, r3, #4
	ldr	r3, [r7, #20]
	cmp	r2, r3
	bls	.L193
	b	.L194
.L193:
	ldr	r3, [r7, #16]
	ldr	r2, [r3, #88]
	ldr	r3, [r7, #44]
	lsls	r3, r3, #5
	add	r3, r3, r2
	str	r3, [r7, #12]
	ldr	r3, [r7, #12]
	movs	r2, #0
	str	r2, [r3, #12]
	ldr	r3, [r7, #12]
	ldr	r2, [r3, #12]
	ldr	r3, [r7, #12]
	str	r2, [r3, #8]
	ldr	r3, [r7, #48]
	adds	r3, r3, #2
	str	r3, [r7, #48]
	ldr	r3, [r7, #48]
	subs	r3, r3, #2
	ldrb	r3, [r3]	@ zero_extendqisi2
	lsls	r3, r3, #8
	uxth	r2, r3
	ldr	r3, [r7, #48]
	subs	r3, r3, #1
	ldrb	r3, [r3]	@ zero_extendqisi2
	orrs	r3, r3, r2
	uxth	r3, r3
	uxth	r2, r3
	ldr	r3, [r7, #12]
	strh	r2, [r3, #4]	@ movhi
	ldr	r3, [r7, #48]
	adds	r3, r3, #2
	str	r3, [r7, #48]
	ldr	r3, [r7, #48]
	subs	r3, r3, #2
	ldrb	r3, [r3]	@ zero_extendqisi2
	lsls	r3, r3, #8
	uxth	r2, r3
	ldr	r3, [r7, #48]
	subs	r3, r3, #1
	ldrb	r3, [r3]	@ zero_extendqisi2
	orrs	r3, r3, r2
	uxth	r3, r3
	uxth	r3, r3
	mov	r2, r3
	ldr	r3, [r7, #12]
	str	r2, [r3]
	movs	r3, #2
	str	r3, [r7, #24]
	ldr	r3, [r7, #12]
	ldrh	r3, [r3, #4]
	and	r3, r3, #1
	cmp	r3, #0
	beq	.L195
	ldr	r3, [r7, #24]
	adds	r3, r3, #2
	str	r3, [r7, #24]
.L195:
	ldr	r3, [r7, #12]
	ldrh	r3, [r3, #4]
	and	r3, r3, #8
	cmp	r3, #0
	beq	.L196
	ldr	r3, [r7, #24]
	adds	r3, r3, #2
	str	r3, [r7, #24]
	b	.L197
.L196:
	ldr	r3, [r7, #12]
	ldrh	r3, [r3, #4]
	and	r3, r3, #64
	cmp	r3, #0
	beq	.L198
	ldr	r3, [r7, #24]
	adds	r3, r3, #4
	str	r3, [r7, #24]
	b	.L197
.L198:
	ldr	r3, [r7, #12]
	ldrh	r3, [r3, #4]
	and	r3, r3, #128
	cmp	r3, #0
	beq	.L197
	ldr	r3, [r7, #24]
	adds	r3, r3, #8
	str	r3, [r7, #24]
.L197:
	ldr	r2, [r7, #48]
	ldr	r3, [r7, #24]
	add	r2, r2, r3
	ldr	r3, [r7, #20]
	cmp	r2, r3
	bls	.L199
	b	.L194
.L199:
	ldr	r3, [r7, #12]
	ldrh	r3, [r3, #4]
	and	r3, r3, #2
	cmp	r3, #0
	beq	.L200
	ldr	r3, [r7, #12]
	ldrh	r3, [r3, #4]
	and	r3, r3, #1
	cmp	r3, #0
	beq	.L201
	ldr	r3, [r7, #48]
	adds	r3, r3, #2
	str	r3, [r7, #48]
	ldr	r3, [r7, #48]
	subs	r3, r3, #2
	ldrb	r3, [r3]	@ zero_extendqisi2
	lsls	r3, r3, #8
	uxth	r2, r3
	ldr	r3, [r7, #48]
	subs	r3, r3, #1
	ldrb	r3, [r3]	@ zero_extendqisi2
	orrs	r3, r3, r2
	uxth	r3, r3
	sxth	r2, r3
	ldr	r3, [r7, #12]
	str	r2, [r3, #8]
	ldr	r3, [r7, #48]
	adds	r3, r3, #2
	str	r3, [r7, #48]
	ldr	r3, [r7, #48]
	subs	r3, r3, #2
	ldrb	r3, [r3]	@ zero_extendqisi2
	lsls	r3, r3, #8
	uxth	r2, r3
	ldr	r3, [r7, #48]
	subs	r3, r3, #1
	ldrb	r3, [r3]	@ zero_extendqisi2
	orrs	r3, r3, r2
	uxth	r3, r3
	sxth	r2, r3
	ldr	r3, [r7, #12]
	str	r2, [r3, #12]
	b	.L203
.L201:
	ldr	r3, [r7, #48]
	adds	r2, r3, #1
	str	r2, [r7, #48]
	ldrb	r3, [r3]	@ zero_extendqisi2
	uxtb	r3, r3
	sxtb	r2, r3
	ldr	r3, [r7, #12]
	str	r2, [r3, #8]
	ldr	r3, [r7, #48]
	adds	r2, r3, #1
	str	r2, [r7, #48]
	ldrb	r3, [r3]	@ zero_extendqisi2
	uxtb	r3, r3
	sxtb	r2, r3
	ldr	r3, [r7, #12]
	str	r2, [r3, #12]
	b	.L203
.L200:
	ldr	r3, [r7, #12]
	ldrh	r3, [r3, #4]
	and	r3, r3, #1
	cmp	r3, #0
	beq	.L204
	ldr	r3, [r7, #48]
	adds	r3, r3, #2
	str	r3, [r7, #48]
	ldr	r3, [r7, #48]
	subs	r3, r3, #2
	ldrb	r3, [r3]	@ zero_extendqisi2
	lsls	r3, r3, #8
	uxth	r2, r3
	ldr	r3, [r7, #48]
	subs	r3, r3, #1
	ldrb	r3, [r3]	@ zero_extendqisi2
	orrs	r3, r3, r2
	uxth	r3, r3
	uxth	r3, r3
	mov	r2, r3
	ldr	r3, [r7, #12]
	str	r2, [r3, #8]
	ldr	r3, [r7, #48]
	adds	r3, r3, #2
	str	r3, [r7, #48]
	ldr	r3, [r7, #48]
	subs	r3, r3, #2
	ldrb	r3, [r3]	@ zero_extendqisi2
	lsls	r3, r3, #8
	uxth	r2, r3
	ldr	r3, [r7, #48]
	subs	r3, r3, #1
	ldrb	r3, [r3]	@ zero_extendqisi2
	orrs	r3, r3, r2
	uxth	r3, r3
	uxth	r3, r3
	mov	r2, r3
	ldr	r3, [r7, #12]
	str	r2, [r3, #12]
	b	.L203
.L204:
	ldr	r3, [r7, #48]
	adds	r2, r3, #1
	str	r2, [r7, #48]
	ldrb	r3, [r3]	@ zero_extendqisi2
	mov	r2, r3
	ldr	r3, [r7, #12]
	str	r2, [r3, #8]
	ldr	r3, [r7, #48]
	adds	r2, r3, #1
	str	r2, [r7, #48]
	ldrb	r3, [r3]	@ zero_extendqisi2
	mov	r2, r3
	ldr	r3, [r7, #12]
	str	r2, [r3, #12]
.L203:
	mov	r3, #65536
	str	r3, [r7, #32]
	ldr	r3, [r7, #32]
	str	r3, [r7, #40]
	movs	r3, #0
	str	r3, [r7, #28]
	ldr	r3, [r7, #28]
	str	r3, [r7, #36]
	ldr	r3, [r7, #12]
	ldrh	r3, [r3, #4]
	and	r3, r3, #8
	cmp	r3, #0
	beq	.L205
	ldr	r3, [r7, #48]
	adds	r3, r3, #2
	str	r3, [r7, #48]
	ldr	r3, [r7, #48]
	subs	r3, r3, #2
	ldrb	r3, [r3]	@ zero_extendqisi2
	lsls	r3, r3, #8
	uxth	r2, r3
	ldr	r3, [r7, #48]
	subs	r3, r3, #1
	ldrb	r3, [r3]	@ zero_extendqisi2
	orrs	r3, r3, r2
	uxth	r3, r3
	sxth	r3, r3
	lsls	r3, r3, #2
	str	r3, [r7, #40]
	ldr	r3, [r7, #40]
	str	r3, [r7, #32]
	b	.L206
.L205:
	ldr	r3, [r7, #12]
	ldrh	r3, [r3, #4]
	and	r3, r3, #64
	cmp	r3, #0
	beq	.L207
	ldr	r3, [r7, #48]
	adds	r3, r3, #2
	str	r3, [r7, #48]
	ldr	r3, [r7, #48]
	subs	r3, r3, #2
	ldrb	r3, [r3]	@ zero_extendqisi2
	lsls	r3, r3, #8
	uxth	r2, r3
	ldr	r3, [r7, #48]
	subs	r3, r3, #1
	ldrb	r3, [r3]	@ zero_extendqisi2
	orrs	r3, r3, r2
	uxth	r3, r3
	sxth	r3, r3
	lsls	r3, r3, #2
	str	r3, [r7, #40]
	ldr	r3, [r7, #48]
	adds	r3, r3, #2
	str	r3, [r7, #48]
	ldr	r3, [r7, #48]
	subs	r3, r3, #2
	ldrb	r3, [r3]	@ zero_extendqisi2
	lsls	r3, r3, #8
	uxth	r2, r3
	ldr	r3, [r7, #48]
	subs	r3, r3, #1
	ldrb	r3, [r3]	@ zero_extendqisi2
	orrs	r3, r3, r2
	uxth	r3, r3
	sxth	r3, r3
	lsls	r3, r3, #2
	str	r3, [r7, #32]
	b	.L206
.L207:
	ldr	r3, [r7, #12]
	ldrh	r3, [r3, #4]
	and	r3, r3, #128
	cmp	r3, #0
	beq	.L206
	ldr	r3, [r7, #48]
	adds	r3, r3, #2
	str	r3, [r7, #48]
	ldr	r3, [r7, #48]
	subs	r3, r3, #2
	ldrb	r3, [r3]	@ zero_extendqisi2
	lsls	r3, r3, #8
	uxth	r2, r3
	ldr	r3, [r7, #48]
	subs	r3, r3, #1
	ldrb	r3, [r3]	@ zero_extendqisi2
	orrs	r3, r3, r2
	uxth	r3, r3
	sxth	r3, r3
	lsls	r3, r3, #2
	str	r3, [r7, #40]
	ldr	r3, [r7, #48]
	adds	r3, r3, #2
	str	r3, [r7, #48]
	ldr	r3, [r7, #48]
	subs	r3, r3, #2
	ldrb	r3, [r3]	@ zero_extendqisi2
	lsls	r3, r3, #8
	uxth	r2, r3
	ldr	r3, [r7, #48]
	subs	r3, r3, #1
	ldrb	r3, [r3]	@ zero_extendqisi2
	orrs	r3, r3, r2
	uxth	r3, r3
	sxth	r3, r3
	lsls	r3, r3, #2
	str	r3, [r7, #28]
	ldr	r3, [r7, #48]
	adds	r3, r3, #2
	str	r3, [r7, #48]
	ldr	r3, [r7, #48]
	subs	r3, r3, #2
	ldrb	r3, [r3]	@ zero_extendqisi2
	lsls	r3, r3, #8
	uxth	r2, r3
	ldr	r3, [r7, #48]
	subs	r3, r3, #1
	ldrb	r3, [r3]	@ zero_extendqisi2
	orrs	r3, r3, r2
	uxth	r3, r3
	sxth	r3, r3
	lsls	r3, r3, #2
	str	r3, [r7, #36]
	ldr	r3, [r7, #48]
	adds	r3, r3, #2
	str	r3, [r7, #48]
	ldr	r3, [r7, #48]
	subs	r3, r3, #2
	ldrb	r3, [r3]	@ zero_extendqisi2
	lsls	r3, r3, #8
	uxth	r2, r3
	ldr	r3, [r7, #48]
	subs	r3, r3, #1
	ldrb	r3, [r3]	@ zero_extendqisi2
	orrs	r3, r3, r2
	uxth	r3, r3
	sxth	r3, r3
	lsls	r3, r3, #2
	str	r3, [r7, #32]
.L206:
	ldr	r3, [r7, #12]
	ldr	r2, [r7, #40]
	str	r2, [r3, #16]
	ldr	r3, [r7, #12]
	ldr	r2, [r7, #36]
	str	r2, [r3, #20]
	ldr	r3, [r7, #12]
	ldr	r2, [r7, #28]
	str	r2, [r3, #24]
	ldr	r3, [r7, #12]
	ldr	r2, [r7, #32]
	str	r2, [r3, #28]
	ldr	r3, [r7, #44]
	adds	r3, r3, #1
	str	r3, [r7, #44]
	ldr	r3, [r7, #12]
	ldrh	r3, [r3, #4]
	and	r3, r3, #32
	cmp	r3, #0
	bne	.L208
	ldr	r3, [r7, #16]
	ldr	r2, [r7, #44]
	str	r2, [r3, #84]
	ldr	r3, [r7, #4]
	ldr	r3, [r3, #24]
	str	r3, [r7, #8]
	ldr	r0, [r7, #8]
	bl	FT_Stream_Pos(PLT)
	mov	r3, r0
	ldr	r2, [r7, #48]
	add	r3, r3, r2
	mov	r2, r3
	ldr	r3, [r7, #20]
	subs	r3, r2, r3
	mov	r2, r3
	ldr	r3, [r7, #4]
	str	r2, [r3, #168]
	ldr	r3, [r7, #4]
	ldr	r2, [r7, #48]
	str	r2, [r3, #200]
.L192:
	ldr	r3, [r7, #52]
	b	.L210
.L194:
	movs	r3, #21
	str	r3, [r7, #52]
	b	.L192
.L210:
	mov	r0, r3
	adds	r7, r7, #56
	mov	sp, r7
	@ sp needed
	pop	{r7, pc}
	.size	TT_Load_Composite_Glyph, .-TT_Load_Composite_Glyph
	.section	.text.TT_Init_Glyph_Loading,"ax",%progbits
	.align	2
	.thumb
	.thumb_func
	.type	TT_Init_Glyph_Loading, %function
TT_Init_Glyph_Loading:
	@ args = 0, pretend = 0, frame = 8
	@ frame_needed = 1, uses_anonymous_args = 0
	@ link register save eliminated.
	push	{r7}
	sub	sp, sp, #12
	add	r7, sp, #0
	str	r0, [r7, #4]
	ldr	r3, [r7, #4]
	ldr	r2, .L212
.LPIC4:
	add	r2, pc
	str	r2, [r3, #512]
	ldr	r3, [r7, #4]
	ldr	r2, .L212+4
.LPIC5:
	add	r2, pc
	str	r2, [r3, #520]
	ldr	r3, [r7, #4]
	ldr	r2, .L212+8
.LPIC6:
	add	r2, pc
	str	r2, [r3, #524]
	ldr	r3, [r7, #4]
	ldr	r2, .L212+12
.LPIC7:
	add	r2, pc
	str	r2, [r3, #528]
	ldr	r3, [r7, #4]
	ldr	r2, .L212+16
.LPIC8:
	add	r2, pc
	str	r2, [r3, #516]
	adds	r7, r7, #12
	mov	sp, r7
	@ sp needed
	ldr	r7, [sp], #4
	bx	lr
.L213:
	.align	2
.L212:
	.word	TT_Access_Glyph_Frame-(.LPIC4+4)
	.word	TT_Load_Glyph_Header-(.LPIC5+4)
	.word	TT_Load_Simple_Glyph-(.LPIC6+4)
	.word	TT_Load_Composite_Glyph-(.LPIC7+4)
	.word	TT_Forget_Glyph_Frame-(.LPIC8+4)
	.size	TT_Init_Glyph_Loading, .-TT_Init_Glyph_Loading
	.section	.text.tt_prepare_zone,"ax",%progbits
	.align	2
	.thumb
	.thumb_func
	.type	tt_prepare_zone, %function
tt_prepare_zone:
	@ args = 0, pretend = 0, frame = 16
	@ frame_needed = 1, uses_anonymous_args = 0
	@ link register save eliminated.
	push	{r7}
	sub	sp, sp, #20
	add	r7, sp, #0
	str	r0, [r7, #12]
	str	r1, [r7, #8]
	str	r2, [r7, #4]
	str	r3, [r7]
	ldr	r3, [r7, #8]
	ldrh	r3, [r3, #2]
	uxth	r2, r3
	ldr	r3, [r7, #4]
	uxth	r3, r3
	subs	r3, r2, r3
	uxth	r2, r3
	ldr	r3, [r7, #12]
	strh	r2, [r3, #8]	@ movhi
	ldr	r3, [r7, #8]
	ldrh	r3, [r3]
	uxth	r2, r3
	ldr	r3, [r7]
	uxth	r3, r3
	subs	r3, r2, r3
	uxth	r3, r3
	uxth	r2, r3
	ldr	r3, [r7, #12]
	strh	r2, [r3, #10]	@ movhi
	ldr	r3, [r7, #8]
	ldr	r2, [r3, #20]
	ldr	r3, [r7, #4]
	lsls	r3, r3, #3
	add	r2, r2, r3
	ldr	r3, [r7, #12]
	str	r2, [r3, #12]
	ldr	r3, [r7, #8]
	ldr	r2, [r3, #4]
	ldr	r3, [r7, #4]
	lsls	r3, r3, #3
	add	r2, r2, r3
	ldr	r3, [r7, #12]
	str	r2, [r3, #16]
	ldr	r3, [r7, #8]
	ldr	r2, [r3, #24]
	ldr	r3, [r7, #4]
	lsls	r3, r3, #3
	add	r2, r2, r3
	ldr	r3, [r7, #12]
	str	r2, [r3, #20]
	ldr	r3, [r7, #8]
	ldr	r2, [r3, #8]
	ldr	r3, [r7, #4]
	add	r2, r2, r3
	ldr	r3, [r7, #12]
	str	r2, [r3, #24]
	ldr	r3, [r7, #8]
	ldr	r2, [r3, #12]
	ldr	r3, [r7]
	lsls	r3, r3, #1
	add	r2, r2, r3
	ldr	r3, [r7, #12]
	str	r2, [r3, #28]
	ldr	r3, [r7, #4]
	uxth	r2, r3
	ldr	r3, [r7, #12]
	strh	r2, [r3, #32]	@ movhi
	adds	r7, r7, #20
	mov	sp, r7
	@ sp needed
	ldr	r7, [sp], #4
	bx	lr
	.size	tt_prepare_zone, .-tt_prepare_zone
	.section	.text.TT_Hint_Glyph,"ax",%progbits
	.align	2
	.thumb
	.thumb_func
	.type	TT_Hint_Glyph, %function
TT_Hint_Glyph:
	@ args = 0, pretend = 0, frame = 56
	@ frame_needed = 1, uses_anonymous_args = 0
	push	{r4, r5, r7, lr}
	sub	sp, sp, #56
	add	r7, sp, #0
	str	r0, [r7, #4]
	mov	r3, r1
	strb	r3, [r7, #3]
	ldr	r3, [r7, #4]
	ldr	r3, [r3]
	str	r3, [r7, #52]
	ldr	r3, [r7, #52]
	ldr	r3, [r3, #96]
	str	r3, [r7, #48]
	ldr	r3, [r7, #4]
	adds	r3, r3, #124
	str	r3, [r7, #44]
	ldr	r3, [r7, #4]
	ldr	r3, [r3, #8]
	ldr	r3, [r3, #140]
	str	r3, [r7, #40]
	ldr	r3, [r7, #40]
	cmp	r3, #0
	ble	.L216
	ldr	r3, [r7, #44]
	ldr	r1, [r3, #12]
	ldr	r3, [r7, #44]
	ldr	r2, [r3, #16]
	ldr	r3, [r7, #44]
	ldrh	r3, [r3, #8]
	lsls	r3, r3, #3
	mov	r0, r1
	mov	r1, r2
	mov	r2, r3
	bl	memcpy(PLT)
.L216:
	ldr	r3, [r7, #4]
	ldr	r2, [r3, #160]
	ldr	r3, [r7, #4]
	ldr	r3, [r3, #4]
	add	r1, r2, #284
	add	r2, r3, #172
	movs	r3, #68
	mov	r0, r1
	mov	r1, r2
	mov	r2, r3
	bl	memcpy(PLT)
	ldrb	r3, [r7, #3]	@ zero_extendqisi2
	cmp	r3, #0
	beq	.L217
	ldr	r3, [r7, #4]
	ldr	r3, [r3, #160]
	mov	r2, #65536
	str	r2, [r3, #220]
	ldr	r3, [r7, #4]
	ldr	r3, [r3, #160]
	mov	r2, #65536
	str	r2, [r3, #224]
	ldr	r3, [r7, #44]
	ldr	r1, [r3, #20]
	ldr	r3, [r7, #44]
	ldr	r2, [r3, #16]
	ldr	r3, [r7, #44]
	ldrh	r3, [r3, #8]
	lsls	r3, r3, #3
	mov	r0, r1
	mov	r1, r2
	mov	r2, r3
	bl	memcpy(PLT)
	b	.L218
.L217:
	ldr	r3, [r7, #4]
	ldr	r3, [r3, #160]
	ldr	r2, [r7, #4]
	ldr	r2, [r2, #4]
	ldr	r2, [r2, #48]
	str	r2, [r3, #220]
	ldr	r3, [r7, #4]
	ldr	r3, [r3, #160]
	ldr	r2, [r7, #4]
	ldr	r2, [r2, #4]
	ldr	r2, [r2, #52]
	str	r2, [r3, #224]
.L218:
	ldr	r3, [r7, #44]
	ldr	r2, [r3, #16]
	ldr	r3, [r7, #44]
	ldrh	r3, [r3, #8]
	add	r3, r3, #536870912
	subs	r3, r3, #4
	lsls	r3, r3, #3
	add	r2, r2, r3
	ldr	r3, [r7, #44]
	ldr	r1, [r3, #16]
	ldr	r3, [r7, #44]
	ldrh	r3, [r3, #8]
	add	r3, r3, #536870912
	subs	r3, r3, #4
	lsls	r3, r3, #3
	add	r3, r3, r1
	ldr	r3, [r3]
	adds	r3, r3, #32
	bic	r3, r3, #63
	str	r3, [r2]
	ldr	r3, [r7, #44]
	ldr	r2, [r3, #16]
	ldr	r3, [r7, #44]
	ldrh	r3, [r3, #8]
	add	r3, r3, #536870912
	subs	r3, r3, #3
	lsls	r3, r3, #3
	add	r2, r2, r3
	ldr	r3, [r7, #44]
	ldr	r1, [r3, #16]
	ldr	r3, [r7, #44]
	ldrh	r3, [r3, #8]
	add	r3, r3, #536870912
	subs	r3, r3, #3
	lsls	r3, r3, #3
	add	r3, r3, r1
	ldr	r3, [r3]
	adds	r3, r3, #32
	bic	r3, r3, #63
	str	r3, [r2]
	ldr	r3, [r7, #44]
	ldr	r2, [r3, #16]
	ldr	r3, [r7, #44]
	ldrh	r3, [r3, #8]
	add	r3, r3, #536870912
	subs	r3, r3, #2
	lsls	r3, r3, #3
	add	r2, r2, r3
	ldr	r3, [r7, #44]
	ldr	r1, [r3, #16]
	ldr	r3, [r7, #44]
	ldrh	r3, [r3, #8]
	add	r3, r3, #536870912
	subs	r3, r3, #2
	lsls	r3, r3, #3
	add	r3, r3, r1
	ldr	r3, [r3, #4]
	adds	r3, r3, #32
	bic	r3, r3, #63
	str	r3, [r2, #4]
	ldr	r3, [r7, #44]
	ldr	r2, [r3, #16]
	ldr	r3, [r7, #44]
	ldrh	r3, [r3, #8]
	add	r3, r3, #536870912
	subs	r3, r3, #1
	lsls	r3, r3, #3
	add	r2, r2, r3
	ldr	r3, [r7, #44]
	ldr	r1, [r3, #16]
	ldr	r3, [r7, #44]
	ldrh	r3, [r3, #8]
	add	r3, r3, #536870912
	subs	r3, r3, #1
	lsls	r3, r3, #3
	add	r3, r3, r1
	ldr	r3, [r3, #4]
	adds	r3, r3, #32
	bic	r3, r3, #63
	str	r3, [r2, #4]
	ldr	r3, [r7, #40]
	cmp	r3, #0
	ble	.L219
	ldr	r3, [r7, #4]
	ldr	r3, [r3, #12]
	str	r3, [r7, #36]
	ldr	r3, [r7, #36]
	add	r4, r7, #12
	add	r5, r3, #56
	ldmia	r5!, {r0, r1, r2, r3}
	stmia	r4!, {r0, r1, r2, r3}
	ldr	r3, [r5]
	str	r3, [r4]
	ldr	r3, [r7, #4]
	ldr	r2, [r3, #160]
	ldr	r3, [r7, #4]
	ldr	r3, [r3, #160]
	ldr	r3, [r3, #392]
	mov	r0, r2
	movs	r1, #3
	mov	r2, r3
	ldr	r3, [r7, #40]
	bl	TT_Set_CodeRange(PLT)
	ldr	r3, [r7, #4]
	ldr	r3, [r3, #160]
	ldrb	r2, [r7, #3]
	strb	r2, [r3, #560]
	ldr	r3, [r7, #4]
	ldr	r2, [r3, #160]
	ldr	r3, [r7, #44]
	add	r4, r2, #144
	mov	r5, r3
	ldmia	r5!, {r0, r1, r2, r3}
	stmia	r4!, {r0, r1, r2, r3}
	ldmia	r5!, {r0, r1, r2, r3}
	stmia	r4!, {r0, r1, r2, r3}
	ldr	r3, [r5]
	str	r3, [r4]
	ldr	r3, [r7, #4]
	ldr	r3, [r3, #160]
	mov	r0, r3
	bl	TT_Run_Context(PLT)
	str	r0, [r7, #32]
	ldr	r3, [r7, #32]
	cmp	r3, #0
	beq	.L220
	ldr	r3, [r7, #4]
	ldr	r3, [r3, #160]
	ldrb	r3, [r3, #561]	@ zero_extendqisi2
	cmp	r3, #0
	beq	.L220
	ldr	r3, [r7, #32]
	b	.L221
.L220:
	ldr	r3, [r7, #20]
	ldr	r2, [r7, #20]
	ldrb	r1, [r2]	@ zero_extendqisi2
	ldr	r2, [r7, #4]
	ldr	r2, [r2, #160]
	ldr	r2, [r2, #340]
	lsls	r2, r2, #5
	uxtb	r2, r2
	orrs	r2, r2, r1
	uxtb	r2, r2
	orr	r2, r2, #4
	uxtb	r2, r2
	strb	r2, [r3]
.L219:
	ldr	r3, [r7, #44]
	ldr	r2, [r3, #16]
	ldr	r3, [r7, #44]
	ldrh	r3, [r3, #8]
	add	r3, r3, #536870912
	subs	r3, r3, #4
	lsls	r3, r3, #3
	add	r2, r2, r3
	ldr	r3, [r7, #4]
	adds	r3, r3, #68
	ldmia	r2, {r0, r1}
	stmia	r3, {r0, r1}
	ldr	r3, [r7, #44]
	ldr	r2, [r3, #16]
	ldr	r3, [r7, #44]
	ldrh	r3, [r3, #8]
	add	r3, r3, #536870912
	subs	r3, r3, #3
	lsls	r3, r3, #3
	add	r2, r2, r3
	ldr	r3, [r7, #4]
	adds	r3, r3, #76
	ldmia	r2, {r0, r1}
	stmia	r3, {r0, r1}
	ldr	r3, [r7, #44]
	ldr	r2, [r3, #16]
	ldr	r3, [r7, #44]
	ldrh	r3, [r3, #8]
	add	r3, r3, #536870912
	subs	r3, r3, #2
	lsls	r3, r3, #3
	add	r2, r2, r3
	ldr	r3, [r7, #4]
	adds	r3, r3, #184
	ldmia	r2, {r0, r1}
	stmia	r3, {r0, r1}
	ldr	r3, [r7, #44]
	ldr	r2, [r3, #16]
	ldr	r3, [r7, #44]
	ldrh	r3, [r3, #8]
	add	r3, r3, #536870912
	subs	r3, r3, #1
	lsls	r3, r3, #3
	add	r2, r2, r3
	ldr	r3, [r7, #4]
	adds	r3, r3, #192
	ldmia	r2, {r0, r1}
	stmia	r3, {r0, r1}
	ldr	r3, [r7, #48]
	ldr	r3, [r3, #64]
	cmp	r3, #38
	bne	.L222
	ldr	r3, [r7, #4]
	ldr	r3, [r3, #160]
	ldr	r3, [r3, #632]
	and	r3, r3, #16
	cmp	r3, #0
	beq	.L223
	ldr	r3, [r7, #4]
	ldr	r3, [r3, #12]
	adds	r3, r3, #56
	mov	r0, r3
	mvn	r1, #23
	movs	r2, #0
	bl	FT_Outline_EmboldenXY(PLT)
	b	.L222
.L223:
	ldr	r3, [r7, #4]
	ldr	r3, [r3, #160]
	ldr	r3, [r3, #632]
	and	r3, r3, #64
	cmp	r3, #0
	beq	.L222
	ldr	r3, [r7, #4]
	ldr	r3, [r3, #12]
	adds	r3, r3, #56
	mov	r0, r3
	movs	r1, #24
	movs	r2, #0
	bl	FT_Outline_EmboldenXY(PLT)
.L222:
	movs	r3, #0
.L221:
	mov	r0, r3
	adds	r7, r7, #56
	mov	sp, r7
	@ sp needed
	pop	{r4, r5, r7, pc}
	.size	TT_Hint_Glyph, .-TT_Hint_Glyph
	.section	.text.TT_Process_Simple_Glyph,"ax",%progbits
	.align	2
	.thumb
	.thumb_func
	.type	TT_Process_Simple_Glyph, %function
TT_Process_Simple_Glyph:
	@ args = 0, pretend = 0, frame = 72
	@ frame_needed = 1, uses_anonymous_args = 0
	push	{r7, lr}
	sub	sp, sp, #80
	add	r7, sp, #8
	str	r0, [r7, #4]
	ldr	r3, [r7, #4]
	ldr	r3, [r3, #12]
	str	r3, [r7, #44]
	movs	r3, #0
	str	r3, [r7, #68]
	ldr	r3, [r7, #44]
	adds	r3, r3, #56
	str	r3, [r7, #40]
	ldr	r3, [r7, #40]
	ldrh	r3, [r3, #2]
	sxth	r3, r3
	str	r3, [r7, #36]
	ldr	r3, [r7, #40]
	ldr	r2, [r3, #4]
	ldr	r3, [r7, #36]
	lsls	r3, r3, #3
	add	r3, r3, r2
	ldr	r2, [r7, #4]
	adds	r2, r2, #68
	ldmia	r2, {r0, r1}
	stmia	r3, {r0, r1}
	ldr	r3, [r7, #40]
	ldr	r2, [r3, #4]
	ldr	r3, [r7, #36]
	adds	r3, r3, #1
	lsls	r3, r3, #3
	add	r3, r3, r2
	ldr	r2, [r7, #4]
	adds	r2, r2, #76
	ldmia	r2, {r0, r1}
	stmia	r3, {r0, r1}
	ldr	r3, [r7, #40]
	ldr	r2, [r3, #4]
	ldr	r3, [r7, #36]
	adds	r3, r3, #2
	lsls	r3, r3, #3
	add	r3, r3, r2
	ldr	r2, [r7, #4]
	adds	r2, r2, #184
	ldmia	r2, {r0, r1}
	stmia	r3, {r0, r1}
	ldr	r3, [r7, #40]
	ldr	r2, [r3, #4]
	ldr	r3, [r7, #36]
	adds	r3, r3, #3
	lsls	r3, r3, #3
	add	r3, r3, r2
	ldr	r2, [r7, #4]
	adds	r2, r2, #192
	ldmia	r2, {r0, r1}
	stmia	r3, {r0, r1}
	ldr	r3, [r7, #40]
	ldr	r2, [r3, #8]
	ldr	r3, [r7, #36]
	add	r3, r3, r2
	movs	r2, #0
	strb	r2, [r3]
	ldr	r3, [r7, #40]
	ldr	r2, [r3, #8]
	ldr	r3, [r7, #36]
	adds	r3, r3, #1
	add	r3, r3, r2
	movs	r2, #0
	strb	r2, [r3]
	ldr	r3, [r7, #40]
	ldr	r2, [r3, #8]
	ldr	r3, [r7, #36]
	adds	r3, r3, #2
	add	r3, r3, r2
	movs	r2, #0
	strb	r2, [r3]
	ldr	r3, [r7, #40]
	ldr	r2, [r3, #8]
	ldr	r3, [r7, #36]
	adds	r3, r3, #3
	add	r3, r3, r2
	movs	r2, #0
	strb	r2, [r3]
	ldr	r3, [r7, #36]
	adds	r3, r3, #4
	str	r3, [r7, #36]
	ldr	r3, [r7, #4]
	ldr	r3, [r3]
	ldrb	r3, [r3, #672]	@ zero_extendqisi2
	cmp	r3, #0
	beq	.L225
	ldr	r3, [r7, #4]
	ldr	r1, [r3]
	ldr	r3, [r7, #4]
	ldr	r2, [r3, #20]
	ldr	r3, [r7, #36]
	mov	r0, r1
	mov	r1, r2
	ldr	r2, [r7, #40]
	bl	TT_Vary_Apply_Glyph_Deltas(PLT)
	str	r0, [r7, #68]
	ldr	r3, [r7, #68]
	cmp	r3, #0
	beq	.L225
	ldr	r3, [r7, #68]
	b	.L226
.L225:
	ldr	r3, [r7, #4]
	ldr	r3, [r3, #16]
	and	r3, r3, #2
	cmp	r3, #0
	bne	.L227
	ldr	r3, [r7, #4]
	add	r2, r3, #124
	ldr	r3, [r7, #44]
	adds	r3, r3, #56
	mov	r0, r2
	mov	r1, r3
	movs	r2, #0
	movs	r3, #0
	bl	tt_prepare_zone(PLT)
	ldr	r3, [r7, #4]
	ldr	r1, [r3, #144]
	ldr	r3, [r7, #4]
	ldr	r2, [r3, #140]
	ldr	r3, [r7, #4]
	ldrh	r3, [r3, #132]
	adds	r3, r3, #4
	lsls	r3, r3, #3
	mov	r0, r1
	mov	r1, r2
	mov	r2, r3
	bl	memcpy(PLT)
.L227:
	ldr	r3, [r7, #4]
	ldr	r3, [r3]
	str	r3, [r7, #32]
	ldr	r3, [r7, #32]
	ldr	r3, [r3, #96]
	str	r3, [r7, #28]
	ldr	r3, [r7, #32]
	ldr	r3, [r3, #20]
	str	r3, [r7, #24]
	ldr	r3, [r7, #4]
	ldr	r3, [r3, #4]
	ldrh	r3, [r3, #44]
	str	r3, [r7, #20]
	ldr	r3, [r7, #32]
	ldr	r3, [r3, #24]
	str	r3, [r7, #16]
	mov	r3, #1000
	str	r3, [r7, #64]
	ldr	r3, [r7, #40]
	ldr	r3, [r3, #4]
	str	r3, [r7, #60]
	ldr	r3, [r7, #40]
	ldr	r2, [r3, #4]
	ldr	r3, [r7, #36]
	lsls	r3, r3, #3
	add	r3, r3, r2
	str	r3, [r7, #12]
	movs	r3, #0
	str	r3, [r7, #56]
	movs	r3, #0
	str	r3, [r7, #52]
	movs	r3, #0
	strb	r3, [r7, #51]
	ldr	r3, [r7, #28]
	ldr	r3, [r3, #64]
	cmp	r3, #38
	bne	.L228
	ldr	r3, [r7, #4]
	ldr	r3, [r3, #16]
	and	r3, r3, #2
	cmp	r3, #0
	bne	.L229
	ldr	r3, [r7, #4]
	ldr	r3, [r3, #20]
	str	r3, [sp]
	ldr	r0, [r7, #32]
	ldr	r1, [r7, #24]
	ldr	r2, [r7, #20]
	ldr	r3, [r7, #16]
	bl	sph_test_tweak_x_scaling(PLT)
	str	r0, [r7, #64]
.L229:
	ldr	r3, [r7, #4]
	ldr	r3, [r3, #16]
	and	r3, r3, #1
	cmp	r3, #0
	beq	.L230
	ldr	r3, [r7, #64]
	cmp	r3, #1000
	beq	.L233
.L230:
	ldr	r3, [r7, #4]
	ldr	r3, [r3, #4]
	ldr	r2, [r3, #48]
	ldr	r3, [r7, #64]
	mov	r0, r2
	mov	r1, r3
	mov	r2, #1000
	bl	FT_MulDiv(PLT)
	str	r0, [r7, #56]
	ldr	r3, [r7, #4]
	ldr	r3, [r3, #4]
	ldr	r3, [r3, #52]
	str	r3, [r7, #52]
	ldr	r3, [r7, #64]
	cmp	r3, #1000
	beq	.L232
	ldr	r3, [r7, #20]
	cmp	r3, #11
	bls	.L232
	ldr	r2, [r7, #20]
	mov	r3, r2
	lsls	r3, r3, #2
	add	r3, r3, r2
	lsls	r3, r3, #8
	mov	r2, r3
	ldr	r3, [r7, #64]
	rsb	r3, r3, #1000
	mov	r0, r2
	mov	r1, r3
	bl	FT_MulFix_arm(PLT)
	mov	r3, r0
	ldr	r0, [r7, #40]
	mov	r1, r3
	movs	r2, #0
	bl	FT_Outline_EmboldenXY(PLT)
.L232:
	movs	r3, #1
	strb	r3, [r7, #51]
	b	.L233
.L228:
	ldr	r3, [r7, #4]
	ldr	r3, [r3, #16]
	and	r3, r3, #1
	cmp	r3, #0
	bne	.L233
	ldr	r3, [r7, #4]
	ldr	r3, [r3, #4]
	ldr	r3, [r3, #48]
	str	r3, [r7, #56]
	ldr	r3, [r7, #4]
	ldr	r3, [r3, #4]
	ldr	r3, [r3, #52]
	str	r3, [r7, #52]
	movs	r3, #1
	strb	r3, [r7, #51]
.L233:
	ldrb	r3, [r7, #51]	@ zero_extendqisi2
	cmp	r3, #0
	beq	.L234
	b	.L235
.L236:
	ldr	r3, [r7, #60]
	ldr	r3, [r3]
	mov	r0, r3
	ldr	r1, [r7, #56]
	bl	FT_MulFix_arm(PLT)
	mov	r2, r0
	ldr	r3, [r7, #60]
	str	r2, [r3]
	ldr	r3, [r7, #60]
	ldr	r3, [r3, #4]
	mov	r0, r3
	ldr	r1, [r7, #52]
	bl	FT_MulFix_arm(PLT)
	mov	r2, r0
	ldr	r3, [r7, #60]
	str	r2, [r3, #4]
	ldr	r3, [r7, #60]
	adds	r3, r3, #8
	str	r3, [r7, #60]
.L235:
	ldr	r2, [r7, #60]
	ldr	r3, [r7, #12]
	cmp	r2, r3
	bcc	.L236
	ldr	r3, [r7, #40]
	ldr	r2, [r3, #4]
	ldr	r3, [r7, #36]
	add	r3, r3, #536870912
	subs	r3, r3, #4
	lsls	r3, r3, #3
	add	r2, r2, r3
	ldr	r3, [r7, #4]
	adds	r3, r3, #68
	ldmia	r2, {r0, r1}
	stmia	r3, {r0, r1}
	ldr	r3, [r7, #40]
	ldr	r2, [r3, #4]
	ldr	r3, [r7, #36]
	add	r3, r3, #536870912
	subs	r3, r3, #3
	lsls	r3, r3, #3
	add	r2, r2, r3
	ldr	r3, [r7, #4]
	adds	r3, r3, #76
	ldmia	r2, {r0, r1}
	stmia	r3, {r0, r1}
	ldr	r3, [r7, #40]
	ldr	r2, [r3, #4]
	ldr	r3, [r7, #36]
	add	r3, r3, #536870912
	subs	r3, r3, #2
	lsls	r3, r3, #3
	add	r2, r2, r3
	ldr	r3, [r7, #4]
	adds	r3, r3, #184
	ldmia	r2, {r0, r1}
	stmia	r3, {r0, r1}
	ldr	r3, [r7, #40]
	ldr	r2, [r3, #4]
	ldr	r3, [r7, #36]
	add	r3, r3, #536870912
	subs	r3, r3, #1
	lsls	r3, r3, #3
	add	r2, r2, r3
	ldr	r3, [r7, #4]
	adds	r3, r3, #192
	ldmia	r2, {r0, r1}
	stmia	r3, {r0, r1}
.L234:
	ldr	r3, [r7, #4]
	ldr	r3, [r3, #16]
	and	r3, r3, #2
	cmp	r3, #0
	bne	.L237
	ldr	r3, [r7, #4]
	ldrh	r3, [r3, #132]
	adds	r3, r3, #4
	uxth	r2, r3
	ldr	r3, [r7, #4]
	strh	r2, [r3, #132]	@ movhi
	ldr	r0, [r7, #4]
	movs	r1, #0
	bl	TT_Hint_Glyph(PLT)
	str	r0, [r7, #68]
.L237:
	ldr	r3, [r7, #68]
.L226:
	mov	r0, r3
	adds	r7, r7, #72
	mov	sp, r7
	@ sp needed
	pop	{r7, pc}
	.size	TT_Process_Simple_Glyph, .-TT_Process_Simple_Glyph
	.section	.text.TT_Process_Composite_Component,"ax",%progbits
	.align	2
	.thumb
	.thumb_func
	.type	TT_Process_Composite_Component, %function
TT_Process_Composite_Component:
	@ args = 0, pretend = 0, frame = 88
	@ frame_needed = 1, uses_anonymous_args = 0
	push	{r7, lr}
	sub	sp, sp, #88
	add	r7, sp, #0
	str	r0, [r7, #12]
	str	r1, [r7, #8]
	str	r2, [r7, #4]
	str	r3, [r7]
	ldr	r3, [r7, #12]
	ldr	r3, [r3, #12]
	str	r3, [r7, #76]
	ldr	r3, [r7, #76]
	ldr	r2, [r3, #24]
	ldr	r3, [r7]
	lsls	r3, r3, #3
	add	r3, r3, r2
	str	r3, [r7, #20]
	ldr	r3, [r7, #76]
	ldrh	r3, [r3, #22]
	uxth	r2, r3
	ldr	r3, [r7]
	uxth	r3, r3
	subs	r3, r2, r3
	uxth	r3, r3
	uxth	r3, r3
	strh	r3, [r7, #18]	@ movhi
	ldr	r3, [r7, #8]
	ldrh	r3, [r3, #4]
	uxtb	r3, r3
	bic	r3, r3, #55
	strb	r3, [r7, #75]
	ldrb	r3, [r7, #75]	@ zero_extendqisi2
	cmp	r3, #0
	beq	.L239
	ldr	r3, [r7, #8]
	adds	r3, r3, #16
	add	r2, r7, #16
	mov	r0, r2
	mov	r1, r3
	bl	FT_Outline_Transform(PLT)
.L239:
	ldr	r3, [r7, #8]
	ldrh	r3, [r3, #4]
	and	r3, r3, #2
	cmp	r3, #0
	bne	.L240
	ldr	r3, [r7, #76]
	ldrh	r3, [r3, #22]
	sxth	r3, r3
	str	r3, [r7, #68]
	ldr	r3, [r7, #8]
	ldr	r3, [r3, #8]
	str	r3, [r7, #64]
	ldr	r3, [r7, #8]
	ldr	r3, [r3, #12]
	str	r3, [r7, #60]
	ldr	r2, [r7, #64]
	ldr	r3, [r7, #4]
	add	r3, r3, r2
	str	r3, [r7, #64]
	ldr	r2, [r7, #60]
	ldr	r3, [r7]
	add	r3, r3, r2
	str	r3, [r7, #60]
	ldr	r2, [r7, #64]
	ldr	r3, [r7]
	cmp	r2, r3
	bcs	.L241
	ldr	r2, [r7, #60]
	ldr	r3, [r7, #68]
	cmp	r2, r3
	bcc	.L242
.L241:
	movs	r3, #21
	b	.L249
.L242:
	ldr	r3, [r7, #76]
	ldr	r2, [r3, #24]
	ldr	r3, [r7, #64]
	lsls	r3, r3, #3
	add	r3, r3, r2
	str	r3, [r7, #56]
	ldr	r3, [r7, #76]
	ldr	r2, [r3, #24]
	ldr	r3, [r7, #60]
	lsls	r3, r3, #3
	add	r3, r3, r2
	str	r3, [r7, #52]
	ldr	r3, [r7, #56]
	ldr	r2, [r3]
	ldr	r3, [r7, #52]
	ldr	r3, [r3]
	subs	r3, r2, r3
	str	r3, [r7, #84]
	ldr	r3, [r7, #56]
	ldr	r2, [r3, #4]
	ldr	r3, [r7, #52]
	ldr	r3, [r3, #4]
	subs	r3, r2, r3
	str	r3, [r7, #80]
	b	.L244
.L240:
	ldr	r3, [r7, #8]
	ldr	r3, [r3, #8]
	str	r3, [r7, #84]
	ldr	r3, [r7, #8]
	ldr	r3, [r3, #12]
	str	r3, [r7, #80]
	ldr	r3, [r7, #84]
	cmp	r3, #0
	bne	.L245
	ldr	r3, [r7, #80]
	cmp	r3, #0
	bne	.L245
	movs	r3, #0
	b	.L249
.L245:
	ldrb	r3, [r7, #75]	@ zero_extendqisi2
	cmp	r3, #0
	beq	.L246
	ldr	r3, [r7, #8]
	ldrh	r3, [r3, #4]
	and	r3, r3, #2048
	cmp	r3, #0
	beq	.L246
	ldr	r3, [r7, #8]
	ldr	r2, [r3, #16]
	ldr	r3, [r7, #8]
	ldr	r3, [r3, #20]
	mov	r0, r2
	mov	r1, r3
	bl	FT_Hypot(PLT)
	str	r0, [r7, #48]
	ldr	r3, [r7, #8]
	ldr	r2, [r3, #28]
	ldr	r3, [r7, #8]
	ldr	r3, [r3, #24]
	mov	r0, r2
	mov	r1, r3
	bl	FT_Hypot(PLT)
	str	r0, [r7, #44]
	ldr	r0, [r7, #84]
	ldr	r1, [r7, #48]
	bl	FT_MulFix_arm(PLT)
	str	r0, [r7, #84]
	ldr	r0, [r7, #80]
	ldr	r1, [r7, #44]
	bl	FT_MulFix_arm(PLT)
	str	r0, [r7, #80]
.L246:
	ldr	r3, [r7, #12]
	ldr	r3, [r3, #16]
	and	r3, r3, #1
	cmp	r3, #0
	bne	.L244
	ldr	r3, [r7, #12]
	ldr	r3, [r3, #4]
	ldr	r3, [r3, #48]
	str	r3, [r7, #40]
	ldr	r3, [r7, #12]
	ldr	r3, [r3, #4]
	ldr	r3, [r3, #52]
	str	r3, [r7, #36]
	ldr	r0, [r7, #84]
	ldr	r1, [r7, #40]
	bl	FT_MulFix_arm(PLT)
	str	r0, [r7, #84]
	ldr	r0, [r7, #80]
	ldr	r1, [r7, #36]
	bl	FT_MulFix_arm(PLT)
	str	r0, [r7, #80]
	ldr	r3, [r7, #8]
	ldrh	r3, [r3, #4]
	and	r3, r3, #4
	cmp	r3, #0
	beq	.L244
	ldr	r3, [r7, #84]
	adds	r3, r3, #32
	bic	r3, r3, #63
	str	r3, [r7, #84]
	ldr	r3, [r7, #80]
	adds	r3, r3, #32
	bic	r3, r3, #63
	str	r3, [r7, #80]
.L244:
	ldr	r3, [r7, #84]
	cmp	r3, #0
	bne	.L247
	ldr	r3, [r7, #80]
	cmp	r3, #0
	beq	.L248
.L247:
	add	r3, r7, #16
	mov	r0, r3
	ldr	r1, [r7, #84]
	ldr	r2, [r7, #80]
	bl	FT_Outline_Translate(PLT)
.L248:
	movs	r3, #0
.L249:
	mov	r0, r3
	adds	r7, r7, #88
	mov	sp, r7
	@ sp needed
	pop	{r7, pc}
	.size	TT_Process_Composite_Component, .-TT_Process_Composite_Component
	.section	.text.TT_Process_Composite_Glyph,"ax",%progbits
	.align	2
	.thumb
	.thumb_func
	.type	TT_Process_Composite_Glyph, %function
TT_Process_Composite_Glyph:
	@ args = 0, pretend = 0, frame = 40
	@ frame_needed = 1, uses_anonymous_args = 0
	push	{r7, lr}
	sub	sp, sp, #48
	add	r7, sp, #8
	str	r0, [r7, #12]
	str	r1, [r7, #8]
	str	r2, [r7, #4]
	ldr	r3, [r7, #12]
	ldr	r3, [r3, #12]
	adds	r3, r3, #20
	str	r3, [r7, #32]
	ldr	r3, [r7, #32]
	ldrh	r3, [r3, #2]
	sxth	r3, r3
	cmn	r3, #4
	beq	.L251
	ldr	r3, [r7, #12]
	ldr	r3, [r3, #12]
	ldrh	r3, [r3, #22]
	sxth	r2, r3
	ldr	r3, [r7, #12]
	ldr	r3, [r3, #12]
	ldrh	r3, [r3, #58]
	sxth	r3, r3
	add	r2, r2, r3
	ldr	r3, [r7, #32]
	ldrh	r3, [r3, #2]
	sxth	r3, r3
	add	r3, r3, r2
	adds	r2, r3, #4
	ldr	r3, [r7, #12]
	ldr	r3, [r3, #12]
	ldr	r3, [r3, #4]
	cmp	r2, r3
	bls	.L251
	ldr	r3, [r7, #12]
	ldr	r2, [r3, #12]
	ldr	r3, [r7, #32]
	ldrh	r3, [r3, #2]
	sxth	r3, r3
	adds	r3, r3, #4
	mov	r0, r2
	mov	r1, r3
	movs	r2, #0
	bl	FT_GlyphLoader_CheckPoints(PLT)
	mov	r3, r0
	b	.L252
.L251:
	movs	r3, #0
.L252:
	str	r3, [r7, #20]
	ldr	r3, [r7, #20]
	cmp	r3, #0
	beq	.L253
	ldr	r3, [r7, #20]
	b	.L264
.L253:
	ldr	r3, [r7, #32]
	ldr	r2, [r3, #4]
	ldr	r3, [r7, #32]
	ldrh	r3, [r3, #2]
	sxth	r3, r3
	lsls	r3, r3, #3
	add	r3, r3, r2
	ldr	r2, [r7, #12]
	adds	r2, r2, #68
	ldmia	r2, {r0, r1}
	stmia	r3, {r0, r1}
	ldr	r3, [r7, #32]
	ldr	r2, [r3, #4]
	ldr	r3, [r7, #32]
	ldrh	r3, [r3, #2]
	sxth	r3, r3
	adds	r3, r3, #1
	lsls	r3, r3, #3
	add	r3, r3, r2
	ldr	r2, [r7, #12]
	adds	r2, r2, #76
	ldmia	r2, {r0, r1}
	stmia	r3, {r0, r1}
	ldr	r3, [r7, #32]
	ldr	r2, [r3, #4]
	ldr	r3, [r7, #32]
	ldrh	r3, [r3, #2]
	sxth	r3, r3
	adds	r3, r3, #2
	lsls	r3, r3, #3
	add	r3, r3, r2
	ldr	r2, [r7, #12]
	adds	r2, r2, #184
	ldmia	r2, {r0, r1}
	stmia	r3, {r0, r1}
	ldr	r3, [r7, #32]
	ldr	r2, [r3, #4]
	ldr	r3, [r7, #32]
	ldrh	r3, [r3, #2]
	sxth	r3, r3
	adds	r3, r3, #3
	lsls	r3, r3, #3
	add	r3, r3, r2
	ldr	r2, [r7, #12]
	adds	r2, r2, #192
	ldmia	r2, {r0, r1}
	stmia	r3, {r0, r1}
	ldr	r3, [r7, #32]
	ldr	r2, [r3, #8]
	ldr	r3, [r7, #32]
	ldrh	r3, [r3, #2]
	sxth	r3, r3
	add	r3, r3, r2
	movs	r2, #0
	strb	r2, [r3]
	ldr	r3, [r7, #32]
	ldr	r2, [r3, #8]
	ldr	r3, [r7, #32]
	ldrh	r3, [r3, #2]
	sxth	r3, r3
	adds	r3, r3, #1
	add	r3, r3, r2
	movs	r2, #0
	strb	r2, [r3]
	ldr	r3, [r7, #32]
	ldr	r2, [r3, #8]
	ldr	r3, [r7, #32]
	ldrh	r3, [r3, #2]
	sxth	r3, r3
	adds	r3, r3, #2
	add	r3, r3, r2
	movs	r2, #0
	strb	r2, [r3]
	ldr	r3, [r7, #32]
	ldr	r2, [r3, #8]
	ldr	r3, [r7, #32]
	ldrh	r3, [r3, #2]
	sxth	r3, r3
	adds	r3, r3, #3
	add	r3, r3, r2
	movs	r2, #0
	strb	r2, [r3]
	ldr	r3, [r7, #12]
	ldr	r3, [r3, #24]
	str	r3, [r7, #28]
	ldr	r3, [r7, #12]
	ldr	r3, [r3, #168]
	ldr	r0, [r7, #28]
	mov	r1, r3
	bl	FT_Stream_Seek(PLT)
	mov	r3, r0
	str	r3, [r7, #20]
	ldr	r3, [r7, #20]
	cmp	r3, #0
	bne	.L255
	add	r3, r7, #20
	ldr	r0, [r7, #28]
	mov	r1, r3
	bl	FT_Stream_ReadUShort(PLT)
	mov	r3, r0
	strh	r3, [r7, #26]	@ movhi
	ldr	r3, [r7, #20]
	cmp	r3, #0
	beq	.L256
.L255:
	ldr	r3, [r7, #20]
	b	.L264
.L256:
	ldr	r3, [r7, #12]
	ldr	r3, [r3]
	ldrh	r3, [r3, #286]	@ movhi
	strh	r3, [r7, #24]	@ movhi
	ldrh	r2, [r7, #26]
	ldrh	r3, [r7, #24]
	cmp	r2, r3
	bls	.L258
	ldrh	r2, [r7, #26]
	ldr	r3, [r7, #12]
	ldr	r3, [r3, #28]
	cmp	r2, r3
	ble	.L259
	movs	r3, #22
	b	.L264
.L259:
	ldr	r3, [r7, #12]
	ldr	r3, [r3, #160]
	ldr	r3, [r3, #388]
	str	r3, [r7, #16]
	ldr	r3, [r7, #12]
	ldr	r3, [r3, #160]
	ldr	r1, [r3, #8]
	ldr	r3, [r7, #12]
	ldr	r3, [r3, #160]
	add	r3, r3, #392
	ldrh	r0, [r7, #26]
	add	r2, r7, #16
	str	r0, [sp]
	mov	r0, r1
	mov	r1, r2
	movs	r2, #1
	bl	Update_Max(PLT)
	mov	r3, r0
	str	r3, [r7, #20]
	ldr	r3, [r7, #12]
	ldr	r3, [r3, #160]
	ldr	r2, [r7, #16]
	uxth	r2, r2
	str	r2, [r3, #388]
	ldr	r3, [r7, #20]
	cmp	r3, #0
	beq	.L260
	ldr	r3, [r7, #20]
	b	.L264
.L258:
	ldrh	r3, [r7, #26]
	cmp	r3, #0
	bne	.L260
	movs	r3, #0
	b	.L264
.L260:
	ldr	r3, [r7, #12]
	ldr	r3, [r3, #160]
	ldr	r2, [r3, #392]
	ldrh	r3, [r7, #26]
	ldr	r0, [r7, #28]
	mov	r1, r2
	mov	r2, r3
	bl	FT_Stream_Read(PLT)
	mov	r3, r0
	str	r3, [r7, #20]
	ldr	r3, [r7, #20]
	cmp	r3, #0
	beq	.L261
	ldr	r3, [r7, #20]
	b	.L264
.L261:
	ldr	r3, [r7, #12]
	ldr	r3, [r3, #8]
	ldr	r2, [r7, #12]
	ldr	r2, [r2, #160]
	ldr	r2, [r2, #392]
	str	r2, [r3, #136]
	ldr	r3, [r7, #12]
	ldr	r3, [r3, #8]
	ldrh	r2, [r7, #26]
	str	r2, [r3, #140]
	ldr	r3, [r7, #12]
	add	r2, r3, #124
	ldr	r3, [r7, #12]
	ldr	r3, [r3, #12]
	adds	r3, r3, #20
	mov	r0, r2
	mov	r1, r3
	ldr	r2, [r7, #8]
	ldr	r3, [r7, #4]
	bl	tt_prepare_zone(PLT)
	movs	r3, #0
	str	r3, [r7, #36]
	b	.L262
.L263:
	ldr	r3, [r7, #12]
	ldr	r2, [r3, #148]
	ldr	r3, [r7, #36]
	add	r3, r3, r2
	ldr	r2, [r7, #12]
	ldr	r1, [r2, #148]
	ldr	r2, [r7, #36]
	add	r2, r2, r1
	ldrb	r2, [r2]	@ zero_extendqisi2
	bic	r2, r2, #24
	uxtb	r2, r2
	strb	r2, [r3]
	ldr	r3, [r7, #36]
	adds	r3, r3, #1
	str	r3, [r7, #36]
.L262:
	ldr	r3, [r7, #12]
	ldrh	r3, [r3, #132]
	mov	r2, r3
	ldr	r3, [r7, #36]
	cmp	r2, r3
	bhi	.L263
	ldr	r3, [r7, #12]
	ldrh	r3, [r3, #132]
	adds	r3, r3, #4
	uxth	r2, r3
	ldr	r3, [r7, #12]
	strh	r2, [r3, #132]	@ movhi
	ldr	r0, [r7, #12]
	movs	r1, #1
	bl	TT_Hint_Glyph(PLT)
	mov	r3, r0
.L264:
	mov	r0, r3
	adds	r7, r7, #40
	mov	sp, r7
	@ sp needed
	pop	{r7, pc}
	.size	TT_Process_Composite_Glyph, .-TT_Process_Composite_Glyph
	.section	.rodata
	.align	2
.LC0:
	.byte	1
	.byte	1
	.byte	1
	.byte	1
	.align	2
.LC1:
	.short	0
	.short	1
	.short	2
	.short	3
	.section	.text.load_truetype_glyph,"ax",%progbits
	.align	2
	.thumb
	.thumb_func
	.type	load_truetype_glyph, %function
load_truetype_glyph:
	@ args = 0, pretend = 0, frame = 256
	@ frame_needed = 1, uses_anonymous_args = 0
	push	{r4, r7, lr}
	sub	sp, sp, #268
	add	r7, sp, #8
	str	r0, [r7, #12]
	str	r1, [r7, #8]
	str	r2, [r7, #4]
	strb	r3, [r7, #3]
	movs	r3, #0
	str	r3, [r7, #148]
	ldr	r3, [r7, #12]
	ldr	r3, [r3]
	str	r3, [r7, #220]
	ldr	r3, [r7, #12]
	ldr	r3, [r3, #12]
	str	r3, [r7, #216]
	movs	r3, #0
	strb	r3, [r7, #243]
	movs	r3, #0
	strb	r3, [r7, #242]
	ldr	r3, [r7, #4]
	cmp	r3, #1
	bls	.L266
	ldr	r3, [r7, #220]
	ldrh	r3, [r3, #290]
	mov	r2, r3
	ldr	r3, [r7, #4]
	cmp	r2, r3
	bcs	.L266
	movs	r3, #21
	str	r3, [r7, #148]
	b	.L267
.L266:
	ldr	r3, [r7, #12]
	ldr	r2, [r7, #8]
	str	r2, [r3, #20]
	ldr	r3, [r7, #12]
	ldr	r3, [r3, #16]
	and	r3, r3, #1
	cmp	r3, #0
	bne	.L268
	ldr	r3, [r7, #12]
	ldr	r3, [r3, #4]
	ldr	r3, [r3, #48]
	str	r3, [r7, #252]
	ldr	r3, [r7, #12]
	ldr	r3, [r3, #4]
	ldr	r3, [r3, #52]
	str	r3, [r7, #248]
	b	.L269
.L268:
	mov	r3, #65536
	str	r3, [r7, #252]
	mov	r3, #65536
	str	r3, [r7, #248]
.L269:
	ldr	r3, [r7, #220]
	ldr	r3, [r3, #128]
	ldr	r3, [r3, #48]
	cmp	r3, #0
	beq	.L270
	ldr	r3, [r7, #220]
	ldr	r3, [r3, #128]
	ldr	r3, [r3, #48]
	ldr	r3, [r3]
	ldr	r3, [r3]
	ldr	r2, [r7, #220]
	ldr	r2, [r2, #128]
	ldr	r2, [r2, #48]
	ldr	r1, [r2, #4]
	add	r2, r7, #100
	mov	r0, r1
	ldr	r1, [r7, #8]
	blx	r3
	mov	r3, r0
	str	r3, [r7, #148]
	ldr	r3, [r7, #148]
	cmp	r3, #0
	beq	.L271
	b	.L267
.L271:
	movs	r3, #1
	strb	r3, [r7, #242]
	movs	r3, #0
	str	r3, [r7, #244]
	ldr	r2, [r7, #104]
	ldr	r3, [r7, #12]
	str	r2, [r3, #28]
	add	r3, r7, #108
	mov	r0, r3
	movs	r1, #0
	movs	r2, #40
	bl	memset(PLT)
	ldr	r2, [r7, #100]
	ldr	r3, [r7, #104]
	add	r1, r7, #108
	mov	r0, r1
	mov	r1, r2
	mov	r2, r3
	bl	FT_Stream_OpenMemory(PLT)
	ldr	r3, [r7, #12]
	add	r2, r7, #108
	str	r2, [r3, #24]
	b	.L272
.L270:
	ldr	r3, [r7, #12]
	adds	r3, r3, #28
	ldr	r0, [r7, #220]
	ldr	r1, [r7, #8]
	mov	r2, r3
	bl	tt_face_get_location(PLT)
	str	r0, [r7, #244]
.L272:
	ldr	r3, [r7, #12]
	ldr	r3, [r3, #28]
	cmp	r3, #0
	ble	.L273
	ldr	r3, [r7, #12]
	ldr	r3, [r3, #84]
	cmp	r3, #0
	bne	.L274
	ldr	r3, [r7, #220]
	ldr	r3, [r3, #128]
	ldr	r3, [r3, #48]
	cmp	r3, #0
	bne	.L274
	movs	r3, #8
	str	r3, [r7, #148]
	b	.L267
.L274:
	ldr	r3, [r7, #220]
	ldr	r4, [r3, #512]
	ldr	r3, [r7, #12]
	ldr	r2, [r3, #84]
	ldr	r3, [r7, #244]
	add	r2, r2, r3
	ldr	r3, [r7, #12]
	ldr	r3, [r3, #28]
	ldr	r0, [r7, #12]
	ldr	r1, [r7, #8]
	blx	r4
	mov	r3, r0
	str	r3, [r7, #148]
	ldr	r3, [r7, #148]
	cmp	r3, #0
	beq	.L275
	b	.L267
.L275:
	movs	r3, #1
	strb	r3, [r7, #243]
	ldr	r3, [r7, #220]
	ldr	r3, [r3, #520]
	ldr	r0, [r7, #12]
	blx	r3
	mov	r3, r0
	str	r3, [r7, #148]
	ldr	r3, [r7, #148]
	cmp	r3, #0
	beq	.L276
	b	.L267
.L276:
	ldr	r0, [r7, #12]
	ldr	r1, [r7, #8]
	bl	tt_get_metrics(PLT)
	mov	r3, r0
	str	r3, [r7, #148]
	ldr	r3, [r7, #148]
	cmp	r3, #0
	beq	.L277
	b	.L267
.L277:
	ldrb	r3, [r7, #3]	@ zero_extendqisi2
	cmp	r3, #0
	beq	.L273
	b	.L267
.L273:
	ldr	r3, [r7, #12]
	ldr	r3, [r3, #28]
	cmp	r3, #0
	beq	.L278
	ldr	r3, [r7, #12]
	ldrh	r3, [r3, #32]
	cmp	r3, #0
	bne	.L279
.L278:
	ldr	r3, [r7, #12]
	movs	r2, #0
	str	r2, [r3, #36]
	ldr	r3, [r7, #12]
	movs	r2, #0
	str	r2, [r3, #44]
	ldr	r3, [r7, #12]
	movs	r2, #0
	str	r2, [r3, #40]
	ldr	r3, [r7, #12]
	movs	r2, #0
	str	r2, [r3, #48]
	ldr	r0, [r7, #12]
	ldr	r1, [r7, #8]
	bl	tt_get_metrics(PLT)
	mov	r3, r0
	str	r3, [r7, #148]
	ldr	r3, [r7, #148]
	cmp	r3, #0
	beq	.L280
	b	.L267
.L280:
	ldrb	r3, [r7, #3]	@ zero_extendqisi2
	cmp	r3, #0
	beq	.L281
	b	.L267
.L281:
	ldr	r3, [r7, #12]
	ldr	r3, [r3, #160]
	cmp	r3, #0
	beq	.L282
	ldr	r3, [r7, #12]
	ldr	r3, [r3, #160]
	ldrb	r3, [r3, #616]	@ zero_extendqisi2
	b	.L283
.L282:
	movs	r3, #0
.L283:
	strb	r3, [r7, #155]
	ldr	r3, [r7, #12]
	ldr	r3, [r3, #160]
	cmp	r3, #0
	beq	.L284
	ldr	r3, [r7, #12]
	ldr	r3, [r3, #160]
	ldrb	r3, [r3, #608]	@ zero_extendqisi2
	b	.L285
.L284:
	movs	r3, #0
.L285:
	strb	r3, [r7, #154]
	ldrb	r3, [r7, #155]	@ zero_extendqisi2
	cmp	r3, #0
	beq	.L286
	ldrb	r3, [r7, #154]	@ zero_extendqisi2
	cmp	r3, #0
	beq	.L286
	movs	r3, #1
	b	.L287
.L286:
	movs	r3, #0
.L287:
	strb	r3, [r7, #153]
	ldr	r3, [r7, #12]
	ldr	r2, [r3, #36]
	ldr	r3, [r7, #12]
	ldr	r3, [r3, #52]
	subs	r2, r2, r3
	ldr	r3, [r7, #12]
	str	r2, [r3, #68]
	ldr	r3, [r7, #12]
	movs	r2, #0
	str	r2, [r3, #72]
	ldr	r3, [r7, #12]
	ldr	r2, [r3, #68]
	ldr	r3, [r7, #12]
	ldr	r3, [r3, #56]
	add	r2, r2, r3
	ldr	r3, [r7, #12]
	str	r2, [r3, #76]
	ldr	r3, [r7, #12]
	movs	r2, #0
	str	r2, [r3, #80]
	ldrb	r3, [r7, #153]	@ zero_extendqisi2
	cmp	r3, #0
	beq	.L288
	ldr	r3, [r7, #12]
	ldr	r3, [r3, #56]
	lsrs	r2, r3, #31
	add	r3, r3, r2
	asrs	r3, r3, #1
	b	.L289
.L288:
	movs	r3, #0
.L289:
	ldr	r2, [r7, #12]
	str	r3, [r2, #184]
	ldr	r3, [r7, #12]
	ldr	r2, [r3, #48]
	ldr	r3, [r7, #12]
	ldr	r3, [r3, #176]
	add	r2, r2, r3
	ldr	r3, [r7, #12]
	str	r2, [r3, #188]
	ldrb	r3, [r7, #153]	@ zero_extendqisi2
	cmp	r3, #0
	beq	.L290
	ldr	r3, [r7, #12]
	ldr	r3, [r3, #56]
	lsrs	r2, r3, #31
	add	r3, r3, r2
	asrs	r3, r3, #1
	b	.L291
.L290:
	movs	r3, #0
.L291:
	ldr	r2, [r7, #12]
	str	r3, [r2, #192]
	ldr	r3, [r7, #12]
	ldr	r2, [r3, #188]
	ldr	r3, [r7, #12]
	ldr	r3, [r3, #180]
	subs	r2, r2, r3
	ldr	r3, [r7, #12]
	str	r2, [r3, #196]
	ldr	r0, [r7, #12]
	ldr	r1, [r7, #8]
	bl	tt_get_metrics_incr_overrides(PLT)
	ldr	r3, [r7, #12]
	ldr	r3, [r3]
	ldrb	r3, [r3, #672]	@ zero_extendqisi2
	cmp	r3, #0
	beq	.L292
	ldr	r3, .L334
.LPIC9:
	add	r3, pc
	mov	r2, r3
	add	r3, r7, #96
	ldr	r0, [r2]	@ unaligned
	str	r0, [r3]	@ unaligned
	ldr	r3, .L334+4
.LPIC10:
	add	r3, pc
	mov	r2, r3
	add	r3, r7, #88
	ldr	r0, [r2]	@ unaligned
	ldr	r1, [r2, #4]	@ unaligned
	stmia	r3!, {r0, r1}
	ldr	r3, [r7, #12]
	ldr	r3, [r3, #68]
	str	r3, [r7, #16]
	ldr	r3, [r7, #12]
	ldr	r3, [r3, #72]
	str	r3, [r7, #20]
	ldr	r3, [r7, #12]
	ldr	r3, [r3, #76]
	str	r3, [r7, #24]
	ldr	r3, [r7, #12]
	ldr	r3, [r3, #80]
	str	r3, [r7, #28]
	ldr	r3, [r7, #12]
	ldr	r3, [r3, #184]
	str	r3, [r7, #32]
	ldr	r3, [r7, #12]
	ldr	r3, [r3, #188]
	str	r3, [r7, #36]
	ldr	r3, [r7, #12]
	ldr	r3, [r3, #192]
	str	r3, [r7, #40]
	ldr	r3, [r7, #12]
	ldr	r3, [r3, #196]
	str	r3, [r7, #44]
	movs	r3, #4
	strh	r3, [r7, #70]	@ movhi
	movs	r3, #4
	strh	r3, [r7, #68]	@ movhi
	add	r3, r7, #16
	str	r3, [r7, #72]
	add	r3, r7, #96
	str	r3, [r7, #76]
	add	r3, r7, #88
	str	r3, [r7, #80]
	ldr	r3, [r7, #12]
	ldr	r1, [r3]
	ldrh	r3, [r7, #70]
	sxth	r3, r3
	add	r2, r7, #68
	mov	r0, r1
	ldr	r1, [r7, #8]
	bl	TT_Vary_Apply_Glyph_Deltas(PLT)
	mov	r3, r0
	str	r3, [r7, #148]
	ldr	r3, [r7, #148]
	cmp	r3, #0
	bne	.L267
	ldr	r2, [r7, #16]
	ldr	r3, [r7, #12]
	str	r2, [r3, #68]
	ldr	r2, [r7, #20]
	ldr	r3, [r7, #12]
	str	r2, [r3, #72]
	ldr	r2, [r7, #24]
	ldr	r3, [r7, #12]
	str	r2, [r3, #76]
	ldr	r2, [r7, #28]
	ldr	r3, [r7, #12]
	str	r2, [r3, #80]
	ldr	r2, [r7, #32]
	ldr	r3, [r7, #12]
	str	r2, [r3, #184]
	ldr	r2, [r7, #36]
	ldr	r3, [r7, #12]
	str	r2, [r3, #188]
	ldr	r2, [r7, #40]
	ldr	r3, [r7, #12]
	str	r2, [r3, #192]
	ldr	r2, [r7, #44]
	ldr	r3, [r7, #12]
	str	r2, [r3, #196]
.L292:
	ldr	r3, [r7, #12]
	ldr	r3, [r3, #16]
	and	r3, r3, #1
	cmp	r3, #0
	bne	.L294
	ldr	r3, [r7, #12]
	ldr	r3, [r3, #68]
	mov	r0, r3
	ldr	r1, [r7, #252]
	bl	FT_MulFix_arm(PLT)
	mov	r2, r0
	ldr	r3, [r7, #12]
	str	r2, [r3, #68]
	ldr	r3, [r7, #12]
	ldr	r3, [r3, #76]
	mov	r0, r3
	ldr	r1, [r7, #252]
	bl	FT_MulFix_arm(PLT)
	mov	r2, r0
	ldr	r3, [r7, #12]
	str	r2, [r3, #76]
	ldr	r3, [r7, #12]
	ldr	r3, [r3, #184]
	mov	r0, r3
	ldr	r1, [r7, #252]
	bl	FT_MulFix_arm(PLT)
	mov	r2, r0
	ldr	r3, [r7, #12]
	str	r2, [r3, #184]
	ldr	r3, [r7, #12]
	ldr	r3, [r3, #188]
	mov	r0, r3
	ldr	r1, [r7, #248]
	bl	FT_MulFix_arm(PLT)
	mov	r2, r0
	ldr	r3, [r7, #12]
	str	r2, [r3, #188]
	ldr	r3, [r7, #12]
	ldr	r3, [r3, #192]
	mov	r0, r3
	ldr	r1, [r7, #252]
	bl	FT_MulFix_arm(PLT)
	mov	r2, r0
	ldr	r3, [r7, #12]
	str	r2, [r3, #192]
	ldr	r3, [r7, #12]
	ldr	r3, [r3, #196]
	mov	r0, r3
	ldr	r1, [r7, #248]
	bl	FT_MulFix_arm(PLT)
	mov	r2, r0
	ldr	r3, [r7, #12]
	str	r2, [r3, #196]
.L294:
	movs	r3, #0
	str	r3, [r7, #148]
	b	.L267
.L279:
	ldr	r3, [r7, #12]
	ldr	r3, [r3, #160]
	cmp	r3, #0
	beq	.L295
	ldr	r3, [r7, #12]
	ldr	r3, [r3, #160]
	ldrb	r3, [r3, #616]	@ zero_extendqisi2
	b	.L296
.L295:
	movs	r3, #0
.L296:
	strb	r3, [r7, #215]
	ldr	r3, [r7, #12]
	ldr	r3, [r3, #160]
	cmp	r3, #0
	beq	.L297
	ldr	r3, [r7, #12]
	ldr	r3, [r3, #160]
	ldrb	r3, [r3, #608]	@ zero_extendqisi2
	b	.L298
.L297:
	movs	r3, #0
.L298:
	strb	r3, [r7, #214]
	ldrb	r3, [r7, #215]	@ zero_extendqisi2
	cmp	r3, #0
	beq	.L299
	ldrb	r3, [r7, #214]	@ zero_extendqisi2
	cmp	r3, #0
	beq	.L299
	movs	r3, #1
	b	.L300
.L299:
	movs	r3, #0
.L300:
	strb	r3, [r7, #213]
	ldr	r3, [r7, #12]
	ldr	r2, [r3, #36]
	ldr	r3, [r7, #12]
	ldr	r3, [r3, #52]
	subs	r2, r2, r3
	ldr	r3, [r7, #12]
	str	r2, [r3, #68]
	ldr	r3, [r7, #12]
	movs	r2, #0
	str	r2, [r3, #72]
	ldr	r3, [r7, #12]
	ldr	r2, [r3, #68]
	ldr	r3, [r7, #12]
	ldr	r3, [r3, #56]
	add	r2, r2, r3
	ldr	r3, [r7, #12]
	str	r2, [r3, #76]
	ldr	r3, [r7, #12]
	movs	r2, #0
	str	r2, [r3, #80]
	ldrb	r3, [r7, #213]	@ zero_extendqisi2
	cmp	r3, #0
	beq	.L301
	ldr	r3, [r7, #12]
	ldr	r3, [r3, #56]
	lsrs	r2, r3, #31
	add	r3, r3, r2
	asrs	r3, r3, #1
	b	.L302
.L301:
	movs	r3, #0
.L302:
	ldr	r2, [r7, #12]
	str	r3, [r2, #184]
	ldr	r3, [r7, #12]
	ldr	r2, [r3, #48]
	ldr	r3, [r7, #12]
	ldr	r3, [r3, #176]
	add	r2, r2, r3
	ldr	r3, [r7, #12]
	str	r2, [r3, #188]
	ldrb	r3, [r7, #213]	@ zero_extendqisi2
	cmp	r3, #0
	beq	.L303
	ldr	r3, [r7, #12]
	ldr	r3, [r3, #56]
	lsrs	r2, r3, #31
	add	r3, r3, r2
	asrs	r3, r3, #1
	b	.L304
.L303:
	movs	r3, #0
.L304:
	ldr	r2, [r7, #12]
	str	r3, [r2, #192]
	ldr	r3, [r7, #12]
	ldr	r2, [r3, #188]
	ldr	r3, [r7, #12]
	ldr	r3, [r3, #180]
	subs	r2, r2, r3
	ldr	r3, [r7, #12]
	str	r2, [r3, #196]
	ldr	r0, [r7, #12]
	ldr	r1, [r7, #8]
	bl	tt_get_metrics_incr_overrides(PLT)
	ldr	r3, [r7, #12]
	ldrh	r3, [r3, #32]
	sxth	r3, r3
	cmp	r3, #0
	ble	.L305
	ldr	r3, [r7, #220]
	ldr	r3, [r3, #524]
	ldr	r0, [r7, #12]
	blx	r3
	mov	r3, r0
	str	r3, [r7, #148]
	ldr	r3, [r7, #148]
	cmp	r3, #0
	beq	.L306
	b	.L267
.L306:
	ldr	r3, [r7, #220]
	ldr	r3, [r3, #516]
	ldr	r0, [r7, #12]
	blx	r3
	movs	r3, #0
	strb	r3, [r7, #243]
	ldr	r0, [r7, #12]
	bl	TT_Process_Simple_Glyph(PLT)
	mov	r3, r0
	str	r3, [r7, #148]
	ldr	r3, [r7, #148]
	cmp	r3, #0
	beq	.L307
	b	.L267
.L307:
	ldr	r0, [r7, #216]
	bl	FT_GlyphLoader_Add(PLT)
	b	.L267
.L305:
	ldr	r3, [r7, #12]
	ldrh	r3, [r3, #32]
	sxth	r3, r3
	cmp	r3, #-1
	bne	.L308
	ldr	r3, [r7, #220]
	ldr	r3, [r3, #100]
	str	r3, [r7, #208]
	ldr	r3, [r7, #12]
	add	r2, r3, #208
	ldr	r3, [r7, #8]
	mov	r0, r2
	mov	r1, r3
	bl	FT_List_Find(PLT)
	mov	r3, r0
	cmp	r3, #0
	beq	.L309
	movs	r3, #21
	str	r3, [r7, #148]
	b	.L267
.L309:
	movs	r3, #0
	str	r3, [r7, #204]
	add	r3, r7, #148
	ldr	r0, [r7, #208]
	movs	r1, #12
	mov	r2, r3
	bl	ft_mem_alloc(PLT)
	str	r0, [r7, #204]
	ldr	r3, [r7, #148]
	cmp	r3, #0
	beq	.L310
	b	.L267
.L310:
	ldr	r2, [r7, #8]
	ldr	r3, [r7, #204]
	str	r2, [r3, #8]
	ldr	r3, [r7, #12]
	adds	r3, r3, #208
	mov	r0, r3
	ldr	r1, [r7, #204]
	bl	FT_List_Add(PLT)
	ldr	r3, [r7, #216]
	ldrh	r3, [r3, #22]
	sxth	r3, r3
	str	r3, [r7, #200]
	ldr	r3, [r7, #216]
	ldrh	r3, [r3, #20]
	sxth	r3, r3
	str	r3, [r7, #196]
	ldr	r3, [r7, #220]
	ldr	r3, [r3, #528]
	ldr	r0, [r7, #12]
	blx	r3
	mov	r3, r0
	str	r3, [r7, #148]
	ldr	r3, [r7, #148]
	cmp	r3, #0
	beq	.L311
	b	.L267
.L311:
	ldr	r3, [r7, #12]
	ldr	r3, [r3, #168]
	str	r3, [r7, #192]
	ldr	r3, [r7, #220]
	ldr	r3, [r3, #516]
	ldr	r0, [r7, #12]
	blx	r3
	movs	r3, #0
	strb	r3, [r7, #243]
	ldr	r3, [r7, #220]
	ldrb	r3, [r3, #672]	@ zero_extendqisi2
	cmp	r3, #0
	beq	.L312
	movs	r3, #0
	str	r3, [r7, #188]
	movs	r3, #0
	str	r3, [r7, #184]
	movs	r3, #0
	str	r3, [r7, #180]
	ldr	r3, [r7, #216]
	ldr	r3, [r3, #84]
	strh	r3, [r7, #178]	@ movhi
	ldr	r3, [r7, #216]
	ldr	r3, [r3, #84]
	uxth	r3, r3
	adds	r3, r3, #4
	uxth	r3, r3
	uxth	r3, r3
	strh	r3, [r7, #50]	@ movhi
	ldrh	r3, [r7, #50]
	strh	r3, [r7, #48]	@ movhi
	ldrh	r3, [r7, #50]
	sxth	r3, r3
	movs	r2, #0
	str	r2, [sp]
	add	r2, r7, #148
	str	r2, [sp, #4]
	ldr	r0, [r7, #208]
	movs	r1, #8
	movs	r2, #0
	bl	ft_mem_realloc(PLT)
	str	r0, [r7, #188]
	ldr	r3, [r7, #148]
	cmp	r3, #0
	bne	.L313
	ldrh	r3, [r7, #50]
	sxth	r3, r3
	movs	r2, #0
	str	r2, [sp]
	add	r2, r7, #148
	str	r2, [sp, #4]
	ldr	r0, [r7, #208]
	movs	r1, #1
	movs	r2, #0
	bl	ft_mem_realloc(PLT)
	str	r0, [r7, #184]
	ldr	r3, [r7, #148]
	cmp	r3, #0
	bne	.L313
	ldrh	r3, [r7, #50]
	sxth	r3, r3
	movs	r2, #0
	str	r2, [sp]
	add	r2, r7, #148
	str	r2, [sp, #4]
	ldr	r0, [r7, #208]
	movs	r1, #2
	movs	r2, #0
	bl	ft_mem_realloc(PLT)
	str	r0, [r7, #180]
	ldr	r3, [r7, #148]
	cmp	r3, #0
	bne	.L313
	ldr	r3, [r7, #216]
	ldr	r3, [r3, #88]
	str	r3, [r7, #236]
	movs	r3, #0
	strh	r3, [r7, #240]	@ movhi
	b	.L314
.L315:
	ldrsh	r3, [r7, #240]
	lsls	r3, r3, #3
	ldr	r2, [r7, #188]
	add	r3, r3, r2
	ldr	r2, [r7, #236]
	ldr	r2, [r2, #8]
	str	r2, [r3]
	ldrsh	r3, [r7, #240]
	lsls	r3, r3, #3
	ldr	r2, [r7, #188]
	add	r3, r3, r2
	ldr	r2, [r7, #236]
	ldr	r2, [r2, #12]
	str	r2, [r3, #4]
	ldrsh	r3, [r7, #240]
	ldr	r2, [r7, #184]
	add	r3, r3, r2
	movs	r2, #1
	strb	r2, [r3]
	ldrsh	r3, [r7, #240]
	lsls	r3, r3, #1
	ldr	r2, [r7, #180]
	add	r3, r3, r2
	ldrh	r2, [r7, #240]	@ movhi
	strh	r2, [r3]	@ movhi
	ldrh	r3, [r7, #240]
	adds	r3, r3, #1
	strh	r3, [r7, #240]	@ movhi
	ldr	r3, [r7, #236]
	adds	r3, r3, #32
	str	r3, [r7, #236]
.L314:
	ldrsh	r2, [r7, #240]
	ldrsh	r3, [r7, #178]
	cmp	r2, r3
	blt	.L315
	ldrsh	r3, [r7, #240]
	lsls	r3, r3, #3
	ldr	r2, [r7, #188]
	add	r3, r3, r2
	ldr	r2, [r7, #12]
	ldr	r2, [r2, #68]
	str	r2, [r3]
	ldrsh	r3, [r7, #240]
	lsls	r3, r3, #3
	ldr	r2, [r7, #188]
	add	r3, r3, r2
	ldr	r2, [r7, #12]
	ldr	r2, [r2, #72]
	str	r2, [r3, #4]
	ldrsh	r3, [r7, #240]
	ldr	r2, [r7, #184]
	add	r3, r3, r2
	movs	r2, #1
	strb	r2, [r3]
	ldrsh	r3, [r7, #240]
	lsls	r3, r3, #1
	ldr	r2, [r7, #180]
	add	r3, r3, r2
	ldrh	r2, [r7, #240]	@ movhi
	strh	r2, [r3]	@ movhi
	ldrh	r3, [r7, #240]
	adds	r3, r3, #1
	strh	r3, [r7, #240]	@ movhi
	ldrsh	r3, [r7, #240]
	lsls	r3, r3, #3
	ldr	r2, [r7, #188]
	add	r3, r3, r2
	ldr	r2, [r7, #12]
	ldr	r2, [r2, #76]
	str	r2, [r3]
	ldrsh	r3, [r7, #240]
	lsls	r3, r3, #3
	ldr	r2, [r7, #188]
	add	r3, r3, r2
	ldr	r2, [r7, #12]
	ldr	r2, [r2, #80]
	str	r2, [r3, #4]
	ldrsh	r3, [r7, #240]
	ldr	r2, [r7, #184]
	add	r3, r3, r2
	movs	r2, #1
	strb	r2, [r3]
	ldrsh	r3, [r7, #240]
	lsls	r3, r3, #1
	ldr	r2, [r7, #180]
	add	r3, r3, r2
	ldrh	r2, [r7, #240]	@ movhi
	strh	r2, [r3]	@ movhi
	ldrh	r3, [r7, #240]
	adds	r3, r3, #1
	strh	r3, [r7, #240]	@ movhi
	ldrsh	r3, [r7, #240]
	lsls	r3, r3, #3
	ldr	r2, [r7, #188]
	add	r3, r3, r2
	ldr	r2, [r7, #12]
	ldr	r2, [r2, #184]
	str	r2, [r3]
	ldrsh	r3, [r7, #240]
	lsls	r3, r3, #3
	ldr	r2, [r7, #188]
	add	r3, r3, r2
	ldr	r2, [r7, #12]
	ldr	r2, [r2, #188]
	str	r2, [r3, #4]
	ldrsh	r3, [r7, #240]
	ldr	r2, [r7, #184]
	add	r3, r3, r2
	movs	r2, #1
	strb	r2, [r3]
	ldrsh	r3, [r7, #240]
	lsls	r3, r3, #1
	ldr	r2, [r7, #180]
	add	r3, r3, r2
	ldrh	r2, [r7, #240]	@ movhi
	strh	r2, [r3]	@ movhi
	ldrh	r3, [r7, #240]
	adds	r3, r3, #1
	strh	r3, [r7, #240]	@ movhi
	ldrsh	r3, [r7, #240]
	lsls	r3, r3, #3
	ldr	r2, [r7, #188]
	add	r3, r3, r2
	ldr	r2, [r7, #12]
	ldr	r2, [r2, #192]
	str	r2, [r3]
	ldrsh	r3, [r7, #240]
	lsls	r3, r3, #3
	ldr	r2, [r7, #188]
	add	r3, r3, r2
	ldr	r2, [r7, #12]
	ldr	r2, [r2, #196]
	str	r2, [r3, #4]
	ldrsh	r3, [r7, #240]
	ldr	r2, [r7, #184]
	add	r3, r3, r2
	movs	r2, #1
	strb	r2, [r3]
	ldrsh	r3, [r7, #240]
	lsls	r3, r3, #1
	ldr	r2, [r7, #180]
	add	r3, r3, r2
	ldrh	r2, [r7, #240]	@ movhi
	strh	r2, [r3]	@ movhi
	ldr	r3, [r7, #188]
	str	r3, [r7, #52]
	ldr	r3, [r7, #184]
	str	r3, [r7, #56]
	ldr	r3, [r7, #180]
	str	r3, [r7, #60]
	ldrh	r3, [r7, #50]
	sxth	r3, r3
	add	r2, r7, #48
	ldr	r0, [r7, #220]
	ldr	r1, [r7, #8]
	bl	TT_Vary_Apply_Glyph_Deltas(PLT)
	mov	r3, r0
	str	r3, [r7, #148]
	ldr	r3, [r7, #148]
	cmp	r3, #0
	beq	.L316
	b	.L313
.L316:
	ldr	r3, [r7, #216]
	ldr	r3, [r3, #88]
	str	r3, [r7, #236]
	movs	r3, #0
	strh	r3, [r7, #240]	@ movhi
	b	.L317
.L318:
	ldrsh	r3, [r7, #240]
	lsls	r3, r3, #3
	ldr	r2, [r7, #188]
	add	r3, r3, r2
	ldr	r3, [r3]
	uxth	r3, r3
	sxth	r2, r3
	ldr	r3, [r7, #236]
	str	r2, [r3, #8]
	ldrsh	r3, [r7, #240]
	lsls	r3, r3, #3
	ldr	r2, [r7, #188]
	add	r3, r3, r2
	ldr	r3, [r3, #4]
	uxth	r3, r3
	sxth	r2, r3
	ldr	r3, [r7, #236]
	str	r2, [r3, #12]
	ldrh	r3, [r7, #240]
	adds	r3, r3, #1
	strh	r3, [r7, #240]	@ movhi
	ldr	r3, [r7, #236]
	adds	r3, r3, #32
	str	r3, [r7, #236]
.L317:
	ldrsh	r2, [r7, #240]
	ldrsh	r3, [r7, #178]
	cmp	r2, r3
	blt	.L318
	ldrsh	r3, [r7, #240]
	lsls	r3, r3, #3
	ldr	r2, [r7, #188]
	add	r3, r3, r2
	ldr	r2, [r3]
	ldr	r3, [r7, #12]
	str	r2, [r3, #68]
	ldrsh	r3, [r7, #240]
	lsls	r3, r3, #3
	ldr	r2, [r7, #188]
	add	r3, r3, r2
	ldr	r2, [r3, #4]
	ldr	r3, [r7, #12]
	str	r2, [r3, #72]
	ldrsh	r3, [r7, #240]
	adds	r3, r3, #1
	lsls	r3, r3, #3
	ldr	r2, [r7, #188]
	add	r3, r3, r2
	ldr	r2, [r3]
	ldr	r3, [r7, #12]
	str	r2, [r3, #76]
	ldrsh	r3, [r7, #240]
	adds	r3, r3, #1
	lsls	r3, r3, #3
	ldr	r2, [r7, #188]
	add	r3, r3, r2
	ldr	r2, [r3, #4]
	ldr	r3, [r7, #12]
	str	r2, [r3, #80]
	ldrsh	r3, [r7, #240]
	adds	r3, r3, #2
	lsls	r3, r3, #3
	ldr	r2, [r7, #188]
	add	r3, r3, r2
	ldr	r2, [r3]
	ldr	r3, [r7, #12]
	str	r2, [r3, #184]
	ldrsh	r3, [r7, #240]
	adds	r3, r3, #2
	lsls	r3, r3, #3
	ldr	r2, [r7, #188]
	add	r3, r3, r2
	ldr	r2, [r3, #4]
	ldr	r3, [r7, #12]
	str	r2, [r3, #188]
	ldrsh	r3, [r7, #240]
	adds	r3, r3, #3
	lsls	r3, r3, #3
	ldr	r2, [r7, #188]
	add	r3, r3, r2
	ldr	r2, [r3]
	ldr	r3, [r7, #12]
	str	r2, [r3, #192]
	ldrsh	r3, [r7, #240]
	adds	r3, r3, #3
	lsls	r3, r3, #3
	ldr	r2, [r7, #188]
	add	r3, r3, r2
	ldr	r2, [r3, #4]
	ldr	r3, [r7, #12]
	str	r2, [r3, #196]
.L313:
	ldr	r3, [r7, #52]
	ldr	r0, [r7, #208]
	mov	r1, r3
	bl	ft_mem_free(PLT)
	movs	r3, #0
	str	r3, [r7, #52]
	ldr	r3, [r7, #56]
	ldr	r0, [r7, #208]
	mov	r1, r3
	bl	ft_mem_free(PLT)
	movs	r3, #0
	str	r3, [r7, #56]
	ldr	r3, [r7, #60]
	ldr	r0, [r7, #208]
	mov	r1, r3
	bl	ft_mem_free(PLT)
	movs	r3, #0
	str	r3, [r7, #60]
	ldr	r3, [r7, #148]
	cmp	r3, #0
	bne	.L267
.L312:
	ldr	r3, [r7, #12]
	ldr	r3, [r3, #16]
	and	r3, r3, #1
	cmp	r3, #0
	bne	.L320
	ldr	r3, [r7, #12]
	ldr	r3, [r3, #68]
	mov	r0, r3
	ldr	r1, [r7, #252]
	bl	FT_MulFix_arm(PLT)
	mov	r2, r0
	ldr	r3, [r7, #12]
	str	r2, [r3, #68]
	ldr	r3, [r7, #12]
	ldr	r3, [r3, #76]
	mov	r0, r3
	ldr	r1, [r7, #252]
	bl	FT_MulFix_arm(PLT)
	mov	r2, r0
	ldr	r3, [r7, #12]
	str	r2, [r3, #76]
	ldr	r3, [r7, #12]
	ldr	r3, [r3, #184]
	mov	r0, r3
	ldr	r1, [r7, #252]
	bl	FT_MulFix_arm(PLT)
	mov	r2, r0
	ldr	r3, [r7, #12]
	str	r2, [r3, #184]
	ldr	r3, [r7, #12]
	ldr	r3, [r3, #188]
	mov	r0, r3
	ldr	r1, [r7, #248]
	bl	FT_MulFix_arm(PLT)
	mov	r2, r0
	ldr	r3, [r7, #12]
	str	r2, [r3, #188]
	ldr	r3, [r7, #12]
	ldr	r3, [r3, #192]
	mov	r0, r3
	ldr	r1, [r7, #252]
	bl	FT_MulFix_arm(PLT)
	mov	r2, r0
	ldr	r3, [r7, #12]
	str	r2, [r3, #192]
	ldr	r3, [r7, #12]
	ldr	r3, [r3, #196]
	mov	r0, r3
	ldr	r1, [r7, #248]
	bl	FT_MulFix_arm(PLT)
	mov	r2, r0
	ldr	r3, [r7, #12]
	str	r2, [r3, #196]
.L320:
	ldr	r3, [r7, #12]
	ldr	r3, [r3, #16]
	and	r3, r3, #1024
	cmp	r3, #0
	beq	.L321
	ldr	r0, [r7, #216]
	bl	FT_GlyphLoader_Add(PLT)
	ldr	r3, [r7, #12]
	ldr	r2, [r3, #8]
	movw	r3, #28016
	movt	r3, 25455
	str	r3, [r2, #72]
	b	.L267
.L321:
	movs	r3, #0
	str	r3, [r7, #228]
	ldr	r3, [r7, #200]
	str	r3, [r7, #224]
	ldr	r3, [r7, #216]
	ldr	r3, [r3, #84]
	str	r3, [r7, #172]
	ldr	r3, [r7, #216]
	ldr	r3, [r3, #48]
	str	r3, [r7, #168]
	ldr	r3, [r7, #12]
	ldr	r3, [r3, #24]
	str	r3, [r7, #164]
	ldr	r3, [r7, #12]
	ldr	r3, [r3, #28]
	str	r3, [r7, #160]
	ldr	r0, [r7, #216]
	bl	FT_GlyphLoader_Add(PLT)
	movs	r3, #0
	str	r3, [r7, #232]
	b	.L322
.L329:
	ldr	r3, [r7, #216]
	ldr	r2, [r3, #52]
	ldr	r1, [r7, #168]
	ldr	r3, [r7, #232]
	add	r3, r3, r1
	lsls	r3, r3, #5
	add	r3, r3, r2
	str	r3, [r7, #228]
	ldr	r2, [r7, #12]
	add	r3, r7, #16
	adds	r2, r2, #68
	ldmia	r2, {r0, r1}
	stmia	r3, {r0, r1}
	ldr	r2, [r7, #12]
	add	r3, r7, #24
	adds	r2, r2, #76
	ldmia	r2, {r0, r1}
	stmia	r3, {r0, r1}
	ldr	r2, [r7, #12]
	add	r3, r7, #32
	adds	r2, r2, #184
	ldmia	r2, {r0, r1}
	stmia	r3, {r0, r1}
	ldr	r2, [r7, #12]
	add	r3, r7, #40
	adds	r2, r2, #192
	ldmia	r2, {r0, r1}
	stmia	r3, {r0, r1}
	ldr	r3, [r7, #216]
	ldrh	r3, [r3, #22]
	sxth	r3, r3
	str	r3, [r7, #156]
	ldr	r3, [r7, #228]
	ldr	r3, [r3]
	mov	r2, r3
	ldr	r3, [r7, #4]
	adds	r3, r3, #1
	ldr	r0, [r7, #12]
	mov	r1, r2
	mov	r2, r3
	movs	r3, #0
	bl	load_truetype_glyph(PLT)
	mov	r3, r0
	str	r3, [r7, #148]
	ldr	r3, [r7, #148]
	cmp	r3, #0
	beq	.L323
	b	.L267
.L323:
	ldr	r3, [r7, #216]
	ldr	r2, [r3, #52]
	ldr	r1, [r7, #168]
	ldr	r3, [r7, #232]
	add	r3, r3, r1
	lsls	r3, r3, #5
	add	r3, r3, r2
	str	r3, [r7, #228]
	ldr	r3, [r7, #228]
	ldrh	r3, [r3, #4]
	and	r3, r3, #512
	cmp	r3, #0
	bne	.L325
	ldr	r3, [r7, #12]
	adds	r3, r3, #68
	add	r2, r7, #16
	ldmia	r2, {r0, r1}
	stmia	r3, {r0, r1}
	ldr	r3, [r7, #12]
	adds	r3, r3, #76
	add	r2, r7, #24
	ldmia	r2, {r0, r1}
	stmia	r3, {r0, r1}
	ldr	r3, [r7, #12]
	adds	r3, r3, #184
	add	r2, r7, #32
	ldmia	r2, {r0, r1}
	stmia	r3, {r0, r1}
	ldr	r3, [r7, #12]
	adds	r3, r3, #192
	add	r2, r7, #40
	ldmia	r2, {r0, r1}
	stmia	r3, {r0, r1}
.L325:
	ldr	r3, [r7, #216]
	ldrh	r3, [r3, #22]
	sxth	r3, r3
	str	r3, [r7, #224]
	ldr	r2, [r7, #224]
	ldr	r3, [r7, #156]
	cmp	r2, r3
	beq	.L327
	ldr	r0, [r7, #12]
	ldr	r1, [r7, #228]
	ldr	r2, [r7, #200]
	ldr	r3, [r7, #156]
	bl	TT_Process_Composite_Component(PLT)
	mov	r3, r0
	str	r3, [r7, #148]
	ldr	r3, [r7, #148]
	cmp	r3, #0
	beq	.L327
	nop
	b	.L267
.L327:
	ldr	r3, [r7, #232]
	adds	r3, r3, #1
	str	r3, [r7, #232]
.L322:
	ldr	r2, [r7, #232]
	ldr	r3, [r7, #172]
	cmp	r2, r3
	bcc	.L329
	ldr	r3, [r7, #12]
	ldr	r2, [r7, #164]
	str	r2, [r3, #24]
	ldr	r3, [r7, #12]
	ldr	r2, [r7, #160]
	str	r2, [r3, #28]
	ldr	r3, [r7, #12]
	ldr	r2, [r7, #192]
	str	r2, [r3, #168]
	ldr	r3, [r7, #12]
	ldr	r3, [r3, #16]
	and	r3, r3, #2
	cmp	r3, #0
	bne	.L330
	ldr	r3, [r7, #228]
	ldrh	r3, [r3, #4]
	and	r3, r3, #256
	cmp	r3, #0
	beq	.L330
	ldr	r2, [r7, #224]
	ldr	r3, [r7, #200]
	cmp	r2, r3
	bls	.L330
	ldr	r0, [r7, #12]
	ldr	r1, [r7, #200]
	ldr	r2, [r7, #196]
	bl	TT_Process_Composite_Glyph(PLT)
	mov	r3, r0
	str	r3, [r7, #148]
	ldr	r3, [r7, #148]
	cmp	r3, #0
	beq	.L330
	b	.L267
.L330:
	b	.L267
.L308:
	movs	r3, #20
	str	r3, [r7, #148]
	nop
.L267:
	ldrb	r3, [r7, #243]	@ zero_extendqisi2
	cmp	r3, #0
	beq	.L331
	ldr	r3, [r7, #220]
	ldr	r3, [r3, #516]
	ldr	r0, [r7, #12]
	blx	r3
.L331:
	ldrb	r3, [r7, #242]	@ zero_extendqisi2
	cmp	r3, #0
	beq	.L332
	ldr	r3, [r7, #220]
	ldr	r3, [r3, #128]
	ldr	r3, [r3, #48]
	ldr	r3, [r3]
	ldr	r3, [r3, #4]
	ldr	r2, [r7, #220]
	ldr	r2, [r2, #128]
	ldr	r2, [r2, #48]
	ldr	r1, [r2, #4]
	add	r2, r7, #100
	mov	r0, r1
	mov	r1, r2
	blx	r3
.L332:
	ldr	r3, [r7, #148]
	mov	r0, r3
	add	r7, r7, #260
	mov	sp, r7
	@ sp needed
	pop	{r4, r7, pc}
.L335:
	.align	2
.L334:
	.word	.LC0-(.LPIC9+4)
	.word	.LC1-(.LPIC10+4)
	.size	load_truetype_glyph, .-load_truetype_glyph
	.section	.text.compute_glyph_metrics,"ax",%progbits
	.align	2
	.thumb
	.thumb_func
	.type	compute_glyph_metrics, %function
compute_glyph_metrics:
	@ args = 0, pretend = 0, frame = 88
	@ frame_needed = 1, uses_anonymous_args = 0
	push	{r4, r7, lr}
	sub	sp, sp, #92
	add	r7, sp, #0
	str	r0, [r7, #4]
	str	r1, [r7]
	ldr	r3, [r7, #4]
	ldr	r3, [r3]
	str	r3, [r7, #72]
	ldr	r3, [r7, #72]
	ldr	r3, [r3, #96]
	str	r3, [r7, #68]
	ldr	r3, [r7, #4]
	ldr	r3, [r3, #8]
	str	r3, [r7, #64]
	ldr	r3, [r7, #4]
	ldr	r3, [r3, #4]
	str	r3, [r7, #60]
	mov	r3, #65536
	str	r3, [r7, #84]
	ldr	r3, [r7, #4]
	ldr	r3, [r3, #16]
	and	r3, r3, #1
	cmp	r3, #0
	bne	.L337
	ldr	r3, [r7, #60]
	ldr	r3, [r3, #20]
	str	r3, [r7, #84]
.L337:
	ldr	r3, [r7, #64]
	ldr	r2, [r3, #72]
	movw	r3, #28016
	movt	r3, 25455
	cmp	r2, r3
	beq	.L338
	ldr	r3, [r7, #64]
	add	r2, r3, #108
	add	r3, r7, #24
	mov	r0, r2
	mov	r1, r3
	bl	FT_Outline_Get_CBox(PLT)
	b	.L339
.L338:
	ldr	r3, [r7, #4]
	add	r4, r7, #24
	adds	r3, r3, #36
	ldmia	r3, {r0, r1, r2, r3}
	stmia	r4, {r0, r1, r2, r3}
.L339:
	ldr	r3, [r7, #4]
	ldr	r2, [r3, #60]
	ldr	r3, [r7, #64]
	str	r2, [r3, #56]
	ldr	r2, [r7, #24]
	ldr	r3, [r7, #64]
	str	r2, [r3, #32]
	ldr	r2, [r7, #36]
	ldr	r3, [r7, #64]
	str	r2, [r3, #36]
	ldr	r3, [r7, #4]
	ldr	r2, [r3, #76]
	ldr	r3, [r7, #4]
	ldr	r3, [r3, #68]
	subs	r2, r2, r3
	ldr	r3, [r7, #64]
	str	r2, [r3, #40]
	ldr	r3, [r7, #72]
	ldr	r3, [r3, #480]
	cmp	r3, #0
	bne	.L340
	ldr	r3, [r7, #4]
	ldr	r3, [r3, #16]
	and	r3, r3, #2
	cmp	r3, #0
	bne	.L340
	ldr	r3, [r7, #4]
	ldr	r3, [r3, #16]
	and	r3, r3, #2097152
	cmp	r3, #0
	bne	.L340
	ldr	r3, [r7, #60]
	ldrh	r3, [r3, #12]
	ldr	r0, [r7, #72]
	mov	r1, r3
	ldr	r2, [r7]
	bl	tt_face_get_device_metrics(PLT)
	str	r0, [r7, #56]
	ldr	r3, [r7, #68]
	ldr	r3, [r3, #64]
	cmp	r3, #38
	bne	.L341
	ldr	r3, [r7, #4]
	ldr	r3, [r3, #16]
	lsrs	r3, r3, #16
	and	r3, r3, #15
	cmp	r3, #2
	ite	ne
	movne	r3, #1
	moveq	r3, #0
	uxtb	r3, r3
	strb	r3, [r7, #55]
	ldr	r3, [r7, #56]
	cmp	r3, #0
	beq	.L342
	ldrb	r3, [r7, #55]	@ zero_extendqisi2
	cmp	r3, #0
	beq	.L343
	ldr	r3, [r7, #4]
	ldr	r3, [r3, #160]
	ldrb	r3, [r3, #618]	@ zero_extendqisi2
	cmp	r3, #0
	bne	.L344
.L343:
	ldrb	r3, [r7, #55]	@ zero_extendqisi2
	cmp	r3, #0
	bne	.L342
.L344:
	ldr	r3, [r7, #56]
	ldrb	r3, [r3]	@ zero_extendqisi2
	lsls	r2, r3, #6
	ldr	r3, [r7, #64]
	str	r2, [r3, #40]
	b	.L340
.L342:
	b	.L340
.L341:
	ldr	r3, [r7, #56]
	cmp	r3, #0
	beq	.L340
	ldr	r3, [r7, #56]
	ldrb	r3, [r3]	@ zero_extendqisi2
	lsls	r2, r3, #6
	ldr	r3, [r7, #64]
	str	r2, [r3, #40]
.L340:
	ldr	r2, [r7, #32]
	ldr	r3, [r7, #24]
	subs	r2, r2, r3
	ldr	r3, [r7, #64]
	str	r2, [r3, #24]
	ldr	r2, [r7, #36]
	ldr	r3, [r7, #28]
	subs	r2, r2, r3
	ldr	r3, [r7, #64]
	str	r2, [r3, #28]
	ldr	r3, [r7, #72]
	ldrb	r3, [r3, #292]	@ zero_extendqisi2
	cmp	r3, #0
	beq	.L345
	ldr	r3, [r7, #72]
	ldrh	r3, [r3, #330]
	cmp	r3, #0
	beq	.L345
	ldr	r3, [r7, #4]
	ldr	r2, [r3, #188]
	ldr	r3, [r7, #36]
	subs	r3, r2, r3
	mov	r0, r3
	ldr	r1, [r7, #84]
	bl	FT_DivFix(PLT)
	mov	r3, r0
	uxth	r3, r3
	sxth	r3, r3
	str	r3, [r7, #80]
	ldr	r3, [r7, #4]
	ldr	r2, [r3, #188]
	ldr	r3, [r7, #4]
	ldr	r3, [r3, #196]
	cmp	r2, r3
	bgt	.L346
	movs	r3, #0
	str	r3, [r7, #76]
	b	.L348
.L346:
	ldr	r3, [r7, #4]
	ldr	r2, [r3, #188]
	ldr	r3, [r7, #4]
	ldr	r3, [r3, #196]
	subs	r3, r2, r3
	mov	r0, r3
	ldr	r1, [r7, #84]
	bl	FT_DivFix(PLT)
	mov	r3, r0
	uxth	r3, r3
	str	r3, [r7, #76]
	b	.L348
.L345:
	ldr	r2, [r7, #36]
	ldr	r3, [r7, #28]
	subs	r3, r2, r3
	mov	r0, r3
	ldr	r1, [r7, #84]
	bl	FT_DivFix(PLT)
	mov	r3, r0
	uxth	r3, r3
	sxth	r3, r3
	str	r3, [r7, #48]
	ldr	r3, [r7, #72]
	ldrh	r2, [r3, #364]
	movw	r3, #65535
	cmp	r2, r3
	beq	.L349
	ldr	r3, [r7, #72]
	ldrh	r3, [r3, #434]
	sxth	r2, r3
	ldr	r3, [r7, #72]
	ldrh	r3, [r3, #436]
	sxth	r3, r3
	subs	r3, r2, r3
	str	r3, [r7, #76]
	b	.L350
.L349:
	ldr	r3, [r7, #72]
	ldrh	r3, [r3, #220]
	sxth	r2, r3
	ldr	r3, [r7, #72]
	ldrh	r3, [r3, #222]
	sxth	r3, r3
	subs	r3, r2, r3
	str	r3, [r7, #76]
.L350:
	ldr	r2, [r7, #76]
	ldr	r3, [r7, #48]
	subs	r3, r2, r3
	lsrs	r2, r3, #31
	add	r3, r3, r2
	asrs	r3, r3, #1
	str	r3, [r7, #80]
.L348:
	ldr	r3, [r7, #72]
	ldr	r3, [r3, #128]
	ldr	r3, [r3, #48]
	str	r3, [r7, #44]
	ldr	r3, [r7, #44]
	cmp	r3, #0
	beq	.L351
	ldr	r3, [r7, #44]
	ldr	r3, [r3]
	ldr	r3, [r3, #8]
	cmp	r3, #0
	beq	.L351
	movs	r3, #0
	str	r3, [r7, #8]
	ldr	r3, [r7, #80]
	str	r3, [r7, #12]
	ldr	r3, [r7, #76]
	str	r3, [r7, #16]
	ldr	r3, [r7, #44]
	ldr	r3, [r3]
	ldr	r4, [r3, #8]
	ldr	r3, [r7, #44]
	ldr	r2, [r3, #4]
	add	r3, r7, #8
	mov	r0, r2
	ldr	r1, [r7]
	movs	r2, #1
	blx	r4
	str	r0, [r7, #40]
	ldr	r3, [r7, #40]
	cmp	r3, #0
	beq	.L352
	ldr	r3, [r7, #40]
	b	.L355
.L352:
	ldr	r3, [r7, #12]
	str	r3, [r7, #80]
	ldr	r3, [r7, #16]
	str	r3, [r7, #76]
.L351:
	ldr	r3, [r7, #64]
	ldr	r2, [r7, #76]
	str	r2, [r3, #60]
	ldr	r3, [r7, #4]
	ldr	r3, [r3, #16]
	and	r3, r3, #1
	cmp	r3, #0
	bne	.L354
	ldr	r0, [r7, #80]
	ldr	r1, [r7, #84]
	bl	FT_MulFix_arm(PLT)
	str	r0, [r7, #80]
	ldr	r0, [r7, #76]
	ldr	r1, [r7, #84]
	bl	FT_MulFix_arm(PLT)
	str	r0, [r7, #76]
.L354:
	ldr	r3, [r7, #64]
	ldr	r2, [r3, #32]
	ldr	r3, [r7, #64]
	ldr	r3, [r3, #40]
	lsrs	r1, r3, #31
	add	r3, r3, r1
	asrs	r3, r3, #1
	subs	r2, r2, r3
	ldr	r3, [r7, #64]
	str	r2, [r3, #44]
	ldr	r3, [r7, #64]
	ldr	r2, [r7, #80]
	str	r2, [r3, #48]
	ldr	r3, [r7, #64]
	ldr	r2, [r7, #76]
	str	r2, [r3, #52]
	movs	r3, #0
.L355:
	mov	r0, r3
	adds	r7, r7, #92
	mov	sp, r7
	@ sp needed
	pop	{r4, r7, pc}
	.size	compute_glyph_metrics, .-compute_glyph_metrics
	.section	.text.load_sbit_image,"ax",%progbits
	.align	2
	.thumb
	.thumb_func
	.type	load_sbit_image, %function
load_sbit_image:
	@ args = 0, pretend = 0, frame = 48
	@ frame_needed = 1, uses_anonymous_args = 0
	push	{r4, r7, lr}
	sub	sp, sp, #68
	add	r7, sp, #16
	str	r0, [r7, #12]
	str	r1, [r7, #8]
	str	r2, [r7, #4]
	str	r3, [r7]
	ldr	r3, [r7, #8]
	ldr	r3, [r3, #4]
	str	r3, [r7, #44]
	ldr	r3, [r7, #44]
	ldr	r3, [r3, #532]
	str	r3, [r7, #40]
	ldr	r3, [r7, #44]
	ldr	r3, [r3, #104]
	str	r3, [r7, #36]
	ldr	r3, [r7, #40]
	ldr	r4, [r3, #72]
	ldr	r3, [r7, #12]
	ldr	r2, [r3, #112]
	ldr	r3, [r7]
	ldr	r1, [r7, #8]
	adds	r1, r1, #76
	ldr	r0, [r7, #36]
	str	r0, [sp]
	str	r1, [sp, #4]
	add	r1, r7, #16
	str	r1, [sp, #8]
	ldr	r0, [r7, #44]
	mov	r1, r2
	ldr	r2, [r7, #4]
	blx	r4
	str	r0, [r7, #32]
	ldr	r3, [r7, #32]
	cmp	r3, #0
	bne	.L357
	ldr	r3, [r7, #8]
	movs	r2, #0
	strh	r2, [r3, #110]	@ movhi
	ldr	r3, [r7, #8]
	movs	r2, #0
	strh	r2, [r3, #108]	@ movhi
	ldrh	r3, [r7, #18]
	lsls	r2, r3, #6
	ldr	r3, [r7, #8]
	str	r2, [r3, #24]
	ldrh	r3, [r7, #16]
	lsls	r2, r3, #6
	ldr	r3, [r7, #8]
	str	r2, [r3, #28]
	ldrh	r3, [r7, #20]
	sxth	r3, r3
	lsls	r2, r3, #6
	ldr	r3, [r7, #8]
	str	r2, [r3, #32]
	ldrh	r3, [r7, #22]
	sxth	r3, r3
	lsls	r2, r3, #6
	ldr	r3, [r7, #8]
	str	r2, [r3, #36]
	ldrh	r3, [r7, #24]
	lsls	r2, r3, #6
	ldr	r3, [r7, #8]
	str	r2, [r3, #40]
	ldrh	r3, [r7, #26]
	sxth	r3, r3
	lsls	r2, r3, #6
	ldr	r3, [r7, #8]
	str	r2, [r3, #44]
	ldrh	r3, [r7, #28]
	sxth	r3, r3
	lsls	r2, r3, #6
	ldr	r3, [r7, #8]
	str	r2, [r3, #48]
	ldrh	r3, [r7, #30]
	lsls	r2, r3, #6
	ldr	r3, [r7, #8]
	str	r2, [r3, #52]
	ldr	r2, [r7, #8]
	movw	r3, #29811
	movt	r3, 25193
	str	r3, [r2, #72]
	ldr	r3, [r7]
	and	r3, r3, #16
	cmp	r3, #0
	beq	.L358
	ldrh	r3, [r7, #26]
	sxth	r2, r3
	ldr	r3, [r7, #8]
	str	r2, [r3, #100]
	ldrh	r3, [r7, #28]
	sxth	r2, r3
	ldr	r3, [r7, #8]
	str	r2, [r3, #104]
	b	.L357
.L358:
	ldrh	r3, [r7, #20]
	sxth	r2, r3
	ldr	r3, [r7, #8]
	str	r2, [r3, #100]
	ldrh	r3, [r7, #22]
	sxth	r2, r3
	ldr	r3, [r7, #8]
	str	r2, [r3, #104]
.L357:
	ldr	r3, [r7, #32]
	mov	r0, r3
	adds	r7, r7, #52
	mov	sp, r7
	@ sp needed
	pop	{r4, r7, pc}
	.size	load_sbit_image, .-load_sbit_image
	.section	.text.tt_loader_init,"ax",%progbits
	.align	2
	.thumb
	.thumb_func
	.type	tt_loader_init, %function
tt_loader_init:
	@ args = 4, pretend = 0, frame = 56
	@ frame_needed = 1, uses_anonymous_args = 0
	push	{r4, r5, r7, lr}
	sub	sp, sp, #56
	add	r7, sp, #0
	str	r0, [r7, #12]
	str	r1, [r7, #8]
	str	r2, [r7, #4]
	str	r3, [r7]
	ldr	r4, .L394
.LPIC11:
	add	r4, pc
	ldr	r3, [r7]
	uxtb	r3, r3
	bic	r3, r3, #127
	strb	r3, [r7, #47]
	ldr	r3, [r7, #4]
	ldr	r3, [r3, #4]
	str	r3, [r7, #40]
	ldr	r3, [r7, #40]
	ldr	r3, [r3, #104]
	str	r3, [r7, #36]
	ldr	r0, [r7, #12]
	movs	r1, #0
	movs	r2, #216
	bl	memset(PLT)
	ldr	r3, [r7]
	and	r3, r3, #2
	cmp	r3, #0
	bne	.L361
	ldrb	r3, [r7, #72]	@ zero_extendqisi2
	cmp	r3, #0
	bne	.L361
	ldr	r3, [r7, #40]
	ldr	r3, [r3, #96]
	str	r3, [r7, #32]
	movs	r3, #0
	strb	r3, [r7, #54]
	movs	r3, #0
	strb	r3, [r7, #53]
	ldr	r3, [r7, #8]
	ldr	r3, [r3, #296]
	cmp	r3, #0
	blt	.L362
	ldr	r3, [r7, #8]
	ldr	r3, [r3, #300]
	cmp	r3, #0
	bge	.L363
.L362:
	ldrb	r3, [r7, #47]	@ zero_extendqisi2
	ldr	r0, [r7, #8]
	mov	r1, r3
	bl	tt_size_ready_bytecode(PLT)
	str	r0, [r7, #28]
	ldr	r3, [r7, #28]
	cmp	r3, #0
	beq	.L364
	ldr	r3, [r7, #28]
	b	.L365
.L364:
	b	.L366
.L363:
	ldr	r3, [r7, #8]
	ldr	r3, [r3, #296]
	cmp	r3, #0
	beq	.L367
	ldr	r3, [r7, #8]
	ldr	r3, [r3, #296]
	b	.L365
.L367:
	ldr	r3, [r7, #8]
	ldr	r3, [r3, #300]
	cmp	r3, #0
	beq	.L366
	ldr	r3, [r7, #8]
	ldr	r3, [r3, #300]
	b	.L365
.L366:
	ldr	r3, [r7, #8]
	ldr	r3, [r3, #292]
	str	r3, [r7, #24]
	ldr	r3, [r7, #24]
	cmp	r3, #0
	bne	.L368
	movs	r3, #153
	b	.L365
.L368:
	ldr	r3, [r7, #32]
	ldr	r3, [r3, #64]
	cmp	r3, #38
	bne	.L369
	ldr	r3, [r7]
	asrs	r3, r3, #16
	and	r3, r3, #15
	cmp	r3, #2
	ite	ne
	movne	r3, #1
	moveq	r3, #0
	uxtb	r3, r3
	strb	r3, [r7, #54]
	ldrb	r3, [r7, #54]	@ zero_extendqisi2
	cmp	r3, #0
	beq	.L370
	movs	r3, #0
	strb	r3, [r7, #55]
	b	.L371
.L370:
	movs	r3, #0
	strb	r3, [r7, #55]
.L371:
	ldr	r3, [r7, #4]
	ldr	r3, [r3, #4]
	ldr	r3, [r3, #8]
	and	r3, r3, #8192
	cmp	r3, #0
	beq	.L372
	movs	r3, #0
	strb	r3, [r7, #54]
.L372:
	ldrb	r3, [r7, #54]	@ zero_extendqisi2
	cmp	r3, #0
	bne	.L373
	ldrb	r3, [r7, #55]	@ zero_extendqisi2
	cmp	r3, #0
	beq	.L374
.L373:
	movs	r3, #1
	b	.L375
.L374:
	movs	r3, #0
.L375:
	uxtb	r2, r3
	ldr	r3, [r7, #24]
	strb	r2, [r3, #617]
	ldr	r3, [r7, #24]
	movs	r2, #38
	str	r2, [r3, #624]
	ldr	r3, [r7, #24]
	ldr	r3, [r3, #632]
	and	r3, r3, #8192
	cmp	r3, #0
	beq	.L376
	ldr	r3, [r7, #24]
	movs	r2, #35
	str	r2, [r3, #624]
.L376:
	ldr	r3, [r7, #24]
	movs	r2, #0
	strb	r2, [r3, #618]
	ldr	r3, [r7, #24]
	movs	r2, #1
	strb	r2, [r3, #619]
	ldr	r3, [r7, #24]
	movs	r2, #0
	strb	r2, [r3, #620]
	ldr	r3, [r7, #24]
	movs	r2, #0
	strb	r2, [r3, #621]
	ldr	r3, [r7, #24]
	movs	r2, #1
	strb	r2, [r3, #622]
	ldr	r3, [r7, #24]
	movs	r2, #0
	strb	r2, [r3, #623]
	b	.L377
.L369:
	ldr	r3, [r7]
	asrs	r3, r3, #16
	and	r3, r3, #15
	cmp	r3, #2
	ite	ne
	movne	r3, #1
	moveq	r3, #0
	uxtb	r3, r3
	strb	r3, [r7, #55]
.L377:
	ldr	r0, [r7, #24]
	ldr	r1, [r7, #40]
	ldr	r2, [r7, #8]
	bl	TT_Load_Context(PLT)
	str	r0, [r7, #28]
	ldr	r3, [r7, #28]
	cmp	r3, #0
	beq	.L378
	ldr	r3, [r7, #28]
	b	.L365
.L378:
	ldr	r3, [r7, #32]
	ldr	r3, [r3, #64]
	cmp	r3, #38
	bne	.L379
	ldr	r3, [r7, #24]
	ldrb	r3, [r3, #616]	@ zero_extendqisi2
	ldrb	r2, [r7, #54]	@ zero_extendqisi2
	cmp	r2, r3
	beq	.L380
	ldr	r3, [r7, #24]
	ldrb	r2, [r7, #54]
	strb	r2, [r3, #616]
	movs	r3, #1
	strb	r3, [r7, #53]
.L380:
	ldr	r3, [r7, #24]
	ldrb	r3, [r3, #608]	@ zero_extendqisi2
	ldrb	r2, [r7, #55]	@ zero_extendqisi2
	cmp	r2, r3
	beq	.L382
	ldr	r3, [r7, #24]
	ldrb	r2, [r7, #55]
	strb	r2, [r3, #608]
	movs	r3, #1
	strb	r3, [r7, #53]
	b	.L382
.L379:
	ldr	r3, [r7, #24]
	ldrb	r3, [r3, #608]	@ zero_extendqisi2
	ldrb	r2, [r7, #55]	@ zero_extendqisi2
	cmp	r2, r3
	beq	.L382
	ldr	r3, [r7, #24]
	ldrb	r2, [r7, #55]
	strb	r2, [r3, #608]
	movs	r3, #1
	strb	r3, [r7, #53]
.L382:
	ldrb	r3, [r7, #53]	@ zero_extendqisi2
	cmp	r3, #0
	beq	.L383
	movs	r3, #0
	str	r3, [r7, #48]
	b	.L384
.L385:
	ldr	r3, [r7, #8]
	ldr	r2, [r3, #244]
	ldr	r3, [r7, #48]
	lsls	r3, r3, #2
	adds	r5, r2, r3
	ldr	r3, [r7, #40]
	ldr	r2, [r3, #648]
	ldr	r3, [r7, #48]
	lsls	r3, r3, #1
	add	r3, r3, r2
	ldrh	r3, [r3]
	sxth	r2, r3
	ldr	r3, [r7, #8]
	ldr	r3, [r3, #88]
	mov	r0, r2
	mov	r1, r3
	bl	FT_MulFix_arm(PLT)
	mov	r3, r0
	str	r3, [r5]
	ldr	r3, [r7, #48]
	adds	r3, r3, #1
	str	r3, [r7, #48]
.L384:
	ldr	r3, [r7, #8]
	ldr	r2, [r3, #240]
	ldr	r3, [r7, #48]
	cmp	r2, r3
	bhi	.L385
	ldrb	r3, [r7, #47]	@ zero_extendqisi2
	ldr	r0, [r7, #8]
	mov	r1, r3
	bl	tt_size_run_prep(PLT)
	str	r0, [r7, #28]
	ldr	r3, [r7, #28]
	cmp	r3, #0
	beq	.L383
	ldr	r3, [r7, #28]
	b	.L365
.L383:
	ldr	r3, [r7, #24]
	ldrb	r3, [r3, #336]	@ zero_extendqisi2
	and	r3, r3, #1
	cmp	r3, #0
	beq	.L386
	ldr	r3, [r7]
	orr	r3, r3, #2
	str	r3, [r7]
.L386:
	ldr	r3, [r7, #24]
	ldrb	r3, [r3, #336]	@ zero_extendqisi2
	and	r3, r3, #2
	cmp	r3, #0
	beq	.L387
	ldr	r2, [r7, #24]
	ldr	r3, .L394+4
	ldr	r3, [r4, r3]
	add	r1, r2, #284
	mov	r2, r3
	movs	r3, #68
	mov	r0, r1
	mov	r1, r2
	mov	r2, r3
	bl	memcpy(PLT)
.L387:
	ldr	r3, [r7, #24]
	ldrb	r3, [r3, #336]	@ zero_extendqisi2
	and	r3, r3, #4
	cmp	r3, #0
	beq	.L388
	ldr	r3, [r7, #24]
	movs	r2, #0
	strb	r2, [r3, #617]
.L388:
	ldr	r3, [r7]
	uxtb	r3, r3
	bic	r3, r3, #127
	uxtb	r2, r3
	ldr	r3, [r7, #24]
	strb	r2, [r3, #561]
	ldr	r3, [r7, #12]
	ldr	r2, [r7, #24]
	str	r2, [r3, #160]
	ldr	r3, [r7, #24]
	ldr	r2, [r3, #392]
	ldr	r3, [r7, #12]
	str	r2, [r3, #164]
.L361:
	ldr	r3, [r7, #40]
	ldr	r3, [r3, #128]
	ldr	r3, [r3, #48]
	cmp	r3, #0
	beq	.L389
	ldr	r3, [r7, #12]
	movs	r2, #0
	str	r2, [r3, #84]
	b	.L390
.L389:
	ldr	r3, [r7, #40]
	ldr	r4, [r3, #508]
	ldr	r0, [r7, #40]
	movw	r1, #31078
	movt	r1, 26476
	ldr	r2, [r7, #36]
	movs	r3, #0
	blx	r4
	str	r0, [r7, #28]
	ldr	r3, [r7, #28]
	uxtb	r3, r3
	cmp	r3, #142
	bne	.L391
	ldr	r3, [r7, #12]
	movs	r2, #0
	str	r2, [r3, #84]
	b	.L390
.L391:
	ldr	r3, [r7, #28]
	cmp	r3, #0
	beq	.L392
	ldr	r3, [r7, #28]
	b	.L365
.L392:
	ldr	r0, [r7, #36]
	bl	FT_Stream_Pos(PLT)
	mov	r2, r0
	ldr	r3, [r7, #12]
	str	r2, [r3, #84]
.L390:
	ldrb	r3, [r7, #72]	@ zero_extendqisi2
	cmp	r3, #0
	bne	.L393
	ldr	r3, [r7, #4]
	ldr	r3, [r3, #156]
	ldr	r3, [r3]
	str	r3, [r7, #20]
	ldr	r0, [r7, #20]
	bl	FT_GlyphLoader_Rewind(PLT)
	ldr	r3, [r7, #12]
	ldr	r2, [r7, #20]
	str	r2, [r3, #12]
.L393:
	ldr	r2, [r7]
	ldr	r3, [r7, #12]
	str	r2, [r3, #16]
	ldr	r3, [r7, #12]
	ldr	r2, [r7, #40]
	str	r2, [r3]
	ldr	r3, [r7, #12]
	ldr	r2, [r7, #8]
	str	r2, [r3, #4]
	ldr	r3, [r7, #12]
	ldr	r2, [r7, #4]
	str	r2, [r3, #8]
	ldr	r3, [r7, #12]
	ldr	r2, [r7, #36]
	str	r2, [r3, #24]
	ldr	r3, [r7, #12]
	movs	r2, #0
	str	r2, [r3, #208]
	ldr	r3, [r7, #12]
	movs	r2, #0
	str	r2, [r3, #212]
	movs	r3, #0
.L365:
	mov	r0, r3
	adds	r7, r7, #56
	mov	sp, r7
	@ sp needed
	pop	{r4, r5, r7, pc}
.L395:
	.align	2
.L394:
	.word	_GLOBAL_OFFSET_TABLE_-(.LPIC11+4)
	.word	tt_default_graphics_state(GOT)
	.size	tt_loader_init, .-tt_loader_init
	.section	.text.tt_loader_done,"ax",%progbits
	.align	2
	.thumb
	.thumb_func
	.type	tt_loader_done, %function
tt_loader_done:
	@ args = 0, pretend = 0, frame = 8
	@ frame_needed = 1, uses_anonymous_args = 0
	push	{r7, lr}
	sub	sp, sp, #8
	add	r7, sp, #0
	str	r0, [r7, #4]
	ldr	r3, [r7, #4]
	add	r2, r3, #208
	ldr	r3, [r7, #4]
	ldr	r3, [r3]
	ldr	r3, [r3, #100]
	mov	r0, r2
	movs	r1, #0
	mov	r2, r3
	movs	r3, #0
	bl	FT_List_Finalize(PLT)
	adds	r7, r7, #8
	mov	sp, r7
	@ sp needed
	pop	{r7, pc}
	.size	tt_loader_done, .-tt_loader_done
	.section	.text.TT_Load_Glyph,"ax",%progbits
	.align	2
	.thumb
	.thumb_func
	.type	TT_Load_Glyph, %function
TT_Load_Glyph:
	@ args = 0, pretend = 0, frame = 240
	@ frame_needed = 1, uses_anonymous_args = 0
	push	{r4, r5, r7, lr}
	sub	sp, sp, #248
	add	r7, sp, #8
	str	r0, [r7, #12]
	str	r1, [r7, #8]
	str	r2, [r7, #4]
	str	r3, [r7]
	ldr	r3, [r7, #12]
	ldr	r3, [r3, #112]
	cmp	r3, #-1
	beq	.L398
	ldr	r3, [r7]
	and	r3, r3, #8
	cmp	r3, #0
	bne	.L398
	ldr	r0, [r7, #12]
	ldr	r1, [r7, #8]
	ldr	r2, [r7, #4]
	ldr	r3, [r7]
	bl	load_sbit_image(PLT)
	str	r0, [r7, #236]
	ldr	r3, [r7, #236]
	cmp	r3, #0
	bne	.L398
	ldr	r3, [r7, #8]
	ldr	r3, [r3, #4]
	ldr	r3, [r3, #8]
	and	r3, r3, #1
	cmp	r3, #0
	beq	.L399
	add	r3, r7, #20
	movs	r2, #1
	str	r2, [sp]
	mov	r0, r3
	ldr	r1, [r7, #12]
	ldr	r2, [r7, #8]
	ldr	r3, [r7]
	bl	tt_loader_init(PLT)
	add	r3, r7, #20
	mov	r0, r3
	ldr	r1, [r7, #4]
	movs	r2, #0
	movs	r3, #1
	bl	load_truetype_glyph(PLT)
	add	r3, r7, #20
	mov	r0, r3
	bl	tt_loader_done(PLT)
	ldr	r2, [r7, #80]
	ldr	r3, [r7, #8]
	str	r2, [r3, #56]
	ldr	r2, [r7, #200]
	ldr	r3, [r7, #8]
	str	r2, [r3, #60]
	ldr	r3, [r7, #8]
	ldr	r3, [r3, #40]
	cmp	r3, #0
	bne	.L400
	ldr	r3, [r7, #8]
	ldr	r3, [r3, #56]
	cmp	r3, #0
	beq	.L400
	ldr	r3, [r7, #8]
	ldr	r2, [r3, #56]
	ldr	r3, [r7, #12]
	ldr	r3, [r3, #16]
	mov	r0, r2
	mov	r1, r3
	bl	FT_MulFix_arm(PLT)
	mov	r2, r0
	ldr	r3, [r7, #8]
	str	r2, [r3, #40]
.L400:
	ldr	r3, [r7, #8]
	ldr	r3, [r3, #52]
	cmp	r3, #0
	bne	.L399
	ldr	r3, [r7, #8]
	ldr	r3, [r3, #60]
	cmp	r3, #0
	beq	.L399
	ldr	r3, [r7, #8]
	ldr	r2, [r3, #60]
	ldr	r3, [r7, #12]
	ldr	r3, [r3, #20]
	mov	r0, r2
	mov	r1, r3
	bl	FT_MulFix_arm(PLT)
	mov	r2, r0
	ldr	r3, [r7, #8]
	str	r2, [r3, #52]
.L399:
	movs	r3, #0
	b	.L418
.L398:
	ldr	r3, [r7]
	and	r3, r3, #1
	cmp	r3, #0
	bne	.L402
	ldr	r3, [r7, #12]
	ldrb	r3, [r3, #108]	@ zero_extendqisi2
	cmp	r3, #0
	bne	.L402
	movs	r3, #36
	b	.L418
.L402:
	ldr	r3, [r7]
	and	r3, r3, #16384
	cmp	r3, #0
	beq	.L403
	movs	r3, #6
	b	.L418
.L403:
	add	r3, r7, #20
	movs	r2, #0
	str	r2, [sp]
	mov	r0, r3
	ldr	r1, [r7, #12]
	ldr	r2, [r7, #8]
	ldr	r3, [r7]
	bl	tt_loader_init(PLT)
	str	r0, [r7, #236]
	ldr	r3, [r7, #236]
	cmp	r3, #0
	beq	.L404
	ldr	r3, [r7, #236]
	b	.L418
.L404:
	ldr	r2, [r7, #8]
	movw	r3, #29804
	movt	r3, 28533
	str	r3, [r2, #72]
	ldr	r3, [r7, #8]
	movs	r2, #0
	str	r2, [r3, #128]
	ldr	r3, [r7, #8]
	movs	r2, #0
	str	r2, [r3, #124]
	add	r3, r7, #20
	mov	r0, r3
	ldr	r1, [r7, #4]
	movs	r2, #0
	movs	r3, #0
	bl	load_truetype_glyph(PLT)
	str	r0, [r7, #236]
	ldr	r3, [r7, #236]
	cmp	r3, #0
	bne	.L405
	ldr	r3, [r7, #8]
	ldr	r2, [r3, #72]
	movw	r3, #28016
	movt	r3, 25455
	cmp	r2, r3
	bne	.L406
	ldr	r3, [r7, #32]
	ldr	r2, [r3, #48]
	ldr	r3, [r7, #8]
	str	r2, [r3, #128]
	ldr	r3, [r7, #32]
	ldr	r2, [r3, #52]
	ldr	r3, [r7, #8]
	str	r2, [r3, #132]
	b	.L407
.L406:
	ldr	r3, [r7, #32]
	ldr	r2, [r7, #8]
	add	r4, r2, #108
	add	r5, r3, #20
	ldmia	r5!, {r0, r1, r2, r3}
	stmia	r4!, {r0, r1, r2, r3}
	ldr	r3, [r5]
	str	r3, [r4]
	ldr	r3, [r7, #8]
	ldr	r3, [r3, #124]
	bic	r2, r3, #512
	ldr	r3, [r7, #8]
	str	r2, [r3, #124]
	ldr	r3, [r7, #88]
	cmp	r3, #0
	beq	.L407
	ldr	r3, [r7, #8]
	add	r2, r3, #108
	ldr	r3, [r7, #88]
	negs	r3, r3
	mov	r0, r2
	mov	r1, r3
	movs	r2, #0
	bl	FT_Outline_Translate(PLT)
.L407:
	ldr	r3, [r7]
	and	r3, r3, #2
	cmp	r3, #0
	bne	.L408
	ldr	r3, [r7, #180]
	ldrb	r3, [r3, #337]	@ zero_extendqisi2
	cmp	r3, #0
	beq	.L409
	ldr	r3, [r7, #180]
	ldr	r3, [r3, #340]
	cmp	r3, #5
	bhi	.L410
	adr	r1, .L412
	ldr	r2, [r1, r3, lsl #2]
	add	r1, r1, r2
	bx	r1
	.p2align 2
.L412:
	.word	.L411+1-.L412
	.word	.L419+1-.L412
	.word	.L410+1-.L412
	.word	.L410+1-.L412
	.word	.L414+1-.L412
	.word	.L415+1-.L412
.L411:
	ldr	r3, [r7, #8]
	ldr	r3, [r3, #124]
	orr	r2, r3, #32
	ldr	r3, [r7, #8]
	str	r2, [r3, #124]
	b	.L416
.L414:
	ldr	r3, [r7, #8]
	ldr	r3, [r3, #124]
	orr	r2, r3, #48
	ldr	r3, [r7, #8]
	str	r2, [r3, #124]
	b	.L416
.L415:
	ldr	r3, [r7, #8]
	ldr	r3, [r3, #124]
	orr	r2, r3, #16
	ldr	r3, [r7, #8]
	str	r2, [r3, #124]
	b	.L416
.L410:
	ldr	r3, [r7, #8]
	ldr	r3, [r3, #124]
	orr	r2, r3, #8
	ldr	r3, [r7, #8]
	str	r2, [r3, #124]
	b	.L416
.L419:
	nop
.L416:
	b	.L408
.L409:
	ldr	r3, [r7, #8]
	ldr	r3, [r3, #124]
	orr	r2, r3, #8
	ldr	r3, [r7, #8]
	str	r2, [r3, #124]
.L408:
	add	r3, r7, #20
	mov	r0, r3
	ldr	r1, [r7, #4]
	bl	compute_glyph_metrics(PLT)
	str	r0, [r7, #236]
.L405:
	add	r3, r7, #20
	mov	r0, r3
	bl	tt_loader_done(PLT)
	ldr	r3, [r7]
	and	r3, r3, #1
	cmp	r3, #0
	bne	.L417
	ldr	r3, [r7, #12]
	ldrh	r3, [r3, #14]
	cmp	r3, #23
	bhi	.L417
	ldr	r3, [r7, #8]
	ldr	r3, [r3, #124]
	orr	r2, r3, #256
	ldr	r3, [r7, #8]
	str	r2, [r3, #124]
.L417:
	ldr	r3, [r7, #236]
.L418:
	mov	r0, r3
	adds	r7, r7, #240
	mov	sp, r7
	@ sp needed
	pop	{r4, r5, r7, pc}
	.size	TT_Load_Glyph, .-TT_Load_Glyph
	.section	.text.tt_glyphzone_done,"ax",%progbits
	.align	2
	.thumb
	.thumb_func
	.type	tt_glyphzone_done, %function
tt_glyphzone_done:
	@ args = 0, pretend = 0, frame = 16
	@ frame_needed = 1, uses_anonymous_args = 0
	push	{r7, lr}
	sub	sp, sp, #16
	add	r7, sp, #0
	str	r0, [r7, #4]
	ldr	r3, [r7, #4]
	ldr	r3, [r3]
	str	r3, [r7, #12]
	ldr	r3, [r7, #12]
	cmp	r3, #0
	beq	.L420
	ldr	r3, [r7, #4]
	ldr	r3, [r3, #28]
	ldr	r0, [r7, #12]
	mov	r1, r3
	bl	ft_mem_free(PLT)
	ldr	r3, [r7, #4]
	movs	r2, #0
	str	r2, [r3, #28]
	ldr	r3, [r7, #4]
	ldr	r3, [r3, #24]
	ldr	r0, [r7, #12]
	mov	r1, r3
	bl	ft_mem_free(PLT)
	ldr	r3, [r7, #4]
	movs	r2, #0
	str	r2, [r3, #24]
	ldr	r3, [r7, #4]
	ldr	r3, [r3, #16]
	ldr	r0, [r7, #12]
	mov	r1, r3
	bl	ft_mem_free(PLT)
	ldr	r3, [r7, #4]
	movs	r2, #0
	str	r2, [r3, #16]
	ldr	r3, [r7, #4]
	ldr	r3, [r3, #12]
	ldr	r0, [r7, #12]
	mov	r1, r3
	bl	ft_mem_free(PLT)
	ldr	r3, [r7, #4]
	movs	r2, #0
	str	r2, [r3, #12]
	ldr	r3, [r7, #4]
	ldr	r3, [r3, #20]
	ldr	r0, [r7, #12]
	mov	r1, r3
	bl	ft_mem_free(PLT)
	ldr	r3, [r7, #4]
	movs	r2, #0
	str	r2, [r3, #20]
	ldr	r3, [r7, #4]
	movs	r2, #0
	strh	r2, [r3, #8]	@ movhi
	ldr	r3, [r7, #4]
	ldrh	r2, [r3, #8]
	ldr	r3, [r7, #4]
	strh	r2, [r3, #4]	@ movhi
	ldr	r3, [r7, #4]
	movs	r2, #0
	strh	r2, [r3, #10]	@ movhi
	ldr	r3, [r7, #4]
	ldrh	r2, [r3, #10]
	ldr	r3, [r7, #4]
	strh	r2, [r3, #6]	@ movhi
	ldr	r3, [r7, #4]
	movs	r2, #0
	str	r2, [r3]
.L420:
	adds	r7, r7, #16
	mov	sp, r7
	@ sp needed
	pop	{r7, pc}
	.size	tt_glyphzone_done, .-tt_glyphzone_done
	.section	.text.tt_glyphzone_new,"ax",%progbits
	.align	2
	.thumb
	.thumb_func
	.type	tt_glyphzone_new, %function
tt_glyphzone_new:
	@ args = 0, pretend = 0, frame = 24
	@ frame_needed = 1, uses_anonymous_args = 0
	push	{r7, lr}
	sub	sp, sp, #32
	add	r7, sp, #8
	str	r0, [r7, #12]
	str	r3, [r7, #4]
	mov	r3, r1	@ movhi
	strh	r3, [r7, #10]	@ movhi
	mov	r3, r2	@ movhi
	strh	r3, [r7, #8]	@ movhi
	ldr	r0, [r7, #4]
	movs	r1, #0
	movs	r2, #36
	bl	memset(PLT)
	ldr	r3, [r7, #4]
	ldr	r2, [r7, #12]
	str	r2, [r3]
	ldrh	r3, [r7, #10]
	movs	r2, #0
	str	r2, [sp]
	add	r2, r7, #20
	str	r2, [sp, #4]
	ldr	r0, [r7, #12]
	movs	r1, #8
	movs	r2, #0
	bl	ft_mem_realloc(PLT)
	mov	r2, r0
	ldr	r3, [r7, #4]
	str	r2, [r3, #12]
	ldr	r3, [r7, #20]
	cmp	r3, #0
	bne	.L423
	ldrh	r3, [r7, #10]
	movs	r2, #0
	str	r2, [sp]
	add	r2, r7, #20
	str	r2, [sp, #4]
	ldr	r0, [r7, #12]
	movs	r1, #8
	movs	r2, #0
	bl	ft_mem_realloc(PLT)
	mov	r2, r0
	ldr	r3, [r7, #4]
	str	r2, [r3, #16]
	ldr	r3, [r7, #20]
	cmp	r3, #0
	bne	.L423
	ldrh	r3, [r7, #10]
	movs	r2, #0
	str	r2, [sp]
	add	r2, r7, #20
	str	r2, [sp, #4]
	ldr	r0, [r7, #12]
	movs	r1, #8
	movs	r2, #0
	bl	ft_mem_realloc(PLT)
	mov	r2, r0
	ldr	r3, [r7, #4]
	str	r2, [r3, #20]
	ldr	r3, [r7, #20]
	cmp	r3, #0
	bne	.L423
	ldrh	r3, [r7, #10]
	movs	r2, #0
	str	r2, [sp]
	add	r2, r7, #20
	str	r2, [sp, #4]
	ldr	r0, [r7, #12]
	movs	r1, #1
	movs	r2, #0
	bl	ft_mem_realloc(PLT)
	mov	r2, r0
	ldr	r3, [r7, #4]
	str	r2, [r3, #24]
	ldr	r3, [r7, #20]
	cmp	r3, #0
	bne	.L423
	ldrsh	r3, [r7, #8]
	movs	r2, #0
	str	r2, [sp]
	add	r2, r7, #20
	str	r2, [sp, #4]
	ldr	r0, [r7, #12]
	movs	r1, #2
	movs	r2, #0
	bl	ft_mem_realloc(PLT)
	mov	r2, r0
	ldr	r3, [r7, #4]
	str	r2, [r3, #28]
	ldr	r3, [r7, #20]
	cmp	r3, #0
	beq	.L424
.L423:
	ldr	r0, [r7, #4]
	bl	tt_glyphzone_done(PLT)
	b	.L425
.L424:
	ldr	r3, [r7, #4]
	ldrh	r2, [r7, #10]	@ movhi
	strh	r2, [r3, #4]	@ movhi
	ldr	r3, [r7, #4]
	ldrh	r2, [r7, #8]	@ movhi
	strh	r2, [r3, #6]	@ movhi
.L425:
	ldr	r3, [r7, #20]
	mov	r0, r3
	adds	r7, r7, #24
	mov	sp, r7
	@ sp needed
	pop	{r7, pc}
	.size	tt_glyphzone_new, .-tt_glyphzone_new
	.section	.text.tt_check_trickyness_family,"ax",%progbits
	.align	2
	.thumb
	.thumb_func
	.type	tt_check_trickyness_family, %function
tt_check_trickyness_family:
	@ args = 0, pretend = 0, frame = 16
	@ frame_needed = 1, uses_anonymous_args = 0
	push	{r7, lr}
	sub	sp, sp, #16
	add	r7, sp, #0
	str	r0, [r7, #4]
	movs	r3, #0
	str	r3, [r7, #12]
	b	.L428
.L431:
	ldr	r2, [r7, #12]
	mov	r3, r2
	lsls	r3, r3, #2
	add	r3, r3, r2
	lsls	r3, r3, #2
	ldr	r2, .L432
.LPIC12:
	add	r2, pc
	add	r3, r3, r2
	ldr	r0, [r7, #4]
	mov	r1, r3
	bl	strstr(PLT)
	mov	r3, r0
	cmp	r3, #0
	beq	.L429
	movs	r3, #1
	b	.L430
.L429:
	ldr	r3, [r7, #12]
	adds	r3, r3, #1
	str	r3, [r7, #12]
.L428:
	ldr	r3, [r7, #12]
	cmp	r3, #8
	ble	.L431
	movs	r3, #0
.L430:
	mov	r0, r3
	adds	r7, r7, #16
	mov	sp, r7
	@ sp needed
	pop	{r7, pc}
.L433:
	.align	2
.L432:
	.word	trick_names.8679-(.LPIC12+4)
	.size	tt_check_trickyness_family, .-tt_check_trickyness_family
	.section	.text.tt_synth_sfnt_checksum,"ax",%progbits
	.align	2
	.thumb
	.thumb_func
	.type	tt_synth_sfnt_checksum, %function
tt_synth_sfnt_checksum:
	@ args = 0, pretend = 0, frame = 24
	@ frame_needed = 1, uses_anonymous_args = 0
	push	{r7, lr}
	sub	sp, sp, #24
	add	r7, sp, #0
	str	r0, [r7, #4]
	str	r1, [r7]
	movs	r3, #0
	str	r3, [r7, #20]
	ldr	r0, [r7, #4]
	ldr	r1, [r7]
	bl	FT_Stream_EnterFrame(PLT)
	str	r0, [r7, #12]
	ldr	r3, [r7, #12]
	cmp	r3, #0
	beq	.L435
	movs	r3, #0
	b	.L436
.L435:
	b	.L437
.L438:
	ldr	r0, [r7, #4]
	bl	FT_Stream_GetULong(PLT)
	mov	r3, r0
	ldr	r2, [r7, #20]
	add	r3, r3, r2
	str	r3, [r7, #20]
	ldr	r3, [r7]
	subs	r3, r3, #4
	str	r3, [r7]
.L437:
	ldr	r3, [r7]
	cmp	r3, #3
	bhi	.L438
	movs	r3, #3
	str	r3, [r7, #16]
	b	.L439
.L440:
	ldr	r0, [r7, #4]
	bl	FT_Stream_GetChar(PLT)
	mov	r3, r0
	uxtb	r3, r3
	mov	r2, r3
	ldr	r3, [r7, #16]
	lsls	r3, r3, #3
	lsl	r3, r2, r3
	ldr	r2, [r7, #20]
	add	r3, r3, r2
	str	r3, [r7, #20]
	ldr	r3, [r7]
	subs	r3, r3, #1
	str	r3, [r7]
	ldr	r3, [r7, #16]
	subs	r3, r3, #1
	str	r3, [r7, #16]
.L439:
	ldr	r3, [r7]
	cmp	r3, #0
	bne	.L440
	ldr	r0, [r7, #4]
	bl	FT_Stream_ExitFrame(PLT)
	ldr	r3, [r7, #20]
.L436:
	mov	r0, r3
	adds	r7, r7, #24
	mov	sp, r7
	@ sp needed
	pop	{r7, pc}
	.size	tt_synth_sfnt_checksum, .-tt_synth_sfnt_checksum
	.section	.text.tt_get_sfnt_checksum,"ax",%progbits
	.align	2
	.thumb
	.thumb_func
	.type	tt_get_sfnt_checksum, %function
tt_get_sfnt_checksum:
	@ args = 0, pretend = 0, frame = 8
	@ frame_needed = 1, uses_anonymous_args = 0
	push	{r4, r7, lr}
	sub	sp, sp, #12
	add	r7, sp, #0
	str	r0, [r7, #4]
	mov	r3, r1
	strh	r3, [r7, #2]	@ movhi
	ldr	r3, [r7, #4]
	ldr	r3, [r3, #508]
	cmp	r3, #0
	bne	.L442
	movs	r3, #0
	b	.L443
.L442:
	ldr	r3, [r7, #4]
	ldr	r4, [r3, #508]
	ldr	r3, [r7, #4]
	ldr	r2, [r3, #156]
	ldrh	r3, [r7, #2]
	lsls	r3, r3, #4
	add	r3, r3, r2
	ldr	r2, [r3]
	ldr	r3, [r7, #4]
	ldr	r3, [r3, #104]
	ldr	r0, [r7, #4]
	mov	r1, r2
	mov	r2, r3
	movs	r3, #0
	blx	r4
	mov	r3, r0
	cmp	r3, #0
	beq	.L444
	movs	r3, #0
	b	.L443
.L444:
	ldr	r3, [r7, #4]
	ldr	r2, [r3, #104]
	ldr	r3, [r7, #4]
	ldr	r1, [r3, #156]
	ldrh	r3, [r7, #2]
	lsls	r3, r3, #4
	add	r3, r3, r1
	ldr	r3, [r3, #12]
	mov	r0, r2
	mov	r1, r3
	bl	tt_synth_sfnt_checksum(PLT)
	mov	r3, r0
.L443:
	mov	r0, r3
	adds	r7, r7, #12
	mov	sp, r7
	@ sp needed
	pop	{r4, r7, pc}
	.size	tt_get_sfnt_checksum, .-tt_get_sfnt_checksum
	.section	.text.tt_check_trickyness_sfnt_ids,"ax",%progbits
	.align	2
	.thumb
	.thumb_func
	.type	tt_check_trickyness_sfnt_ids, %function
tt_check_trickyness_sfnt_ids:
	@ args = 0, pretend = 0, frame = 96
	@ frame_needed = 1, uses_anonymous_args = 0
	push	{r7, lr}
	sub	sp, sp, #96
	add	r7, sp, #0
	str	r0, [r7, #4]
	add	r3, r7, #8
	mov	r0, r3
	movs	r1, #0
	movs	r2, #68
	bl	memset(PLT)
	movs	r3, #0
	strb	r3, [r7, #91]
	movs	r3, #0
	strb	r3, [r7, #90]
	movs	r3, #0
	strb	r3, [r7, #89]
	movs	r3, #0
	strh	r3, [r7, #86]	@ movhi
	b	.L446
.L459:
	movs	r3, #0
	str	r3, [r7, #92]
	ldr	r3, [r7, #4]
	ldr	r2, [r3, #156]
	ldrh	r3, [r7, #86]
	lsls	r3, r3, #4
	add	r3, r3, r2
	ldr	r2, [r3]
	movw	r3, #26477
	movt	r3, 26224
	cmp	r2, r3
	beq	.L448
	movw	r3, #25968
	movt	r3, 28786
	cmp	r2, r3
	beq	.L449
	movw	r3, #29728
	movt	r3, 25462
	cmp	r2, r3
	beq	.L450
	b	.L452
.L450:
	movs	r3, #0
	str	r3, [r7, #76]
	movs	r3, #1
	strb	r3, [r7, #91]
	b	.L451
.L448:
	movs	r3, #1
	str	r3, [r7, #76]
	movs	r3, #1
	strb	r3, [r7, #90]
	b	.L451
.L449:
	movs	r3, #2
	str	r3, [r7, #76]
	movs	r3, #1
	strb	r3, [r7, #89]
	nop
.L451:
	movs	r3, #0
	str	r3, [r7, #80]
	b	.L453
.L458:
	ldr	r3, [r7, #4]
	ldr	r2, [r3, #156]
	ldrh	r3, [r7, #86]
	lsls	r3, r3, #4
	add	r3, r3, r2
	ldr	r1, [r3, #12]
	ldr	r3, .L467
.LPIC13:
	add	r3, pc
	mov	r0, r3
	ldr	r2, [r7, #80]
	mov	r3, r2
	lsls	r3, r3, #1
	add	r3, r3, r2
	ldr	r2, [r7, #76]
	add	r3, r3, r2
	lsls	r3, r3, #3
	add	r3, r3, r0
	ldr	r3, [r3, #4]
	cmp	r1, r3
	bne	.L454
	ldr	r3, [r7, #92]
	cmp	r3, #0
	bne	.L455
	ldrh	r3, [r7, #86]
	ldr	r0, [r7, #4]
	mov	r1, r3
	bl	tt_get_sfnt_checksum(PLT)
	str	r0, [r7, #92]
.L455:
	ldr	r3, .L467+4
.LPIC14:
	add	r3, pc
	mov	r1, r3
	ldr	r2, [r7, #80]
	mov	r3, r2
	lsls	r3, r3, #1
	add	r3, r3, r2
	ldr	r2, [r7, #76]
	add	r3, r3, r2
	ldr	r2, [r1, r3, lsl #3]
	ldr	r3, [r7, #92]
	cmp	r2, r3
	bne	.L456
	ldr	r3, [r7, #80]
	lsls	r3, r3, #2
	add	r1, r7, #96
	add	r3, r3, r1
	ldr	r3, [r3, #-88]
	adds	r2, r3, #1
	ldr	r3, [r7, #80]
	lsls	r3, r3, #2
	add	r1, r7, #96
	add	r3, r3, r1
	str	r2, [r3, #-88]
.L456:
	ldr	r3, [r7, #80]
	lsls	r3, r3, #2
	add	r2, r7, #96
	add	r3, r3, r2
	ldr	r3, [r3, #-88]
	cmp	r3, #3
	bne	.L454
	movs	r3, #1
	b	.L466
.L454:
	ldr	r3, [r7, #80]
	adds	r3, r3, #1
	str	r3, [r7, #80]
.L453:
	ldr	r3, [r7, #80]
	cmp	r3, #16
	ble	.L458
.L452:
	ldrh	r3, [r7, #86]
	adds	r3, r3, #1
	strh	r3, [r7, #86]	@ movhi
.L446:
	ldr	r3, [r7, #4]
	ldrh	r3, [r3, #152]
	ldrh	r2, [r7, #86]
	cmp	r2, r3
	bcc	.L459
	movs	r3, #0
	str	r3, [r7, #80]
	b	.L460
.L465:
	ldrb	r3, [r7, #91]	@ zero_extendqisi2
	cmp	r3, #0
	bne	.L461
	ldr	r3, .L467+8
.LPIC15:
	add	r3, pc
	mov	r1, r3
	ldr	r2, [r7, #80]
	mov	r3, r2
	lsls	r3, r3, #1
	add	r3, r3, r2
	lsls	r3, r3, #3
	add	r3, r3, r1
	adds	r3, r3, #4
	ldr	r3, [r3]
	cmp	r3, #0
	bne	.L461
	ldr	r3, [r7, #80]
	lsls	r3, r3, #2
	add	r1, r7, #96
	add	r3, r3, r1
	ldr	r3, [r3, #-88]
	adds	r2, r3, #1
	ldr	r3, [r7, #80]
	lsls	r3, r3, #2
	add	r1, r7, #96
	add	r3, r3, r1
	str	r2, [r3, #-88]
.L461:
	ldrb	r3, [r7, #90]	@ zero_extendqisi2
	cmp	r3, #0
	bne	.L462
	ldr	r3, .L467+12
.LPIC16:
	add	r3, pc
	mov	r1, r3
	ldr	r2, [r7, #80]
	mov	r3, r2
	lsls	r3, r3, #1
	add	r3, r3, r2
	lsls	r3, r3, #3
	add	r3, r3, r1
	adds	r3, r3, #12
	ldr	r3, [r3]
	cmp	r3, #0
	bne	.L462
	ldr	r3, [r7, #80]
	lsls	r3, r3, #2
	add	r2, r7, #96
	add	r3, r3, r2
	ldr	r3, [r3, #-88]
	adds	r2, r3, #1
	ldr	r3, [r7, #80]
	lsls	r3, r3, #2
	add	r1, r7, #96
	add	r3, r3, r1
	str	r2, [r3, #-88]
.L462:
	ldrb	r3, [r7, #89]	@ zero_extendqisi2
	cmp	r3, #0
	bne	.L463
	ldr	r3, .L467+16
.LPIC17:
	add	r3, pc
	mov	r1, r3
	ldr	r2, [r7, #80]
	mov	r3, r2
	lsls	r3, r3, #1
	add	r3, r3, r2
	lsls	r3, r3, #3
	add	r3, r3, r1
	adds	r3, r3, #20
	ldr	r3, [r3]
	cmp	r3, #0
	bne	.L463
	ldr	r3, [r7, #80]
	lsls	r3, r3, #2
	add	r2, r7, #96
	add	r3, r3, r2
	ldr	r3, [r3, #-88]
	adds	r2, r3, #1
	ldr	r3, [r7, #80]
	lsls	r3, r3, #2
	add	r1, r7, #96
	add	r3, r3, r1
	str	r2, [r3, #-88]
.L463:
	ldr	r3, [r7, #80]
	lsls	r3, r3, #2
	add	r2, r7, #96
	add	r3, r3, r2
	ldr	r3, [r3, #-88]
	cmp	r3, #3
	bne	.L464
	movs	r3, #1
	b	.L466
.L464:
	ldr	r3, [r7, #80]
	adds	r3, r3, #1
	str	r3, [r7, #80]
.L460:
	ldr	r3, [r7, #80]
	cmp	r3, #16
	ble	.L465
	movs	r3, #0
.L466:
	mov	r0, r3
	adds	r7, r7, #96
	mov	sp, r7
	@ sp needed
	pop	{r7, pc}
.L468:
	.align	2
.L467:
	.word	sfnt_id.8708-(.LPIC13+4)
	.word	sfnt_id.8708-(.LPIC14+4)
	.word	sfnt_id.8708-(.LPIC15+4)
	.word	sfnt_id.8708-(.LPIC16+4)
	.word	sfnt_id.8708-(.LPIC17+4)
	.size	tt_check_trickyness_sfnt_ids, .-tt_check_trickyness_sfnt_ids
	.section	.text.tt_check_trickyness,"ax",%progbits
	.align	2
	.thumb
	.thumb_func
	.type	tt_check_trickyness, %function
tt_check_trickyness:
	@ args = 0, pretend = 0, frame = 8
	@ frame_needed = 1, uses_anonymous_args = 0
	push	{r7, lr}
	sub	sp, sp, #8
	add	r7, sp, #0
	str	r0, [r7, #4]
	ldr	r3, [r7, #4]
	cmp	r3, #0
	bne	.L470
	movs	r3, #0
	b	.L471
.L470:
	ldr	r3, [r7, #4]
	ldr	r3, [r3, #20]
	cmp	r3, #0
	beq	.L472
	ldr	r3, [r7, #4]
	ldr	r3, [r3, #20]
	mov	r0, r3
	bl	tt_check_trickyness_family(PLT)
	mov	r3, r0
	cmp	r3, #0
	beq	.L472
	movs	r3, #1
	b	.L471
.L472:
	ldr	r0, [r7, #4]
	bl	tt_check_trickyness_sfnt_ids(PLT)
	mov	r3, r0
	cmp	r3, #0
	beq	.L473
	movs	r3, #1
	b	.L471
.L473:
	movs	r3, #0
.L471:
	mov	r0, r3
	adds	r7, r7, #8
	mov	sp, r7
	@ sp needed
	pop	{r7, pc}
	.size	tt_check_trickyness, .-tt_check_trickyness
	.section	.rodata
	.align	2
.LC13:
	.ascii	".notdef\000"
	.section	.text.tt_check_single_notdef,"ax",%progbits
	.align	2
	.thumb
	.thumb_func
	.type	tt_check_single_notdef, %function
tt_check_single_notdef:
	@ args = 0, pretend = 0, frame = 48
	@ frame_needed = 1, uses_anonymous_args = 0
	push	{r7, lr}
	sub	sp, sp, #48
	add	r7, sp, #0
	str	r0, [r7, #4]
	movs	r3, #0
	strb	r3, [r7, #47]
	ldr	r3, [r7, #4]
	str	r3, [r7, #28]
	movs	r3, #0
	str	r3, [r7, #36]
	movs	r3, #0
	str	r3, [r7, #32]
	movs	r3, #0
	str	r3, [r7, #40]
	b	.L475
.L479:
	add	r3, r7, #20
	ldr	r0, [r7, #28]
	ldr	r1, [r7, #40]
	mov	r2, r3
	bl	tt_face_get_location(PLT)
	ldr	r3, [r7, #20]
	cmp	r3, #0
	beq	.L476
	ldr	r3, [r7, #32]
	adds	r3, r3, #1
	str	r3, [r7, #32]
	ldr	r3, [r7, #32]
	cmp	r3, #1
	bls	.L477
	b	.L478
.L477:
	ldr	r3, [r7, #40]
	str	r3, [r7, #36]
.L476:
	ldr	r3, [r7, #40]
	adds	r3, r3, #1
	str	r3, [r7, #40]
.L475:
	ldr	r3, [r7, #28]
	ldr	r2, [r3, #696]
	ldr	r3, [r7, #40]
	cmp	r2, r3
	bhi	.L479
.L478:
	ldr	r3, [r7, #32]
	cmp	r3, #1
	bne	.L480
	ldr	r3, [r7, #36]
	cmp	r3, #0
	bne	.L481
	movs	r3, #1
	strb	r3, [r7, #47]
	b	.L480
.L481:
	add	r3, r7, #12
	ldr	r0, [r7, #4]
	ldr	r1, [r7, #36]
	mov	r2, r3
	movs	r3, #8
	bl	FT_Get_Glyph_Name(PLT)
	str	r0, [r7, #24]
	ldr	r3, [r7, #24]
	cmp	r3, #0
	bne	.L480
	ldrb	r3, [r7, #12]	@ zero_extendqisi2
	cmp	r3, #46
	bne	.L480
	add	r3, r7, #12
	mov	r0, r3
	ldr	r3, .L484
.LPIC18:
	add	r3, pc
	mov	r1, r3
	movs	r2, #8
	bl	strncmp(PLT)
	mov	r3, r0
	cmp	r3, #0
	bne	.L480
	movs	r3, #1
	strb	r3, [r7, #47]
.L480:
	ldrb	r3, [r7, #47]	@ zero_extendqisi2
	mov	r0, r3
	adds	r7, r7, #48
	mov	sp, r7
	@ sp needed
	pop	{r7, pc}
.L485:
	.align	2
.L484:
	.word	.LC13-(.LPIC18+4)
	.size	tt_check_single_notdef, .-tt_check_single_notdef
	.section	.text.tt_face_init,"ax",%progbits
	.align	2
	.thumb
	.thumb_func
	.type	tt_face_init, %function
tt_face_init:
	@ args = 4, pretend = 0, frame = 48
	@ frame_needed = 1, uses_anonymous_args = 0
	push	{r4, r7, lr}
	sub	sp, sp, #60
	add	r7, sp, #8
	str	r0, [r7, #12]
	str	r1, [r7, #8]
	str	r2, [r7, #4]
	str	r3, [r7]
	ldr	r3, [r7, #8]
	str	r3, [r7, #40]
	ldr	r3, [r7, #8]
	ldr	r3, [r3, #96]
	ldr	r3, [r3, #4]
	str	r3, [r7, #36]
	ldr	r0, [r7, #36]
	ldr	r3, .L509
.LPIC19:
	add	r3, pc
	mov	r1, r3
	bl	FT_Get_Module_Interface(PLT)
	str	r0, [r7, #32]
	ldr	r3, [r7, #32]
	cmp	r3, #0
	bne	.L487
	movs	r3, #11
	str	r3, [r7, #44]
	b	.L488
.L487:
	ldr	r0, [r7, #12]
	movs	r1, #0
	bl	FT_Stream_Seek(PLT)
	str	r0, [r7, #44]
	ldr	r3, [r7, #44]
	cmp	r3, #0
	beq	.L489
	b	.L488
.L489:
	ldr	r3, [r7, #32]
	ldr	r4, [r3, #4]
	ldr	r3, [r7, #64]
	str	r3, [sp]
	ldr	r0, [r7, #12]
	ldr	r1, [r7, #40]
	ldr	r2, [r7, #4]
	ldr	r3, [r7]
	blx	r4
	str	r0, [r7, #44]
	ldr	r3, [r7, #40]
	ldr	r3, [r3, #104]
	str	r3, [r7, #12]
	ldr	r3, [r7, #44]
	cmp	r3, #0
	beq	.L490
	b	.L488
.L490:
	ldr	r3, [r7, #40]
	ldr	r3, [r3, #148]
	cmp	r3, #65536
	beq	.L491
	ldr	r3, [r7, #40]
	ldr	r3, [r3, #148]
	cmp	r3, #131072
	beq	.L491
	ldr	r3, [r7, #40]
	ldr	r2, [r3, #148]
	movw	r3, #30053
	movt	r3, 29810
	cmp	r2, r3
	beq	.L491
	nop
.L492:
	movs	r3, #2
	str	r3, [r7, #44]
	b	.L488
.L491:
	ldr	r3, [r7, #8]
	ldr	r3, [r3, #8]
	orr	r2, r3, #2048
	ldr	r3, [r7, #8]
	str	r2, [r3, #8]
	ldr	r3, [r7, #4]
	cmp	r3, #0
	bge	.L493
	movs	r3, #0
	b	.L494
.L493:
	ldr	r3, [r7, #32]
	ldr	r4, [r3, #8]
	ldr	r3, [r7, #64]
	str	r3, [sp]
	ldr	r0, [r7, #12]
	ldr	r1, [r7, #40]
	ldr	r2, [r7, #4]
	ldr	r3, [r7]
	blx	r4
	str	r0, [r7, #44]
	ldr	r3, [r7, #44]
	cmp	r3, #0
	beq	.L495
	b	.L488
.L495:
	ldr	r0, [r7, #8]
	bl	tt_check_trickyness(PLT)
	mov	r3, r0
	cmp	r3, #0
	beq	.L496
	ldr	r3, [r7, #8]
	ldr	r3, [r3, #8]
	orr	r2, r3, #8192
	ldr	r3, [r7, #8]
	str	r2, [r3, #8]
.L496:
	ldr	r0, [r7, #40]
	ldr	r1, [r7, #12]
	bl	tt_face_load_hdmx(PLT)
	str	r0, [r7, #44]
	ldr	r3, [r7, #44]
	cmp	r3, #0
	beq	.L497
	b	.L488
.L497:
	ldr	r3, [r7, #8]
	ldr	r3, [r3, #8]
	and	r3, r3, #1
	cmp	r3, #0
	beq	.L498
	ldr	r3, [r7, #8]
	ldr	r3, [r3, #128]
	ldr	r3, [r3, #48]
	cmp	r3, #0
	bne	.L499
	ldr	r0, [r7, #40]
	ldr	r1, [r7, #12]
	bl	tt_face_load_loca(PLT)
	str	r0, [r7, #44]
.L499:
	ldr	r3, [r7, #44]
	cmp	r3, #0
	bne	.L500
	ldr	r0, [r7, #40]
	ldr	r1, [r7, #12]
	bl	tt_face_load_cvt(PLT)
	str	r0, [r7, #44]
.L500:
	ldr	r3, [r7, #44]
	cmp	r3, #0
	bne	.L501
	ldr	r0, [r7, #40]
	ldr	r1, [r7, #12]
	bl	tt_face_load_fpgm(PLT)
	str	r0, [r7, #44]
.L501:
	ldr	r3, [r7, #44]
	cmp	r3, #0
	bne	.L502
	ldr	r0, [r7, #40]
	ldr	r1, [r7, #12]
	bl	tt_face_load_prep(PLT)
	str	r0, [r7, #44]
.L502:
	ldr	r3, [r7, #8]
	ldr	r3, [r3, #128]
	ldr	r3, [r3, #48]
	cmp	r3, #0
	bne	.L498
	ldr	r3, [r7, #8]
	ldr	r3, [r3, #28]
	cmp	r3, #0
	beq	.L498
	ldr	r3, [r7, #40]
	ldr	r3, [r3, #700]
	cmp	r3, #0
	beq	.L498
	ldr	r0, [r7, #8]
	bl	tt_check_single_notdef(PLT)
	mov	r3, r0
	cmp	r3, #0
	beq	.L498
	ldr	r3, [r7, #8]
	ldr	r3, [r3, #8]
	bic	r2, r3, #1
	ldr	r3, [r7, #8]
	str	r2, [r3, #8]
.L498:
	ldr	r3, [r7, #4]
	asrs	r3, r3, #16
	str	r3, [r7, #28]
	ldr	r3, [r7, #8]
	ldr	r3, [r3, #8]
	and	r3, r3, #256
	cmp	r3, #0
	beq	.L503
	ldr	r3, [r7, #28]
	cmp	r3, #0
	ble	.L503
	ldr	r0, [r7, #40]
	movs	r1, #0
	bl	TT_Get_MM_Var(PLT)
	str	r0, [r7, #44]
	ldr	r3, [r7, #44]
	cmp	r3, #0
	beq	.L504
	b	.L488
.L504:
	ldr	r3, [r7, #40]
	ldr	r3, [r3, #676]
	ldr	r3, [r3, #8]
	ldr	r3, [r3, #16]
	cmp	r3, #0
	beq	.L503
	ldr	r3, [r7, #8]
	ldr	r3, [r3, #100]
	str	r3, [r7, #24]
	ldr	r3, [r7, #40]
	ldr	r3, [r3, #676]
	ldr	r3, [r3, #8]
	ldr	r2, [r3, #16]
	ldr	r3, [r7, #28]
	add	r3, r3, #536870912
	subs	r3, r3, #1
	lsls	r3, r3, #3
	add	r3, r3, r2
	str	r3, [r7, #20]
	ldr	r3, [r7, #32]
	ldr	r3, [r3, #116]
	ldr	r2, [r7, #20]
	ldr	r2, [r2, #4]
	uxth	r1, r2
	add	r2, r7, #16
	ldr	r0, [r7, #40]
	blx	r3
	str	r0, [r7, #44]
	ldr	r3, [r7, #44]
	cmp	r3, #0
	beq	.L505
	b	.L488
.L505:
	ldr	r3, [r7, #40]
	ldr	r3, [r3, #24]
	cmp	r3, #0
	beq	.L507
	ldr	r3, [r7, #40]
	ldr	r3, [r3, #24]
	ldr	r0, [r7, #24]
	mov	r1, r3
	bl	ft_mem_free(PLT)
	ldr	r3, [r7, #40]
	movs	r2, #0
	str	r2, [r3, #24]
.L507:
	ldr	r2, [r7, #16]
	ldr	r3, [r7, #40]
	str	r2, [r3, #24]
	ldr	r3, [r7, #40]
	ldr	r3, [r3, #676]
	ldr	r3, [r3, #8]
	ldr	r2, [r3]
	ldr	r3, [r7, #20]
	ldr	r3, [r3]
	ldr	r0, [r7, #40]
	mov	r1, r2
	mov	r2, r3
	bl	TT_Set_Var_Design(PLT)
	str	r0, [r7, #44]
	ldr	r3, [r7, #44]
	cmp	r3, #0
	beq	.L503
	nop
	b	.L488
.L503:
	ldr	r0, [r7, #40]
	bl	TT_Init_Glyph_Loading(PLT)
.L488:
	ldr	r3, [r7, #44]
.L494:
	mov	r0, r3
	adds	r7, r7, #52
	mov	sp, r7
	@ sp needed
	pop	{r4, r7, pc}
.L510:
	.align	2
.L509:
	.word	.LC11-(.LPIC19+4)
	.size	tt_face_init, .-tt_face_init
	.section	.text.tt_face_done,"ax",%progbits
	.align	2
	.thumb
	.thumb_func
	.type	tt_face_done, %function
tt_face_done:
	@ args = 0, pretend = 0, frame = 24
	@ frame_needed = 1, uses_anonymous_args = 0
	push	{r7, lr}
	sub	sp, sp, #24
	add	r7, sp, #0
	str	r0, [r7, #4]
	ldr	r3, [r7, #4]
	str	r3, [r7, #20]
	ldr	r3, [r7, #20]
	cmp	r3, #0
	bne	.L512
	b	.L511
.L512:
	ldr	r3, [r7, #4]
	ldr	r3, [r3, #100]
	str	r3, [r7, #16]
	ldr	r3, [r7, #4]
	ldr	r3, [r3, #104]
	str	r3, [r7, #12]
	ldr	r3, [r7, #20]
	ldr	r3, [r3, #532]
	str	r3, [r7, #8]
	ldr	r3, [r7, #20]
	ldr	r3, [r3, #660]
	cmp	r3, #0
	beq	.L514
	ldr	r3, [r7, #20]
	ldr	r3, [r3, #660]
	ldr	r2, [r7, #20]
	ldr	r2, [r2, #656]
	mov	r0, r2
	blx	r3
.L514:
	ldr	r3, [r7, #8]
	cmp	r3, #0
	beq	.L515
	ldr	r3, [r7, #8]
	ldr	r3, [r3, #12]
	ldr	r0, [r7, #20]
	blx	r3
.L515:
	ldr	r0, [r7, #20]
	bl	tt_face_done_loca(PLT)
	ldr	r0, [r7, #20]
	bl	tt_face_free_hdmx(PLT)
	ldr	r3, [r7, #20]
	ldr	r3, [r3, #648]
	ldr	r0, [r7, #16]
	mov	r1, r3
	bl	ft_mem_free(PLT)
	ldr	r3, [r7, #20]
	movs	r2, #0
	str	r2, [r3, #648]
	ldr	r3, [r7, #20]
	movs	r2, #0
	str	r2, [r3, #644]
	ldr	r3, [r7, #20]
	add	r3, r3, #632
	ldr	r0, [r7, #12]
	mov	r1, r3
	bl	FT_Stream_ReleaseFrame(PLT)
	ldr	r3, [r7, #20]
	add	r3, r3, #640
	ldr	r0, [r7, #12]
	mov	r1, r3
	bl	FT_Stream_ReleaseFrame(PLT)
	ldr	r3, [r7, #20]
	movs	r2, #0
	str	r2, [r3, #628]
	ldr	r3, [r7, #20]
	movs	r2, #0
	str	r2, [r3, #636]
	ldr	r3, [r7, #20]
	ldr	r3, [r3, #676]
	ldr	r0, [r7, #16]
	mov	r1, r3
	bl	tt_done_blend(PLT)
	ldr	r3, [r7, #20]
	movs	r2, #0
	str	r2, [r3, #676]
.L511:
	adds	r7, r7, #24
	mov	sp, r7
	@ sp needed
	pop	{r7, pc}
	.size	tt_face_done, .-tt_face_done
	.section	.text.tt_size_run_fpgm,"ax",%progbits
	.align	2
	.thumb
	.thumb_func
	.type	tt_size_run_fpgm, %function
tt_size_run_fpgm:
	@ args = 0, pretend = 0, frame = 32
	@ frame_needed = 1, uses_anonymous_args = 0
	push	{r7, lr}
	sub	sp, sp, #32
	add	r7, sp, #0
	str	r0, [r7, #4]
	mov	r3, r1
	strb	r3, [r7, #3]
	ldr	r3, [r7, #4]
	ldr	r3, [r3]
	str	r3, [r7, #24]
	ldr	r3, [r7, #4]
	ldr	r3, [r3, #292]
	str	r3, [r7, #20]
	ldr	r0, [r7, #20]
	ldr	r1, [r7, #24]
	ldr	r2, [r7, #4]
	bl	TT_Load_Context(PLT)
	str	r0, [r7, #28]
	ldr	r3, [r7, #28]
	cmp	r3, #0
	beq	.L517
	ldr	r3, [r7, #28]
	b	.L518
.L517:
	ldr	r3, [r7, #20]
	movs	r2, #0
	str	r2, [r3, #428]
	ldr	r3, [r7, #20]
	movs	r2, #0
	str	r2, [r3, #16]
	ldr	r3, [r7, #20]
	movs	r2, #64
	str	r2, [r3, #476]
	ldr	r3, [r7, #20]
	movs	r2, #0
	str	r2, [r3, #480]
	ldr	r3, [r7, #20]
	movs	r2, #0
	str	r2, [r3, #484]
	ldr	r3, [r7, #20]
	movs	r2, #0
	strb	r2, [r3, #488]
	ldr	r3, [r7, #20]
	mov	r2, #16384
	str	r2, [r3, #564]
	ldr	r3, [r7, #20]
	ldrb	r2, [r7, #3]
	strb	r2, [r3, #561]
	ldr	r3, [r7, #20]
	adds	r3, r3, #216
	str	r3, [r7, #16]
	ldr	r3, [r7, #20]
	adds	r3, r3, #244
	str	r3, [r7, #12]
	ldr	r3, [r7, #16]
	movs	r2, #0
	strh	r2, [r3]	@ movhi
	ldr	r3, [r7, #16]
	movs	r2, #0
	strh	r2, [r3, #2]	@ movhi
	ldr	r3, [r7, #16]
	movs	r2, #0
	str	r2, [r3, #4]
	ldr	r3, [r7, #16]
	movs	r2, #0
	str	r2, [r3, #8]
	ldr	r3, [r7, #12]
	movs	r2, #0
	strh	r2, [r3, #8]	@ movhi
	ldr	r3, [r7, #12]
	movs	r2, #0
	str	r2, [r3, #16]
	ldr	r3, [r7, #12]
	mov	r2, #65536
	str	r2, [r3, #12]
	ldr	r3, [r7, #24]
	ldr	r2, [r3, #632]
	ldr	r3, [r7, #24]
	ldr	r3, [r3, #628]
	ldr	r0, [r7, #20]
	movs	r1, #1
	bl	TT_Set_CodeRange(PLT)
	ldr	r0, [r7, #20]
	movs	r1, #2
	bl	TT_Clear_CodeRange(PLT)
	ldr	r0, [r7, #20]
	movs	r1, #3
	bl	TT_Clear_CodeRange(PLT)
	ldr	r3, [r7, #24]
	ldr	r3, [r3, #628]
	cmp	r3, #0
	beq	.L519
	ldr	r0, [r7, #20]
	movs	r1, #1
	movs	r2, #0
	bl	TT_Goto_CodeRange(PLT)
	ldr	r3, [r7, #24]
	ldr	r3, [r3, #652]
	ldr	r0, [r7, #20]
	blx	r3
	str	r0, [r7, #28]
	b	.L520
.L519:
	movs	r3, #0
	str	r3, [r7, #28]
.L520:
	ldr	r3, [r7, #4]
	ldr	r2, [r7, #28]
	str	r2, [r3, #296]
	ldr	r3, [r7, #28]
	cmp	r3, #0
	bne	.L521
	ldr	r0, [r7, #20]
	ldr	r1, [r7, #4]
	bl	TT_Save_Context(PLT)
.L521:
	ldr	r3, [r7, #28]
.L518:
	mov	r0, r3
	adds	r7, r7, #32
	mov	sp, r7
	@ sp needed
	pop	{r7, pc}
	.size	tt_size_run_fpgm, .-tt_size_run_fpgm
	.section	.text.tt_size_run_prep,"ax",%progbits
	.align	2
	.thumb
	.thumb_func
	.type	tt_size_run_prep, %function
tt_size_run_prep:
	@ args = 0, pretend = 0, frame = 24
	@ frame_needed = 1, uses_anonymous_args = 0
	push	{r7, lr}
	sub	sp, sp, #24
	add	r7, sp, #0
	str	r0, [r7, #4]
	mov	r3, r1
	strb	r3, [r7, #3]
	ldr	r3, [r7, #4]
	ldr	r3, [r3]
	str	r3, [r7, #16]
	ldr	r3, [r7, #4]
	ldr	r3, [r3, #292]
	str	r3, [r7, #12]
	ldr	r0, [r7, #12]
	ldr	r1, [r7, #16]
	ldr	r2, [r7, #4]
	bl	TT_Load_Context(PLT)
	str	r0, [r7, #20]
	ldr	r3, [r7, #20]
	cmp	r3, #0
	beq	.L523
	ldr	r3, [r7, #20]
	b	.L524
.L523:
	ldr	r3, [r7, #12]
	movs	r2, #0
	str	r2, [r3, #428]
	ldr	r3, [r7, #12]
	movs	r2, #0
	str	r2, [r3, #16]
	ldr	r3, [r7, #12]
	movs	r2, #0
	strb	r2, [r3, #488]
	ldr	r3, [r7, #12]
	ldrb	r2, [r7, #3]
	strb	r2, [r3, #561]
	ldr	r3, [r7, #16]
	ldr	r2, [r3, #640]
	ldr	r3, [r7, #16]
	ldr	r3, [r3, #636]
	ldr	r0, [r7, #12]
	movs	r1, #2
	bl	TT_Set_CodeRange(PLT)
	ldr	r0, [r7, #12]
	movs	r1, #3
	bl	TT_Clear_CodeRange(PLT)
	ldr	r3, [r7, #16]
	ldr	r3, [r3, #636]
	cmp	r3, #0
	beq	.L525
	ldr	r0, [r7, #12]
	movs	r1, #2
	movs	r2, #0
	bl	TT_Goto_CodeRange(PLT)
	ldr	r3, [r7, #16]
	ldr	r3, [r3, #652]
	ldr	r0, [r7, #12]
	blx	r3
	str	r0, [r7, #20]
	b	.L526
.L525:
	movs	r3, #0
	str	r3, [r7, #20]
.L526:
	ldr	r3, [r7, #4]
	ldr	r2, [r7, #20]
	str	r2, [r3, #300]
	ldr	r3, [r7, #12]
	mov	r2, #16384
	strh	r2, [r3, #290]	@ movhi
	ldr	r3, [r7, #12]
	movs	r2, #0
	strh	r2, [r3, #292]	@ movhi
	ldr	r3, [r7, #12]
	mov	r2, #16384
	strh	r2, [r3, #294]	@ movhi
	ldr	r3, [r7, #12]
	movs	r2, #0
	strh	r2, [r3, #296]	@ movhi
	ldr	r3, [r7, #12]
	mov	r2, #16384
	strh	r2, [r3, #298]	@ movhi
	ldr	r3, [r7, #12]
	movs	r2, #0
	strh	r2, [r3, #300]	@ movhi
	ldr	r3, [r7, #12]
	movs	r2, #0
	strh	r2, [r3, #284]	@ movhi
	ldr	r3, [r7, #12]
	movs	r2, #0
	strh	r2, [r3, #286]	@ movhi
	ldr	r3, [r7, #12]
	movs	r2, #0
	strh	r2, [r3, #288]	@ movhi
	ldr	r3, [r7, #12]
	movs	r2, #1
	strh	r2, [r3, #344]	@ movhi
	ldr	r3, [r7, #12]
	movs	r2, #1
	strh	r2, [r3, #346]	@ movhi
	ldr	r3, [r7, #12]
	movs	r2, #1
	strh	r2, [r3, #348]	@ movhi
	ldr	r3, [r7, #12]
	movs	r2, #1
	str	r2, [r3, #304]
	ldr	r2, [r7, #4]
	ldr	r3, [r7, #12]
	add	r1, r2, #172
	add	r2, r3, #284
	movs	r3, #68
	mov	r0, r1
	mov	r1, r2
	mov	r2, r3
	bl	memcpy(PLT)
	ldr	r0, [r7, #12]
	ldr	r1, [r7, #4]
	bl	TT_Save_Context(PLT)
	ldr	r3, [r7, #20]
.L524:
	mov	r0, r3
	adds	r7, r7, #24
	mov	sp, r7
	@ sp needed
	pop	{r7, pc}
	.size	tt_size_run_prep, .-tt_size_run_prep
	.section	.text.tt_size_done_bytecode,"ax",%progbits
	.align	2
	.thumb
	.thumb_func
	.type	tt_size_done_bytecode, %function
tt_size_done_bytecode:
	@ args = 0, pretend = 0, frame = 24
	@ frame_needed = 1, uses_anonymous_args = 0
	push	{r7, lr}
	sub	sp, sp, #24
	add	r7, sp, #0
	str	r0, [r7, #4]
	ldr	r3, [r7, #4]
	str	r3, [r7, #20]
	ldr	r3, [r7, #4]
	ldr	r3, [r3]
	str	r3, [r7, #16]
	ldr	r3, [r7, #16]
	ldr	r3, [r3, #100]
	str	r3, [r7, #12]
	ldr	r3, [r7, #20]
	ldr	r3, [r3, #292]
	cmp	r3, #0
	beq	.L528
	ldr	r3, [r7, #20]
	ldr	r3, [r3, #292]
	mov	r0, r3
	bl	TT_Done_Context(PLT)
	ldr	r3, [r7, #20]
	movs	r2, #0
	str	r2, [r3, #292]
.L528:
	ldr	r3, [r7, #20]
	ldr	r3, [r3, #244]
	ldr	r0, [r7, #12]
	mov	r1, r3
	bl	ft_mem_free(PLT)
	ldr	r3, [r7, #20]
	movs	r2, #0
	str	r2, [r3, #244]
	ldr	r3, [r7, #20]
	movs	r2, #0
	str	r2, [r3, #240]
	ldr	r3, [r7, #20]
	ldr	r3, [r3, #252]
	ldr	r0, [r7, #12]
	mov	r1, r3
	bl	ft_mem_free(PLT)
	ldr	r3, [r7, #20]
	movs	r2, #0
	str	r2, [r3, #252]
	ldr	r3, [r7, #20]
	movs	r2, #0
	strh	r2, [r3, #248]	@ movhi
	ldr	r3, [r7, #20]
	add	r3, r3, #256
	mov	r0, r3
	bl	tt_glyphzone_done(PLT)
	ldr	r3, [r7, #20]
	ldr	r3, [r3, #124]
	ldr	r0, [r7, #12]
	mov	r1, r3
	bl	ft_mem_free(PLT)
	ldr	r3, [r7, #20]
	movs	r2, #0
	str	r2, [r3, #124]
	ldr	r3, [r7, #20]
	ldr	r3, [r3, #136]
	ldr	r0, [r7, #12]
	mov	r1, r3
	bl	ft_mem_free(PLT)
	ldr	r3, [r7, #20]
	movs	r2, #0
	str	r2, [r3, #136]
	ldr	r3, [r7, #20]
	movs	r2, #0
	str	r2, [r3, #116]
	ldr	r3, [r7, #20]
	movs	r2, #0
	str	r2, [r3, #120]
	ldr	r3, [r7, #20]
	movs	r2, #0
	str	r2, [r3, #128]
	ldr	r3, [r7, #20]
	movs	r2, #0
	str	r2, [r3, #132]
	ldr	r3, [r7, #20]
	movs	r2, #0
	str	r2, [r3, #140]
	ldr	r3, [r7, #20]
	movs	r2, #0
	str	r2, [r3, #144]
	ldr	r3, [r7, #20]
	mov	r2, #-1
	str	r2, [r3, #296]
	ldr	r3, [r7, #20]
	mov	r2, #-1
	str	r2, [r3, #300]
	adds	r7, r7, #24
	mov	sp, r7
	@ sp needed
	pop	{r7, pc}
	.size	tt_size_done_bytecode, .-tt_size_done_bytecode
	.section	.text.tt_size_init_bytecode,"ax",%progbits
	.align	2
	.thumb
	.thumb_func
	.type	tt_size_init_bytecode, %function
tt_size_init_bytecode:
	@ args = 0, pretend = 0, frame = 40
	@ frame_needed = 1, uses_anonymous_args = 0
	push	{r4, r7, lr}
	sub	sp, sp, #52
	add	r7, sp, #8
	str	r0, [r7, #4]
	mov	r3, r1
	strb	r3, [r7, #3]
	ldr	r4, .L537
.LPIC20:
	add	r4, pc
	ldr	r3, [r7, #4]
	str	r3, [r7, #36]
	ldr	r3, [r7, #4]
	ldr	r3, [r3]
	str	r3, [r7, #32]
	ldr	r3, [r7, #32]
	ldr	r3, [r3, #100]
	str	r3, [r7, #28]
	ldr	r3, [r7, #32]
	add	r3, r3, #260
	str	r3, [r7, #24]
	ldr	r3, [r7, #36]
	ldr	r3, [r3, #124]
	ldr	r0, [r7, #28]
	mov	r1, r3
	bl	ft_mem_free(PLT)
	ldr	r3, [r7, #36]
	movs	r2, #0
	str	r2, [r3, #124]
	ldr	r3, [r7, #36]
	ldr	r3, [r3, #136]
	ldr	r0, [r7, #28]
	mov	r1, r3
	bl	ft_mem_free(PLT)
	ldr	r3, [r7, #36]
	movs	r2, #0
	str	r2, [r3, #136]
	ldr	r3, [r7, #36]
	ldr	r3, [r3, #244]
	ldr	r0, [r7, #28]
	mov	r1, r3
	bl	ft_mem_free(PLT)
	ldr	r3, [r7, #36]
	movs	r2, #0
	str	r2, [r3, #244]
	ldr	r3, [r7, #36]
	ldr	r3, [r3, #252]
	ldr	r0, [r7, #28]
	mov	r1, r3
	bl	ft_mem_free(PLT)
	ldr	r3, [r7, #36]
	movs	r2, #0
	str	r2, [r3, #252]
	ldr	r3, [r7, #36]
	ldr	r3, [r3, #292]
	cmp	r3, #0
	beq	.L530
	ldr	r3, [r7, #36]
	ldr	r3, [r3, #292]
	mov	r0, r3
	bl	TT_Done_Context(PLT)
.L530:
	ldr	r3, [r7, #36]
	add	r3, r3, #256
	mov	r0, r3
	bl	tt_glyphzone_done(PLT)
	ldr	r3, [r7, #36]
	mov	r2, #-1
	str	r2, [r3, #296]
	ldr	r3, [r7, #36]
	mov	r2, #-1
	str	r2, [r3, #300]
	ldr	r3, [r7, #32]
	ldr	r3, [r3, #96]
	mov	r0, r3
	bl	TT_New_Context(PLT)
	mov	r2, r0
	ldr	r3, [r7, #36]
	str	r2, [r3, #292]
	ldr	r3, [r7, #24]
	ldrh	r3, [r3, #20]
	mov	r2, r3
	ldr	r3, [r7, #36]
	str	r2, [r3, #120]
	ldr	r3, [r7, #24]
	ldrh	r3, [r3, #22]
	mov	r2, r3
	ldr	r3, [r7, #36]
	str	r2, [r3, #132]
	ldr	r3, [r7, #36]
	movs	r2, #0
	str	r2, [r3, #116]
	ldr	r3, [r7, #36]
	movs	r2, #0
	str	r2, [r3, #128]
	ldr	r3, [r7, #36]
	movs	r2, #0
	str	r2, [r3, #140]
	ldr	r3, [r7, #36]
	movs	r2, #0
	str	r2, [r3, #144]
	ldr	r3, [r7, #32]
	ldr	r2, [r3, #644]
	ldr	r3, [r7, #36]
	str	r2, [r3, #240]
	ldr	r3, [r7, #24]
	ldrh	r2, [r3, #18]
	ldr	r3, [r7, #36]
	strh	r2, [r3, #248]	@ movhi
	ldr	r3, [r7, #36]
	adds	r3, r3, #72
	str	r3, [r7, #20]
	ldr	r3, [r7, #20]
	movs	r2, #0
	strb	r2, [r3, #37]
	ldr	r3, [r7, #20]
	movs	r2, #0
	strb	r2, [r3, #38]
	ldr	r3, [r7, #20]
	movs	r2, #0
	str	r2, [r3, #20]
	ldr	r3, [r7, #20]
	movs	r2, #0
	str	r2, [r3, #24]
	ldr	r3, [r7, #20]
	movs	r2, #0
	str	r2, [r3, #28]
	ldr	r3, [r7, #20]
	movs	r2, #0
	str	r2, [r3, #32]
	ldr	r3, [r7, #36]
	ldr	r3, [r3, #120]
	movs	r2, #0
	str	r2, [sp]
	add	r2, r7, #8
	str	r2, [sp, #4]
	ldr	r0, [r7, #28]
	movs	r1, #24
	movs	r2, #0
	bl	ft_mem_realloc(PLT)
	mov	r2, r0
	ldr	r3, [r7, #36]
	str	r2, [r3, #124]
	ldr	r3, [r7, #8]
	cmp	r3, #0
	bne	.L531
	ldr	r3, [r7, #36]
	ldr	r3, [r3, #132]
	movs	r2, #0
	str	r2, [sp]
	add	r2, r7, #8
	str	r2, [sp, #4]
	ldr	r0, [r7, #28]
	movs	r1, #24
	movs	r2, #0
	bl	ft_mem_realloc(PLT)
	mov	r2, r0
	ldr	r3, [r7, #36]
	str	r2, [r3, #136]
	ldr	r3, [r7, #8]
	cmp	r3, #0
	bne	.L531
	ldr	r3, [r7, #36]
	ldr	r3, [r3, #240]
	movs	r2, #0
	str	r2, [sp]
	add	r2, r7, #8
	str	r2, [sp, #4]
	ldr	r0, [r7, #28]
	movs	r1, #4
	movs	r2, #0
	bl	ft_mem_realloc(PLT)
	mov	r2, r0
	ldr	r3, [r7, #36]
	str	r2, [r3, #244]
	ldr	r3, [r7, #8]
	cmp	r3, #0
	bne	.L531
	ldr	r3, [r7, #36]
	ldrh	r3, [r3, #248]
	movs	r2, #0
	str	r2, [sp]
	add	r2, r7, #8
	str	r2, [sp, #4]
	ldr	r0, [r7, #28]
	movs	r1, #4
	movs	r2, #0
	bl	ft_mem_realloc(PLT)
	mov	r2, r0
	ldr	r3, [r7, #36]
	str	r2, [r3, #252]
	ldr	r3, [r7, #8]
	cmp	r3, #0
	bne	.L531
	ldr	r3, [r7, #24]
	ldrh	r3, [r3, #16]	@ movhi
	strh	r3, [r7, #18]	@ movhi
	ldrh	r3, [r7, #18]	@ movhi
	adds	r3, r3, #4
	strh	r3, [r7, #18]	@ movhi
	ldr	r3, [r7, #36]
	add	r3, r3, #256
	ldrh	r2, [r7, #18]
	ldr	r0, [r7, #28]
	mov	r1, r2
	movs	r2, #0
	bl	tt_glyphzone_new(PLT)
	mov	r3, r0
	str	r3, [r7, #8]
	ldr	r3, [r7, #8]
	cmp	r3, #0
	beq	.L532
	b	.L531
.L532:
	ldr	r3, [r7, #36]
	ldrh	r2, [r7, #18]	@ movhi
	strh	r2, [r3, #264]	@ movhi
	ldr	r2, [r7, #36]
	ldr	r3, .L537+4
	ldr	r3, [r4, r3]
	add	r1, r2, #172
	mov	r2, r3
	movs	r3, #68
	mov	r0, r1
	mov	r1, r2
	mov	r2, r3
	bl	memcpy(PLT)
	ldr	r3, [r7, #32]
	ldr	r3, [r3, #96]
	ldr	r3, [r3, #4]
	str	r3, [r7, #12]
	ldr	r3, [r7, #12]
	ldr	r2, [r3, #172]
	ldr	r3, [r7, #32]
	str	r2, [r3, #652]
	ldr	r3, [r7, #32]
	ldr	r3, [r3, #652]
	cmp	r3, #0
	bne	.L533
	ldr	r3, [r7, #32]
	ldr	r2, .L537+8
	ldr	r2, [r4, r2]
	str	r2, [r3, #652]
.L533:
	ldrb	r3, [r7, #3]	@ zero_extendqisi2
	ldr	r0, [r7, #36]
	mov	r1, r3
	bl	tt_size_run_fpgm(PLT)
	mov	r3, r0
	str	r3, [r7, #8]
	ldr	r3, [r7, #8]
	b	.L536
.L531:
	ldr	r3, [r7, #8]
	cmp	r3, #0
	beq	.L535
	ldr	r0, [r7, #4]
	bl	tt_size_done_bytecode(PLT)
.L535:
	ldr	r3, [r7, #8]
.L536:
	mov	r0, r3
	adds	r7, r7, #44
	mov	sp, r7
	@ sp needed
	pop	{r4, r7, pc}
.L538:
	.align	2
.L537:
	.word	_GLOBAL_OFFSET_TABLE_-(.LPIC20+4)
	.word	tt_default_graphics_state(GOT)
	.word	TT_RunIns(GOT)
	.size	tt_size_init_bytecode, .-tt_size_init_bytecode
	.section	.text.tt_size_ready_bytecode,"ax",%progbits
	.align	2
	.thumb
	.thumb_func
	.type	tt_size_ready_bytecode, %function
tt_size_ready_bytecode:
	@ args = 0, pretend = 0, frame = 24
	@ frame_needed = 1, uses_anonymous_args = 0
	push	{r4, r5, r7, lr}
	sub	sp, sp, #24
	add	r7, sp, #0
	str	r0, [r7, #4]
	mov	r3, r1
	strb	r3, [r7, #3]
	ldr	r4, .L549
.LPIC21:
	add	r4, pc
	movs	r3, #0
	str	r3, [r7, #20]
	ldr	r3, [r7, #4]
	ldr	r3, [r3, #296]
	cmp	r3, #0
	bge	.L540
	ldrb	r3, [r7, #3]	@ zero_extendqisi2
	ldr	r0, [r7, #4]
	mov	r1, r3
	bl	tt_size_init_bytecode(PLT)
	str	r0, [r7, #20]
.L540:
	ldr	r3, [r7, #20]
	cmp	r3, #0
	bne	.L541
	ldr	r3, [r7, #4]
	ldr	r3, [r3, #296]
	cmp	r3, #0
	bne	.L541
	ldr	r3, [r7, #4]
	ldr	r3, [r3, #300]
	cmp	r3, #0
	bge	.L541
	ldr	r3, [r7, #4]
	ldr	r3, [r3]
	str	r3, [r7, #12]
	movs	r3, #0
	str	r3, [r7, #16]
	b	.L542
.L543:
	ldr	r3, [r7, #4]
	ldr	r2, [r3, #244]
	ldr	r3, [r7, #16]
	lsls	r3, r3, #2
	adds	r5, r2, r3
	ldr	r3, [r7, #12]
	ldr	r2, [r3, #648]
	ldr	r3, [r7, #16]
	lsls	r3, r3, #1
	add	r3, r3, r2
	ldrh	r3, [r3]
	sxth	r2, r3
	ldr	r3, [r7, #4]
	ldr	r3, [r3, #88]
	mov	r0, r2
	mov	r1, r3
	bl	FT_MulFix_arm(PLT)
	mov	r3, r0
	str	r3, [r5]
	ldr	r3, [r7, #16]
	adds	r3, r3, #1
	str	r3, [r7, #16]
.L542:
	ldr	r3, [r7, #4]
	ldr	r2, [r3, #240]
	ldr	r3, [r7, #16]
	cmp	r2, r3
	bhi	.L543
	movs	r3, #0
	str	r3, [r7, #16]
	b	.L544
.L545:
	ldr	r3, [r7, #4]
	ldr	r2, [r3, #268]
	ldr	r3, [r7, #16]
	lsls	r3, r3, #3
	add	r3, r3, r2
	movs	r2, #0
	str	r2, [r3]
	ldr	r3, [r7, #4]
	ldr	r2, [r3, #268]
	ldr	r3, [r7, #16]
	lsls	r3, r3, #3
	add	r3, r3, r2
	movs	r2, #0
	str	r2, [r3, #4]
	ldr	r3, [r7, #4]
	ldr	r2, [r3, #272]
	ldr	r3, [r7, #16]
	lsls	r3, r3, #3
	add	r3, r3, r2
	movs	r2, #0
	str	r2, [r3]
	ldr	r3, [r7, #4]
	ldr	r2, [r3, #272]
	ldr	r3, [r7, #16]
	lsls	r3, r3, #3
	add	r3, r3, r2
	movs	r2, #0
	str	r2, [r3, #4]
	ldr	r3, [r7, #16]
	adds	r3, r3, #1
	str	r3, [r7, #16]
.L544:
	ldr	r3, [r7, #4]
	ldrh	r3, [r3, #264]
	mov	r2, r3
	ldr	r3, [r7, #16]
	cmp	r2, r3
	bhi	.L545
	movs	r3, #0
	str	r3, [r7, #16]
	b	.L546
.L547:
	ldr	r3, [r7, #4]
	ldr	r2, [r3, #252]
	ldr	r3, [r7, #16]
	lsls	r3, r3, #2
	add	r3, r3, r2
	movs	r2, #0
	str	r2, [r3]
	ldr	r3, [r7, #16]
	adds	r3, r3, #1
	str	r3, [r7, #16]
.L546:
	ldr	r3, [r7, #4]
	ldrh	r3, [r3, #248]
	mov	r2, r3
	ldr	r3, [r7, #16]
	cmp	r2, r3
	bhi	.L547
	ldr	r2, [r7, #4]
	ldr	r3, .L549+4
	ldr	r3, [r4, r3]
	add	r1, r2, #172
	mov	r2, r3
	movs	r3, #68
	mov	r0, r1
	mov	r1, r2
	mov	r2, r3
	bl	memcpy(PLT)
	ldrb	r3, [r7, #3]	@ zero_extendqisi2
	ldr	r0, [r7, #4]
	mov	r1, r3
	bl	tt_size_run_prep(PLT)
	str	r0, [r7, #20]
.L541:
	ldr	r3, [r7, #20]
	mov	r0, r3
	adds	r7, r7, #24
	mov	sp, r7
	@ sp needed
	pop	{r4, r5, r7, pc}
.L550:
	.align	2
.L549:
	.word	_GLOBAL_OFFSET_TABLE_-(.LPIC21+4)
	.word	tt_default_graphics_state(GOT)
	.size	tt_size_ready_bytecode, .-tt_size_ready_bytecode
	.section	.text.tt_size_init,"ax",%progbits
	.align	2
	.thumb
	.thumb_func
	.type	tt_size_init, %function
tt_size_init:
	@ args = 0, pretend = 0, frame = 16
	@ frame_needed = 1, uses_anonymous_args = 0
	@ link register save eliminated.
	push	{r7}
	sub	sp, sp, #20
	add	r7, sp, #0
	str	r0, [r7, #4]
	ldr	r3, [r7, #4]
	str	r3, [r7, #12]
	movs	r3, #0
	str	r3, [r7, #8]
	ldr	r3, [r7, #12]
	mov	r2, #-1
	str	r2, [r3, #296]
	ldr	r3, [r7, #12]
	mov	r2, #-1
	str	r2, [r3, #300]
	ldr	r3, [r7, #12]
	movs	r2, #0
	strb	r2, [r3, #108]
	ldr	r3, [r7, #12]
	mov	r2, #-1
	str	r2, [r3, #112]
	ldr	r3, [r7, #8]
	mov	r0, r3
	adds	r7, r7, #20
	mov	sp, r7
	@ sp needed
	ldr	r7, [sp], #4
	bx	lr
	.size	tt_size_init, .-tt_size_init
	.section	.text.tt_size_done,"ax",%progbits
	.align	2
	.thumb
	.thumb_func
	.type	tt_size_done, %function
tt_size_done:
	@ args = 0, pretend = 0, frame = 16
	@ frame_needed = 1, uses_anonymous_args = 0
	push	{r7, lr}
	sub	sp, sp, #16
	add	r7, sp, #0
	str	r0, [r7, #4]
	ldr	r3, [r7, #4]
	str	r3, [r7, #12]
	ldr	r0, [r7, #4]
	bl	tt_size_done_bytecode(PLT)
	ldr	r3, [r7, #12]
	movs	r2, #0
	strb	r2, [r3, #108]
	adds	r7, r7, #16
	mov	sp, r7
	@ sp needed
	pop	{r7, pc}
	.size	tt_size_done, .-tt_size_done
	.section	.text.tt_size_reset,"ax",%progbits
	.align	2
	.thumb
	.thumb_func
	.type	tt_size_reset, %function
tt_size_reset:
	@ args = 0, pretend = 0, frame = 24
	@ frame_needed = 1, uses_anonymous_args = 0
	push	{r4, r5, r7, lr}
	sub	sp, sp, #24
	add	r7, sp, #0
	str	r0, [r7, #4]
	movs	r3, #0
	str	r3, [r7, #20]
	ldr	r3, [r7, #4]
	movs	r2, #0
	strb	r2, [r3, #108]
	ldr	r3, [r7, #4]
	ldr	r3, [r3]
	str	r3, [r7, #16]
	ldr	r3, [r7, #4]
	adds	r3, r3, #44
	str	r3, [r7, #12]
	ldr	r2, [r7, #12]
	ldr	r3, [r7, #4]
	mov	r4, r2
	add	r5, r3, #12
	ldmia	r5!, {r0, r1, r2, r3}
	stmia	r4!, {r0, r1, r2, r3}
	ldmia	r5, {r0, r1, r2}
	stmia	r4, {r0, r1, r2}
	ldr	r3, [r7, #12]
	ldrh	r3, [r3]
	cmp	r3, #0
	beq	.L555
	ldr	r3, [r7, #12]
	ldrh	r3, [r3, #2]
	cmp	r3, #0
	bne	.L556
.L555:
	movs	r3, #151
	b	.L557
.L556:
	ldr	r3, [r7, #16]
	ldrh	r3, [r3, #176]
	and	r3, r3, #8
	cmp	r3, #0
	beq	.L558
	ldr	r3, [r7, #12]
	ldrh	r3, [r3]
	lsls	r2, r3, #6
	ldr	r3, [r7, #16]
	ldrh	r3, [r3, #68]
	mov	r0, r2
	mov	r1, r3
	bl	FT_DivFix(PLT)
	mov	r2, r0
	ldr	r3, [r7, #12]
	str	r2, [r3, #4]
	ldr	r3, [r7, #12]
	ldrh	r3, [r3, #2]
	lsls	r2, r3, #6
	ldr	r3, [r7, #16]
	ldrh	r3, [r3, #68]
	mov	r0, r2
	mov	r1, r3
	bl	FT_DivFix(PLT)
	mov	r2, r0
	ldr	r3, [r7, #12]
	str	r2, [r3, #8]
	ldr	r3, [r7, #16]
	ldrh	r3, [r3, #70]
	sxth	r2, r3
	ldr	r3, [r7, #12]
	ldr	r3, [r3, #8]
	mov	r0, r2
	mov	r1, r3
	bl	FT_MulFix_arm(PLT)
	mov	r3, r0
	adds	r3, r3, #32
	bic	r2, r3, #63
	ldr	r3, [r7, #12]
	str	r2, [r3, #12]
	ldr	r3, [r7, #16]
	ldrh	r3, [r3, #72]
	sxth	r2, r3
	ldr	r3, [r7, #12]
	ldr	r3, [r3, #8]
	mov	r0, r2
	mov	r1, r3
	bl	FT_MulFix_arm(PLT)
	mov	r3, r0
	adds	r3, r3, #32
	bic	r2, r3, #63
	ldr	r3, [r7, #12]
	str	r2, [r3, #16]
	ldr	r3, [r7, #16]
	ldrh	r3, [r3, #74]
	sxth	r2, r3
	ldr	r3, [r7, #12]
	ldr	r3, [r3, #8]
	mov	r0, r2
	mov	r1, r3
	bl	FT_MulFix_arm(PLT)
	mov	r3, r0
	adds	r3, r3, #32
	bic	r2, r3, #63
	ldr	r3, [r7, #12]
	str	r2, [r3, #20]
	ldr	r3, [r7, #16]
	ldrh	r3, [r3, #76]
	sxth	r2, r3
	ldr	r3, [r7, #12]
	ldr	r3, [r3, #4]
	mov	r0, r2
	mov	r1, r3
	bl	FT_MulFix_arm(PLT)
	mov	r3, r0
	adds	r3, r3, #32
	bic	r2, r3, #63
	ldr	r3, [r7, #12]
	str	r2, [r3, #24]
.L558:
	ldr	r3, [r7, #12]
	ldrh	r2, [r3]
	ldr	r3, [r7, #12]
	ldrh	r3, [r3, #2]
	cmp	r2, r3
	bcc	.L559
	ldr	r3, [r7, #12]
	ldr	r2, [r3, #4]
	ldr	r3, [r7, #4]
	str	r2, [r3, #88]
	ldr	r3, [r7, #12]
	ldrh	r2, [r3]
	ldr	r3, [r7, #4]
	strh	r2, [r3, #80]	@ movhi
	ldr	r3, [r7, #4]
	mov	r2, #65536
	str	r2, [r3, #72]
	ldr	r3, [r7, #12]
	ldrh	r3, [r3, #2]
	mov	r2, r3
	ldr	r3, [r7, #12]
	ldrh	r3, [r3]
	mov	r0, r2
	mov	r1, r3
	bl	FT_DivFix(PLT)
	mov	r2, r0
	ldr	r3, [r7, #4]
	str	r2, [r3, #76]
	b	.L560
.L559:
	ldr	r3, [r7, #12]
	ldr	r2, [r3, #8]
	ldr	r3, [r7, #4]
	str	r2, [r3, #88]
	ldr	r3, [r7, #12]
	ldrh	r2, [r3, #2]
	ldr	r3, [r7, #4]
	strh	r2, [r3, #80]	@ movhi
	ldr	r3, [r7, #12]
	ldrh	r3, [r3]
	mov	r2, r3
	ldr	r3, [r7, #12]
	ldrh	r3, [r3, #2]
	mov	r0, r2
	mov	r1, r3
	bl	FT_DivFix(PLT)
	mov	r2, r0
	ldr	r3, [r7, #4]
	str	r2, [r3, #72]
	ldr	r3, [r7, #4]
	mov	r2, #65536
	str	r2, [r3, #76]
.L560:
	ldr	r3, [r7, #4]
	mov	r2, #-1
	str	r2, [r3, #300]
	ldr	r3, [r7, #20]
	cmp	r3, #0
	bne	.L561
	ldr	r3, [r7, #4]
	movs	r2, #1
	strb	r2, [r3, #108]
.L561:
	ldr	r3, [r7, #20]
.L557:
	mov	r0, r3
	adds	r7, r7, #24
	mov	sp, r7
	@ sp needed
	pop	{r4, r5, r7, pc}
	.size	tt_size_reset, .-tt_size_reset
	.section	.text.tt_driver_init,"ax",%progbits
	.align	2
	.thumb
	.thumb_func
	.type	tt_driver_init, %function
tt_driver_init:
	@ args = 0, pretend = 0, frame = 16
	@ frame_needed = 1, uses_anonymous_args = 0
	@ link register save eliminated.
	push	{r7}
	sub	sp, sp, #20
	add	r7, sp, #0
	str	r0, [r7, #4]
	ldr	r3, [r7, #4]
	str	r3, [r7, #12]
	ldr	r3, [r7, #12]
	movs	r2, #38
	str	r2, [r3, #64]
	movs	r3, #0
	mov	r0, r3
	adds	r7, r7, #20
	mov	sp, r7
	@ sp needed
	ldr	r7, [sp], #4
	bx	lr
	.size	tt_driver_init, .-tt_driver_init
	.section	.text.tt_driver_done,"ax",%progbits
	.align	2
	.thumb
	.thumb_func
	.type	tt_driver_done, %function
tt_driver_done:
	@ args = 0, pretend = 0, frame = 8
	@ frame_needed = 1, uses_anonymous_args = 0
	@ link register save eliminated.
	push	{r7}
	sub	sp, sp, #12
	add	r7, sp, #0
	str	r0, [r7, #4]
	adds	r7, r7, #12
	mov	sp, r7
	@ sp needed
	ldr	r7, [sp], #4
	bx	lr
	.size	tt_driver_done, .-tt_driver_done
	.section	.text.tt_slot_init,"ax",%progbits
	.align	2
	.thumb
	.thumb_func
	.type	tt_slot_init, %function
tt_slot_init:
	@ args = 0, pretend = 0, frame = 8
	@ frame_needed = 1, uses_anonymous_args = 0
	push	{r7, lr}
	sub	sp, sp, #8
	add	r7, sp, #0
	str	r0, [r7, #4]
	ldr	r3, [r7, #4]
	ldr	r3, [r3, #156]
	ldr	r3, [r3]
	mov	r0, r3
	bl	FT_GlyphLoader_CreateExtra(PLT)
	mov	r3, r0
	mov	r0, r3
	adds	r7, r7, #8
	mov	sp, r7
	@ sp needed
	pop	{r7, pc}
	.size	tt_slot_init, .-tt_slot_init
	.section	.text.TT_Goto_CodeRange,"ax",%progbits
	.align	2
	.thumb
	.thumb_func
	.type	TT_Goto_CodeRange, %function
TT_Goto_CodeRange:
	@ args = 0, pretend = 0, frame = 24
	@ frame_needed = 1, uses_anonymous_args = 0
	@ link register save eliminated.
	push	{r7}
	sub	sp, sp, #28
	add	r7, sp, #0
	str	r0, [r7, #12]
	str	r1, [r7, #8]
	str	r2, [r7, #4]
	ldr	r3, [r7, #8]
	subs	r3, r3, #1
	adds	r3, r3, #55
	lsls	r3, r3, #3
	ldr	r2, [r7, #12]
	add	r3, r3, r2
	adds	r3, r3, #4
	str	r3, [r7, #20]
	ldr	r3, [r7, #20]
	ldr	r2, [r3]
	ldr	r3, [r7, #12]
	str	r2, [r3, #356]
	ldr	r3, [r7, #20]
	ldr	r2, [r3, #4]
	ldr	r3, [r7, #12]
	str	r2, [r3, #364]
	ldr	r3, [r7, #12]
	ldr	r2, [r7, #4]
	str	r2, [r3, #360]
	ldr	r3, [r7, #12]
	ldr	r2, [r7, #8]
	str	r2, [r3, #352]
	adds	r7, r7, #28
	mov	sp, r7
	@ sp needed
	ldr	r7, [sp], #4
	bx	lr
	.size	TT_Goto_CodeRange, .-TT_Goto_CodeRange
	.section	.text.TT_Set_CodeRange,"ax",%progbits
	.align	2
	.thumb
	.thumb_func
	.type	TT_Set_CodeRange, %function
TT_Set_CodeRange:
	@ args = 0, pretend = 0, frame = 16
	@ frame_needed = 1, uses_anonymous_args = 0
	@ link register save eliminated.
	push	{r7}
	sub	sp, sp, #20
	add	r7, sp, #0
	str	r0, [r7, #12]
	str	r1, [r7, #8]
	str	r2, [r7, #4]
	str	r3, [r7]
	ldr	r3, [r7, #8]
	subs	r3, r3, #1
	ldr	r2, [r7, #12]
	adds	r3, r3, #55
	lsls	r3, r3, #3
	add	r3, r3, r2
	ldr	r2, [r7, #4]
	str	r2, [r3, #4]
	ldr	r3, [r7, #8]
	subs	r3, r3, #1
	ldr	r2, [r7, #12]
	adds	r3, r3, #55
	lsls	r3, r3, #3
	add	r3, r3, r2
	ldr	r2, [r7]
	str	r2, [r3, #8]
	adds	r7, r7, #20
	mov	sp, r7
	@ sp needed
	ldr	r7, [sp], #4
	bx	lr
	.size	TT_Set_CodeRange, .-TT_Set_CodeRange
	.section	.text.TT_Clear_CodeRange,"ax",%progbits
	.align	2
	.thumb
	.thumb_func
	.type	TT_Clear_CodeRange, %function
TT_Clear_CodeRange:
	@ args = 0, pretend = 0, frame = 8
	@ frame_needed = 1, uses_anonymous_args = 0
	@ link register save eliminated.
	push	{r7}
	sub	sp, sp, #12
	add	r7, sp, #0
	str	r0, [r7, #4]
	str	r1, [r7]
	ldr	r3, [r7]
	subs	r3, r3, #1
	ldr	r2, [r7, #4]
	adds	r3, r3, #55
	lsls	r3, r3, #3
	add	r3, r3, r2
	movs	r2, #0
	str	r2, [r3, #4]
	ldr	r3, [r7]
	subs	r3, r3, #1
	ldr	r2, [r7, #4]
	adds	r3, r3, #55
	lsls	r3, r3, #3
	add	r3, r3, r2
	movs	r2, #0
	str	r2, [r3, #8]
	adds	r7, r7, #12
	mov	sp, r7
	@ sp needed
	ldr	r7, [sp], #4
	bx	lr
	.size	TT_Clear_CodeRange, .-TT_Clear_CodeRange
	.section	.text.TT_Done_Context,"ax",%progbits
	.align	2
	.thumb
	.thumb_func
	.type	TT_Done_Context, %function
TT_Done_Context:
	@ args = 0, pretend = 0, frame = 16
	@ frame_needed = 1, uses_anonymous_args = 0
	push	{r7, lr}
	sub	sp, sp, #16
	add	r7, sp, #0
	str	r0, [r7, #4]
	ldr	r3, [r7, #4]
	ldr	r3, [r3, #8]
	str	r3, [r7, #12]
	ldr	r3, [r7, #4]
	movs	r2, #0
	strh	r2, [r3, #440]	@ movhi
	ldr	r3, [r7, #4]
	movs	r2, #0
	strh	r2, [r3, #442]	@ movhi
	ldr	r3, [r7, #4]
	ldr	r3, [r3, #24]
	ldr	r0, [r7, #12]
	mov	r1, r3
	bl	ft_mem_free(PLT)
	ldr	r3, [r7, #4]
	movs	r2, #0
	str	r2, [r3, #24]
	ldr	r3, [r7, #4]
	movs	r2, #0
	str	r2, [r3, #20]
	ldr	r3, [r7, #4]
	ldr	r3, [r3, #436]
	ldr	r0, [r7, #12]
	mov	r1, r3
	bl	ft_mem_free(PLT)
	ldr	r3, [r7, #4]
	movs	r2, #0
	str	r2, [r3, #436]
	ldr	r3, [r7, #4]
	movs	r2, #0
	str	r2, [r3, #432]
	ldr	r3, [r7, #4]
	movs	r2, #0
	str	r2, [r3, #428]
	ldr	r3, [r7, #4]
	ldr	r3, [r3, #392]
	ldr	r0, [r7, #12]
	mov	r1, r3
	bl	ft_mem_free(PLT)
	ldr	r3, [r7, #4]
	movs	r2, #0
	str	r2, [r3, #392]
	ldr	r3, [r7, #4]
	movs	r2, #0
	str	r2, [r3, #388]
	ldr	r3, [r7, #4]
	movs	r2, #0
	str	r2, [r3, #4]
	ldr	r3, [r7, #4]
	movs	r2, #0
	str	r2, [r3]
	ldr	r0, [r7, #12]
	ldr	r1, [r7, #4]
	bl	ft_mem_free(PLT)
	movs	r3, #0
	str	r3, [r7, #4]
	adds	r7, r7, #16
	mov	sp, r7
	@ sp needed
	pop	{r7, pc}
	.size	TT_Done_Context, .-TT_Done_Context
	.section	.text.Init_Context,"ax",%progbits
	.align	2
	.thumb
	.thumb_func
	.type	Init_Context, %function
Init_Context:
	@ args = 0, pretend = 0, frame = 16
	@ frame_needed = 1, uses_anonymous_args = 0
	push	{r7, lr}
	sub	sp, sp, #24
	add	r7, sp, #8
	str	r0, [r7, #4]
	str	r1, [r7]
	ldr	r3, [r7, #4]
	ldr	r2, [r7]
	str	r2, [r3, #8]
	ldr	r3, [r7, #4]
	movs	r2, #32
	str	r2, [r3, #432]
	ldr	r3, [r7, #4]
	ldr	r3, [r3, #432]
	movs	r2, #0
	str	r2, [sp]
	add	r2, r7, #12
	str	r2, [sp, #4]
	ldr	r0, [r7]
	movs	r1, #16
	movs	r2, #0
	bl	ft_mem_realloc(PLT)
	mov	r2, r0
	ldr	r3, [r7, #4]
	str	r2, [r3, #436]
	ldr	r3, [r7, #12]
	cmp	r3, #0
	beq	.L572
	nop
.L573:
	ldr	r0, [r7, #4]
	bl	TT_Done_Context(PLT)
	ldr	r3, [r7, #12]
	b	.L575
.L572:
	ldr	r3, [r7, #4]
	movs	r2, #0
	strh	r2, [r3, #440]	@ movhi
	ldr	r3, [r7, #4]
	movs	r2, #0
	strh	r2, [r3, #442]	@ movhi
	ldr	r3, [r7, #4]
	movs	r2, #0
	str	r2, [r3, #20]
	ldr	r3, [r7, #4]
	movs	r2, #0
	str	r2, [r3, #388]
	ldr	r3, [r7, #4]
	movs	r2, #0
	str	r2, [r3, #24]
	ldr	r3, [r7, #4]
	movs	r2, #0
	str	r2, [r3, #392]
	ldr	r3, [r7, #4]
	movs	r2, #0
	str	r2, [r3]
	ldr	r3, [r7, #4]
	movs	r2, #0
	str	r2, [r3, #4]
	movs	r3, #0
.L575:
	mov	r0, r3
	adds	r7, r7, #16
	mov	sp, r7
	@ sp needed
	pop	{r7, pc}
	.size	Init_Context, .-Init_Context
	.section	.text.Update_Max,"ax",%progbits
	.align	2
	.thumb
	.thumb_func
	.type	Update_Max, %function
Update_Max:
	@ args = 4, pretend = 0, frame = 24
	@ frame_needed = 1, uses_anonymous_args = 0
	push	{r7, lr}
	sub	sp, sp, #32
	add	r7, sp, #8
	str	r0, [r7, #12]
	str	r1, [r7, #8]
	str	r2, [r7, #4]
	str	r3, [r7]
	ldr	r3, [r7]
	str	r3, [r7, #20]
	ldr	r3, [r7, #8]
	ldr	r2, [r3]
	ldr	r3, [r7, #32]
	cmp	r2, r3
	bcs	.L577
	ldr	r3, [r7, #8]
	ldr	r3, [r3]
	ldr	r2, [r7, #4]
	mul	r3, r2, r3
	mov	r2, r3
	ldr	r3, [r7, #32]
	ldr	r1, [r7, #4]
	mul	r3, r1, r3
	ldr	r1, [r7, #20]
	ldr	r1, [r1]
	str	r1, [sp]
	add	r1, r7, #16
	str	r1, [sp, #4]
	ldr	r0, [r7, #12]
	movs	r1, #1
	bl	ft_mem_realloc(PLT)
	mov	r2, r0
	ldr	r3, [r7, #20]
	str	r2, [r3]
	ldr	r3, [r7, #16]
	cmp	r3, #0
	beq	.L578
	ldr	r3, [r7, #16]
	b	.L580
.L578:
	ldr	r3, [r7, #8]
	ldr	r2, [r7, #32]
	str	r2, [r3]
.L577:
	movs	r3, #0
.L580:
	mov	r0, r3
	adds	r7, r7, #24
	mov	sp, r7
	@ sp needed
	pop	{r7, pc}
	.size	Update_Max, .-Update_Max
	.section	.text.TT_Load_Context,"ax",%progbits
	.align	2
	.thumb
	.thumb_func
	.type	TT_Load_Context, %function
TT_Load_Context:
	@ args = 0, pretend = 0, frame = 32
	@ frame_needed = 1, uses_anonymous_args = 0
	push	{r4, r5, r7, lr}
	sub	sp, sp, #40
	add	r7, sp, #8
	str	r0, [r7, #12]
	str	r1, [r7, #8]
	str	r2, [r7, #4]
	ldr	r3, [r7, #12]
	ldr	r2, [r7, #8]
	str	r2, [r3]
	ldr	r3, [r7, #8]
	add	r3, r3, #260
	str	r3, [r7, #24]
	ldr	r3, [r7, #12]
	ldr	r2, [r7, #4]
	str	r2, [r3, #4]
	ldr	r3, [r7, #4]
	cmp	r3, #0
	beq	.L582
	ldr	r3, [r7, #4]
	ldr	r2, [r3, #116]
	ldr	r3, [r7, #12]
	str	r2, [r3, #396]
	ldr	r3, [r7, #4]
	ldr	r2, [r3, #120]
	ldr	r3, [r7, #12]
	str	r2, [r3, #400]
	ldr	r3, [r7, #4]
	ldr	r2, [r3, #128]
	ldr	r3, [r7, #12]
	str	r2, [r3, #408]
	ldr	r3, [r7, #4]
	ldr	r2, [r3, #132]
	ldr	r3, [r7, #12]
	str	r2, [r3, #412]
	ldr	r3, [r7, #4]
	ldr	r2, [r3, #124]
	ldr	r3, [r7, #12]
	str	r2, [r3, #404]
	ldr	r3, [r7, #4]
	ldr	r2, [r3, #136]
	ldr	r3, [r7, #12]
	str	r2, [r3, #416]
	ldr	r2, [r7, #12]
	ldr	r3, [r7, #4]
	add	r4, r2, #244
	add	r5, r3, #72
	ldmia	r5!, {r0, r1, r2, r3}
	stmia	r4!, {r0, r1, r2, r3}
	ldmia	r5!, {r0, r1, r2, r3}
	stmia	r4!, {r0, r1, r2, r3}
	ldmia	r5, {r0, r1}
	stmia	r4, {r0, r1}
	ldr	r2, [r7, #12]
	ldr	r3, [r7, #4]
	add	r4, r2, #216
	add	r5, r3, #44
	ldmia	r5!, {r0, r1, r2, r3}
	stmia	r4!, {r0, r1, r2, r3}
	ldmia	r5, {r0, r1, r2}
	stmia	r4, {r0, r1, r2}
	ldr	r3, [r7, #4]
	ldr	r2, [r3, #140]
	ldr	r3, [r7, #12]
	str	r2, [r3, #420]
	ldr	r3, [r7, #4]
	ldr	r2, [r3, #144]
	ldr	r3, [r7, #12]
	str	r2, [r3, #424]
	movs	r3, #0
	str	r3, [r7, #28]
	b	.L583
.L584:
	ldr	r3, [r7, #12]
	ldr	r2, [r7, #28]
	adds	r2, r2, #55
	lsls	r2, r2, #3
	add	r2, r2, r3
	ldr	r1, [r7, #4]
	ldr	r3, [r7, #28]
	adds	r3, r3, #18
	lsls	r3, r3, #3
	add	r3, r3, r1
	adds	r2, r2, #4
	adds	r3, r3, #4
	ldmia	r3, {r0, r1}
	stmia	r2, {r0, r1}
	ldr	r3, [r7, #28]
	adds	r3, r3, #1
	str	r3, [r7, #28]
.L583:
	ldr	r3, [r7, #28]
	cmp	r3, #2
	ble	.L584
	ldr	r2, [r7, #12]
	ldr	r3, [r7, #4]
	add	r1, r2, #284
	add	r2, r3, #172
	movs	r3, #68
	mov	r0, r1
	mov	r1, r2
	mov	r2, r3
	bl	memcpy(PLT)
	ldr	r3, [r7, #4]
	ldr	r2, [r3, #240]
	ldr	r3, [r7, #12]
	str	r2, [r3, #380]
	ldr	r3, [r7, #4]
	ldr	r2, [r3, #244]
	ldr	r3, [r7, #12]
	str	r2, [r3, #384]
	ldr	r3, [r7, #4]
	ldrh	r2, [r3, #248]
	ldr	r3, [r7, #12]
	strh	r2, [r3, #468]	@ movhi
	ldr	r3, [r7, #4]
	ldr	r2, [r3, #252]
	ldr	r3, [r7, #12]
	str	r2, [r3, #472]
	ldr	r2, [r7, #12]
	ldr	r3, [r7, #4]
	add	r4, r2, #180
	add	r5, r3, #256
	ldmia	r5!, {r0, r1, r2, r3}
	stmia	r4!, {r0, r1, r2, r3}
	ldmia	r5!, {r0, r1, r2, r3}
	stmia	r4!, {r0, r1, r2, r3}
	ldr	r3, [r5]
	str	r3, [r4]
	ldr	r3, [r7, #12]
	adds	r3, r3, #36
	mov	r0, r3
	movs	r1, #0
	movs	r2, #36
	bl	memset(PLT)
	ldr	r2, [r7, #12]
	ldr	r3, [r7, #12]
	add	r4, r2, #72
	add	r5, r3, #36
	ldmia	r5!, {r0, r1, r2, r3}
	stmia	r4!, {r0, r1, r2, r3}
	ldmia	r5!, {r0, r1, r2, r3}
	stmia	r4!, {r0, r1, r2, r3}
	ldr	r3, [r5]
	str	r3, [r4]
	ldr	r2, [r7, #12]
	ldr	r3, [r7, #12]
	add	r4, r2, #108
	add	r5, r3, #36
	ldmia	r5!, {r0, r1, r2, r3}
	stmia	r4!, {r0, r1, r2, r3}
	ldmia	r5!, {r0, r1, r2, r3}
	stmia	r4!, {r0, r1, r2, r3}
	ldr	r3, [r5]
	str	r3, [r4]
.L582:
	ldr	r3, [r7, #12]
	ldr	r3, [r3, #20]
	str	r3, [r7, #16]
	ldr	r3, [r7, #12]
	ldr	r1, [r3, #8]
	ldr	r3, [r7, #12]
	adds	r3, r3, #24
	ldr	r2, [r7, #24]
	ldrh	r2, [r2, #24]
	adds	r2, r2, #32
	mov	r0, r2
	add	r2, r7, #16
	str	r0, [sp]
	mov	r0, r1
	mov	r1, r2
	movs	r2, #4
	bl	Update_Max(PLT)
	str	r0, [r7, #20]
	ldr	r3, [r7, #16]
	mov	r2, r3
	ldr	r3, [r7, #12]
	str	r2, [r3, #20]
	ldr	r3, [r7, #20]
	cmp	r3, #0
	beq	.L585
	ldr	r3, [r7, #20]
	b	.L588
.L585:
	ldr	r3, [r7, #12]
	ldr	r3, [r3, #388]
	str	r3, [r7, #16]
	ldr	r3, [r7, #12]
	ldr	r1, [r3, #8]
	ldr	r3, [r7, #12]
	add	r3, r3, #392
	ldr	r2, [r7, #24]
	ldrh	r2, [r2, #26]
	mov	r0, r2
	add	r2, r7, #16
	str	r0, [sp]
	mov	r0, r1
	mov	r1, r2
	movs	r2, #1
	bl	Update_Max(PLT)
	str	r0, [r7, #20]
	ldr	r3, [r7, #16]
	uxth	r3, r3
	mov	r2, r3
	ldr	r3, [r7, #12]
	str	r2, [r3, #388]
	ldr	r3, [r7, #20]
	cmp	r3, #0
	beq	.L587
	ldr	r3, [r7, #20]
	b	.L588
.L587:
	ldr	r3, [r7, #12]
	movs	r2, #0
	strh	r2, [r3, #152]	@ movhi
	ldr	r3, [r7, #12]
	movs	r2, #0
	strh	r2, [r3, #154]	@ movhi
	ldr	r2, [r7, #12]
	ldr	r3, [r7, #12]
	add	r4, r2, #72
	add	r5, r3, #144
	ldmia	r5!, {r0, r1, r2, r3}
	stmia	r4!, {r0, r1, r2, r3}
	ldmia	r5!, {r0, r1, r2, r3}
	stmia	r4!, {r0, r1, r2, r3}
	ldr	r3, [r5]
	str	r3, [r4]
	ldr	r2, [r7, #12]
	ldr	r3, [r7, #12]
	add	r4, r2, #108
	add	r5, r3, #144
	ldmia	r5!, {r0, r1, r2, r3}
	stmia	r4!, {r0, r1, r2, r3}
	ldmia	r5!, {r0, r1, r2, r3}
	stmia	r4!, {r0, r1, r2, r3}
	ldr	r3, [r5]
	str	r3, [r4]
	ldr	r2, [r7, #12]
	ldr	r3, [r7, #12]
	add	r4, r2, #36
	add	r5, r3, #144
	ldmia	r5!, {r0, r1, r2, r3}
	stmia	r4!, {r0, r1, r2, r3}
	ldmia	r5!, {r0, r1, r2, r3}
	stmia	r4!, {r0, r1, r2, r3}
	ldr	r3, [r5]
	str	r3, [r4]
	ldr	r3, [r7, #12]
	movs	r2, #0
	strb	r2, [r3, #488]
	movs	r3, #0
.L588:
	mov	r0, r3
	adds	r7, r7, #32
	mov	sp, r7
	@ sp needed
	pop	{r4, r5, r7, pc}
	.size	TT_Load_Context, .-TT_Load_Context
	.section	.text.TT_Save_Context,"ax",%progbits
	.align	2
	.thumb
	.thumb_func
	.type	TT_Save_Context, %function
TT_Save_Context:
	@ args = 0, pretend = 0, frame = 16
	@ frame_needed = 1, uses_anonymous_args = 0
	@ link register save eliminated.
	push	{r7}
	sub	sp, sp, #20
	add	r7, sp, #0
	str	r0, [r7, #4]
	str	r1, [r7]
	ldr	r3, [r7, #4]
	ldr	r2, [r3, #396]
	ldr	r3, [r7]
	str	r2, [r3, #116]
	ldr	r3, [r7, #4]
	ldr	r2, [r3, #408]
	ldr	r3, [r7]
	str	r2, [r3, #128]
	ldr	r3, [r7, #4]
	ldr	r2, [r3, #420]
	ldr	r3, [r7]
	str	r2, [r3, #140]
	ldr	r3, [r7, #4]
	ldr	r2, [r3, #424]
	ldr	r3, [r7]
	str	r2, [r3, #144]
	movs	r3, #0
	str	r3, [r7, #12]
	b	.L590
.L591:
	ldr	r3, [r7]
	ldr	r2, [r7, #12]
	adds	r2, r2, #18
	lsls	r2, r2, #3
	add	r2, r2, r3
	ldr	r1, [r7, #4]
	ldr	r3, [r7, #12]
	adds	r3, r3, #55
	lsls	r3, r3, #3
	add	r3, r3, r1
	adds	r2, r2, #4
	adds	r3, r3, #4
	ldmia	r3, {r0, r1}
	stmia	r2, {r0, r1}
	ldr	r3, [r7, #12]
	adds	r3, r3, #1
	str	r3, [r7, #12]
.L590:
	ldr	r3, [r7, #12]
	cmp	r3, #2
	ble	.L591
	adds	r7, r7, #20
	mov	sp, r7
	@ sp needed
	ldr	r7, [sp], #4
	bx	lr
	.size	TT_Save_Context, .-TT_Save_Context
	.section	.text.TT_Run_Context,"ax",%progbits
	.align	2
	.thumb
	.thumb_func
	.type	TT_Run_Context, %function
TT_Run_Context:
	@ args = 0, pretend = 0, frame = 8
	@ frame_needed = 1, uses_anonymous_args = 0
	push	{r4, r5, r7, lr}
	sub	sp, sp, #8
	add	r7, sp, #0
	str	r0, [r7, #4]
	ldr	r0, [r7, #4]
	movs	r1, #3
	movs	r2, #0
	bl	TT_Goto_CodeRange(PLT)
	ldr	r2, [r7, #4]
	ldr	r3, [r7, #4]
	add	r4, r2, #36
	add	r5, r3, #144
	ldmia	r5!, {r0, r1, r2, r3}
	stmia	r4!, {r0, r1, r2, r3}
	ldmia	r5!, {r0, r1, r2, r3}
	stmia	r4!, {r0, r1, r2, r3}
	ldr	r3, [r5]
	str	r3, [r4]
	ldr	r2, [r7, #4]
	ldr	r3, [r7, #4]
	add	r4, r2, #72
	add	r5, r3, #144
	ldmia	r5!, {r0, r1, r2, r3}
	stmia	r4!, {r0, r1, r2, r3}
	ldmia	r5!, {r0, r1, r2, r3}
	stmia	r4!, {r0, r1, r2, r3}
	ldr	r3, [r5]
	str	r3, [r4]
	ldr	r2, [r7, #4]
	ldr	r3, [r7, #4]
	add	r4, r2, #108
	add	r5, r3, #144
	ldmia	r5!, {r0, r1, r2, r3}
	stmia	r4!, {r0, r1, r2, r3}
	ldmia	r5!, {r0, r1, r2, r3}
	stmia	r4!, {r0, r1, r2, r3}
	ldr	r3, [r5]
	str	r3, [r4]
	ldr	r3, [r7, #4]
	movs	r2, #1
	strh	r2, [r3, #344]	@ movhi
	ldr	r3, [r7, #4]
	movs	r2, #1
	strh	r2, [r3, #346]	@ movhi
	ldr	r3, [r7, #4]
	movs	r2, #1
	strh	r2, [r3, #348]	@ movhi
	ldr	r3, [r7, #4]
	mov	r2, #16384
	strh	r2, [r3, #294]	@ movhi
	ldr	r3, [r7, #4]
	movs	r2, #0
	strh	r2, [r3, #296]	@ movhi
	ldr	r3, [r7, #4]
	ldr	r2, [r7, #4]
	add	r3, r3, #298
	add	r2, r2, #294
	ldr	r2, [r2]	@ unaligned
	str	r2, [r3]	@ unaligned
	ldr	r3, [r7, #4]
	ldr	r2, [r7, #4]
	add	r3, r3, #290
	add	r2, r2, #294
	ldr	r2, [r2]	@ unaligned
	str	r2, [r3]	@ unaligned
	ldr	r3, [r7, #4]
	movs	r2, #1
	str	r2, [r3, #312]
	ldr	r3, [r7, #4]
	movs	r2, #1
	str	r2, [r3, #304]
	ldr	r3, [r7, #4]
	movs	r2, #0
	str	r2, [r3, #16]
	ldr	r3, [r7, #4]
	movs	r2, #0
	str	r2, [r3, #428]
	ldr	r3, [r7, #4]
	ldr	r3, [r3]
	ldr	r3, [r3, #652]
	ldr	r0, [r7, #4]
	blx	r3
	mov	r3, r0
	mov	r0, r3
	adds	r7, r7, #8
	mov	sp, r7
	@ sp needed
	pop	{r4, r5, r7, pc}
	.size	TT_Run_Context, .-TT_Run_Context
	.global	tt_default_graphics_state
	.section	.rodata.tt_default_graphics_state,"a",%progbits
	.align	2
	.type	tt_default_graphics_state, %object
	.size	tt_default_graphics_state, 68
tt_default_graphics_state:
	.short	0
	.short	0
	.short	0
	.short	16384
	.short	0
	.short	16384
	.short	0
	.short	16384
	.short	0
	.space	2
	.word	1
	.word	64
	.word	1
	.byte	1
	.space	3
	.word	68
	.word	0
	.word	0
	.short	9
	.short	3
	.byte	0
	.byte	0
	.space	2
	.word	0
	.short	1
	.short	1
	.short	1
	.space	2
	.section	.text.TT_New_Context,"ax",%progbits
	.align	2
	.global	TT_New_Context
	.thumb
	.thumb_func
	.type	TT_New_Context, %function
TT_New_Context:
	@ args = 0, pretend = 0, frame = 24
	@ frame_needed = 1, uses_anonymous_args = 0
	push	{r7, lr}
	sub	sp, sp, #24
	add	r7, sp, #0
	str	r0, [r7, #4]
	movs	r3, #0
	str	r3, [r7, #20]
	ldr	r3, [r7, #4]
	cmp	r3, #0
	bne	.L595
	b	.L596
.L595:
	ldr	r3, [r7, #4]
	ldr	r3, [r3, #8]
	str	r3, [r7, #16]
	add	r3, r7, #12
	ldr	r0, [r7, #16]
	mov	r1, #640
	mov	r2, r3
	bl	ft_mem_alloc(PLT)
	str	r0, [r7, #20]
	ldr	r3, [r7, #12]
	cmp	r3, #0
	beq	.L597
	b	.L596
.L597:
	ldr	r0, [r7, #20]
	ldr	r1, [r7, #16]
	bl	Init_Context(PLT)
	mov	r3, r0
	str	r3, [r7, #12]
	ldr	r3, [r7, #12]
	cmp	r3, #0
	beq	.L598
	b	.L596
.L598:
	ldr	r3, [r7, #20]
	b	.L600
.L596:
	movs	r3, #0
.L600:
	mov	r0, r3
	adds	r7, r7, #24
	mov	sp, r7
	@ sp needed
	pop	{r7, pc}
	.size	TT_New_Context, .-TT_New_Context
	.section	.rodata.Pop_Push_Count,"a",%progbits
	.align	2
	.type	Pop_Push_Count, %object
	.size	Pop_Push_Count, 256
Pop_Push_Count:
	.byte	0
	.byte	0
	.byte	0
	.byte	0
	.byte	0
	.byte	0
	.byte	32
	.byte	32
	.byte	32
	.byte	32
	.byte	32
	.byte	32
	.byte	2
	.byte	2
	.byte	0
	.byte	80
	.byte	16
	.byte	16
	.byte	16
	.byte	16
	.byte	16
	.byte	16
	.byte	16
	.byte	16
	.byte	0
	.byte	0
	.byte	16
	.byte	0
	.byte	16
	.byte	16
	.byte	16
	.byte	16
	.byte	18
	.byte	16
	.byte	0
	.byte	34
	.byte	1
	.byte	17
	.byte	16
	.byte	32
	.byte	0
	.byte	16
	.byte	32
	.byte	16
	.byte	16
	.byte	0
	.byte	16
	.byte	16
	.byte	0
	.byte	0
	.byte	0
	.byte	0
	.byte	16
	.byte	16
	.byte	16
	.byte	16
	.byte	16
	.byte	0
	.byte	32
	.byte	32
	.byte	0
	.byte	0
	.byte	32
	.byte	32
	.byte	0
	.byte	0
	.byte	32
	.byte	17
	.byte	32
	.byte	17
	.byte	17
	.byte	17
	.byte	32
	.byte	33
	.byte	33
	.byte	1
	.byte	1
	.byte	0
	.byte	0
	.byte	16
	.byte	33
	.byte	33
	.byte	33
	.byte	33
	.byte	33
	.byte	33
	.byte	17
	.byte	17
	.byte	16
	.byte	0
	.byte	33
	.byte	33
	.byte	17
	.byte	16
	.byte	16
	.byte	16
	.byte	33
	.byte	33
	.byte	33
	.byte	33
	.byte	17
	.byte	17
	.byte	17
	.byte	17
	.byte	17
	.byte	17
	.byte	17
	.byte	17
	.byte	17
	.byte	17
	.byte	17
	.byte	17
	.byte	32
	.byte	16
	.byte	16
	.byte	16
	.byte	16
	.byte	16
	.byte	16
	.byte	16
	.byte	32
	.byte	32
	.byte	0
	.byte	0
	.byte	0
	.byte	0
	.byte	16
	.byte	16
	.byte	0
	.byte	32
	.byte	32
	.byte	0
	.byte	0
	.byte	16
	.byte	32
	.byte	32
	.byte	17
	.byte	16
	.byte	51
	.byte	33
	.byte	33
	.byte	16
	.byte	32
	.byte	0
	.byte	0
	.byte	0
	.byte	0
	.byte	0
	.byte	0
	.byte	0
	.byte	0
	.byte	0
	.byte	0
	.byte	0
	.byte	0
	.byte	0
	.byte	0
	.byte	0
	.byte	0
	.byte	0
	.byte	0
	.byte	0
	.byte	0
	.byte	0
	.byte	0
	.byte	0
	.byte	0
	.byte	0
	.byte	0
	.byte	0
	.byte	0
	.byte	0
	.byte	0
	.byte	0
	.byte	0
	.byte	0
	.byte	1
	.byte	2
	.byte	3
	.byte	4
	.byte	5
	.byte	6
	.byte	7
	.byte	8
	.byte	1
	.byte	2
	.byte	3
	.byte	4
	.byte	5
	.byte	6
	.byte	7
	.byte	8
	.byte	16
	.byte	16
	.byte	16
	.byte	16
	.byte	16
	.byte	16
	.byte	16
	.byte	16
	.byte	16
	.byte	16
	.byte	16
	.byte	16
	.byte	16
	.byte	16
	.byte	16
	.byte	16
	.byte	16
	.byte	16
	.byte	16
	.byte	16
	.byte	16
	.byte	16
	.byte	16
	.byte	16
	.byte	16
	.byte	16
	.byte	16
	.byte	16
	.byte	16
	.byte	16
	.byte	16
	.byte	16
	.byte	32
	.byte	32
	.byte	32
	.byte	32
	.byte	32
	.byte	32
	.byte	32
	.byte	32
	.byte	32
	.byte	32
	.byte	32
	.byte	32
	.byte	32
	.byte	32
	.byte	32
	.byte	32
	.byte	32
	.byte	32
	.byte	32
	.byte	32
	.byte	32
	.byte	32
	.byte	32
	.byte	32
	.byte	32
	.byte	32
	.byte	32
	.byte	32
	.byte	32
	.byte	32
	.byte	32
	.byte	32
	.section	.rodata.opcode_length,"a",%progbits
	.align	2
	.type	opcode_length, %object
	.size	opcode_length, 256
opcode_length:
	.byte	1
	.byte	1
	.byte	1
	.byte	1
	.byte	1
	.byte	1
	.byte	1
	.byte	1
	.byte	1
	.byte	1
	.byte	1
	.byte	1
	.byte	1
	.byte	1
	.byte	1
	.byte	1
	.byte	1
	.byte	1
	.byte	1
	.byte	1
	.byte	1
	.byte	1
	.byte	1
	.byte	1
	.byte	1
	.byte	1
	.byte	1
	.byte	1
	.byte	1
	.byte	1
	.byte	1
	.byte	1
	.byte	1
	.byte	1
	.byte	1
	.byte	1
	.byte	1
	.byte	1
	.byte	1
	.byte	1
	.byte	1
	.byte	1
	.byte	1
	.byte	1
	.byte	1
	.byte	1
	.byte	1
	.byte	1
	.byte	1
	.byte	1
	.byte	1
	.byte	1
	.byte	1
	.byte	1
	.byte	1
	.byte	1
	.byte	1
	.byte	1
	.byte	1
	.byte	1
	.byte	1
	.byte	1
	.byte	1
	.byte	1
	.byte	-1
	.byte	-2
	.byte	1
	.byte	1
	.byte	1
	.byte	1
	.byte	1
	.byte	1
	.byte	1
	.byte	1
	.byte	1
	.byte	1
	.byte	1
	.byte	1
	.byte	1
	.byte	1
	.byte	1
	.byte	1
	.byte	1
	.byte	1
	.byte	1
	.byte	1
	.byte	1
	.byte	1
	.byte	1
	.byte	1
	.byte	1
	.byte	1
	.byte	1
	.byte	1
	.byte	1
	.byte	1
	.byte	1
	.byte	1
	.byte	1
	.byte	1
	.byte	1
	.byte	1
	.byte	1
	.byte	1
	.byte	1
	.byte	1
	.byte	1
	.byte	1
	.byte	1
	.byte	1
	.byte	1
	.byte	1
	.byte	1
	.byte	1
	.byte	1
	.byte	1
	.byte	1
	.byte	1
	.byte	1
	.byte	1
	.byte	1
	.byte	1
	.byte	1
	.byte	1
	.byte	1
	.byte	1
	.byte	1
	.byte	1
	.byte	1
	.byte	1
	.byte	1
	.byte	1
	.byte	1
	.byte	1
	.byte	1
	.byte	1
	.byte	1
	.byte	1
	.byte	1
	.byte	1
	.byte	1
	.byte	1
	.byte	1
	.byte	1
	.byte	1
	.byte	1
	.byte	1
	.byte	1
	.byte	1
	.byte	1
	.byte	1
	.byte	1
	.byte	1
	.byte	1
	.byte	1
	.byte	1
	.byte	1
	.byte	1
	.byte	1
	.byte	1
	.byte	1
	.byte	1
	.byte	1
	.byte	1
	.byte	1
	.byte	1
	.byte	1
	.byte	1
	.byte	1
	.byte	1
	.byte	1
	.byte	1
	.byte	1
	.byte	1
	.byte	1
	.byte	1
	.byte	2
	.byte	3
	.byte	4
	.byte	5
	.byte	6
	.byte	7
	.byte	8
	.byte	9
	.byte	3
	.byte	5
	.byte	7
	.byte	9
	.byte	11
	.byte	13
	.byte	15
	.byte	17
	.byte	1
	.byte	1
	.byte	1
	.byte	1
	.byte	1
	.byte	1
	.byte	1
	.byte	1
	.byte	1
	.byte	1
	.byte	1
	.byte	1
	.byte	1
	.byte	1
	.byte	1
	.byte	1
	.byte	1
	.byte	1
	.byte	1
	.byte	1
	.byte	1
	.byte	1
	.byte	1
	.byte	1
	.byte	1
	.byte	1
	.byte	1
	.byte	1
	.byte	1
	.byte	1
	.byte	1
	.byte	1
	.byte	1
	.byte	1
	.byte	1
	.byte	1
	.byte	1
	.byte	1
	.byte	1
	.byte	1
	.byte	1
	.byte	1
	.byte	1
	.byte	1
	.byte	1
	.byte	1
	.byte	1
	.byte	1
	.byte	1
	.byte	1
	.byte	1
	.byte	1
	.byte	1
	.byte	1
	.byte	1
	.byte	1
	.byte	1
	.byte	1
	.byte	1
	.byte	1
	.byte	1
	.byte	1
	.byte	1
	.byte	1
	.section	.text.TT_MulFix14_arm,"ax",%progbits
	.align	2
	.thumb
	.thumb_func
	.type	TT_MulFix14_arm, %function
TT_MulFix14_arm:
	@ args = 0, pretend = 0, frame = 16
	@ frame_needed = 1, uses_anonymous_args = 0
	@ link register save eliminated.
	push	{r7}
	sub	sp, sp, #20
	add	r7, sp, #0
	str	r0, [r7, #4]
	str	r1, [r7]
	ldr	r3, [r7, #4]
	ldr	r2, [r7]
#APP
@ 1265 "../../../libs/freetype/src/truetype/ttinterp.c" 1
	smull  r0, r1, r2, r3
	mov    r3, r1, asr #31
	add    r3, r3, #0x2000
	adds   r0, r0, r3
	adc    r1, r1, #0
	mov    r3, r0, lsr #14
	orr    r3, r3, r1, lsl #18
	
@ 0 "" 2
	.thumb
	str	r3, [r7, #4]
	str	r0, [r7, #12]
	str	r1, [r7, #8]
	ldr	r3, [r7, #4]
	mov	r0, r3
	adds	r7, r7, #20
	mov	sp, r7
	@ sp needed
	ldr	r7, [sp], #4
	bx	lr
	.size	TT_MulFix14_arm, .-TT_MulFix14_arm
	.section	.text.TT_DotFix14_long_long,"ax",%progbits
	.align	2
	.thumb
	.thumb_func
	.type	TT_DotFix14_long_long, %function
TT_DotFix14_long_long:
	@ args = 0, pretend = 0, frame = 32
	@ frame_needed = 1, uses_anonymous_args = 0
	push	{r4, r5, r6, r7, r8, r9, lr}
	sub	sp, sp, #36
	add	r7, sp, #0
	str	r0, [r7, #12]
	str	r1, [r7, #8]
	str	r2, [r7, #4]
	str	r3, [r7]
	ldr	r3, [r7, #12]
	mov	r0, r3
	asr	r1, r0, #31
	ldr	r3, [r7, #4]
	mov	r2, r3
	asr	r3, r2, #31
	mul	lr, r2, r1
	mul	r6, r0, r3
	add	r6, r6, lr
	umull	r2, r3, r0, r2
	adds	r1, r6, r3
	mov	r3, r1
	strd	r2, [r7, #24]
	strd	r2, [r7, #24]
	ldr	r3, [r7, #8]
	mov	r0, r3
	asr	r1, r0, #31
	ldr	r3, [r7]
	mov	r2, r3
	asr	r3, r2, #31
	mul	lr, r2, r1
	mul	r6, r0, r3
	add	r6, r6, lr
	umull	r2, r3, r0, r2
	adds	r1, r6, r3
	mov	r3, r1
	strd	r2, [r7, #16]
	strd	r2, [r7, #16]
	ldrd	r0, [r7, #24]
	ldrd	r2, [r7, #16]
	adds	r2, r2, r0
	adc	r3, r3, r1
	strd	r2, [r7, #24]
	ldrd	r2, [r7, #24]
	asr	r8, r3, #31
	asr	r9, r3, #31
	strd	r8, [r7, #16]
	ldrd	r2, [r7, #16]
	adds	r2, r2, #8192
	adc	r3, r3, #0
	ldrd	r0, [r7, #24]
	adds	r2, r2, r0
	adc	r3, r3, r1
	strd	r2, [r7, #24]
	ldrd	r2, [r7, #24]
	lsrs	r4, r2, #14
	orr	r4, r4, r3, lsl #18
	asrs	r5, r3, #14
	mov	r3, r4
	mov	r0, r3
	adds	r7, r7, #36
	mov	sp, r7
	@ sp needed
	pop	{r4, r5, r6, r7, r8, r9, pc}
	.size	TT_DotFix14_long_long, .-TT_DotFix14_long_long
	.section	.text.Current_Ratio,"ax",%progbits
	.align	2
	.thumb
	.thumb_func
	.type	Current_Ratio, %function
Current_Ratio:
	@ args = 0, pretend = 0, frame = 16
	@ frame_needed = 1, uses_anonymous_args = 0
	push	{r7, lr}
	sub	sp, sp, #16
	add	r7, sp, #0
	str	r0, [r7, #4]
	ldr	r3, [r7, #4]
	ldr	r3, [r3, #256]
	cmp	r3, #0
	bne	.L606
	ldr	r3, [r7, #4]
	ldrh	r3, [r3, #296]
	cmp	r3, #0
	bne	.L607
	ldr	r3, [r7, #4]
	ldr	r2, [r3, #244]
	ldr	r3, [r7, #4]
	str	r2, [r3, #256]
	b	.L606
.L607:
	ldr	r3, [r7, #4]
	ldrh	r3, [r3, #294]
	cmp	r3, #0
	bne	.L608
	ldr	r3, [r7, #4]
	ldr	r2, [r3, #248]
	ldr	r3, [r7, #4]
	str	r2, [r3, #256]
	b	.L606
.L608:
	ldr	r3, [r7, #4]
	ldr	r2, [r3, #244]
	ldr	r3, [r7, #4]
	ldrh	r3, [r3, #294]
	sxth	r3, r3
	mov	r0, r2
	mov	r1, r3
	bl	TT_MulFix14_arm(PLT)
	str	r0, [r7, #12]
	ldr	r3, [r7, #4]
	ldr	r2, [r3, #248]
	ldr	r3, [r7, #4]
	ldrh	r3, [r3, #296]
	sxth	r3, r3
	mov	r0, r2
	mov	r1, r3
	bl	TT_MulFix14_arm(PLT)
	str	r0, [r7, #8]
	ldr	r0, [r7, #12]
	ldr	r1, [r7, #8]
	bl	FT_Hypot(PLT)
	mov	r2, r0
	ldr	r3, [r7, #4]
	str	r2, [r3, #256]
.L606:
	ldr	r3, [r7, #4]
	ldr	r3, [r3, #256]
	mov	r0, r3
	adds	r7, r7, #16
	mov	sp, r7
	@ sp needed
	pop	{r7, pc}
	.size	Current_Ratio, .-Current_Ratio
	.section	.text.Current_Ppem,"ax",%progbits
	.align	2
	.thumb
	.thumb_func
	.type	Current_Ppem, %function
Current_Ppem:
	@ args = 0, pretend = 0, frame = 8
	@ frame_needed = 1, uses_anonymous_args = 0
	@ link register save eliminated.
	push	{r7}
	sub	sp, sp, #12
	add	r7, sp, #0
	str	r0, [r7, #4]
	ldr	r3, [r7, #4]
	ldrh	r3, [r3, #252]
	mov	r0, r3
	adds	r7, r7, #12
	mov	sp, r7
	@ sp needed
	ldr	r7, [sp], #4
	bx	lr
	.size	Current_Ppem, .-Current_Ppem
	.section	.text.Current_Ppem_Stretched,"ax",%progbits
	.align	2
	.thumb
	.thumb_func
	.type	Current_Ppem_Stretched, %function
Current_Ppem_Stretched:
	@ args = 0, pretend = 0, frame = 8
	@ frame_needed = 1, uses_anonymous_args = 0
	push	{r4, r7, lr}
	sub	sp, sp, #12
	add	r7, sp, #0
	str	r0, [r7, #4]
	ldr	r3, [r7, #4]
	ldrh	r3, [r3, #252]
	mov	r4, r3
	ldr	r0, [r7, #4]
	bl	Current_Ratio(PLT)
	mov	r3, r0
	mov	r0, r4
	mov	r1, r3
	bl	FT_MulFix_arm(PLT)
	mov	r3, r0
	mov	r0, r3
	adds	r7, r7, #12
	mov	sp, r7
	@ sp needed
	pop	{r4, r7, pc}
	.size	Current_Ppem_Stretched, .-Current_Ppem_Stretched
	.section	.text.Read_CVT,"ax",%progbits
	.align	2
	.thumb
	.thumb_func
	.type	Read_CVT, %function
Read_CVT:
	@ args = 0, pretend = 0, frame = 8
	@ frame_needed = 1, uses_anonymous_args = 0
	@ link register save eliminated.
	push	{r7}
	sub	sp, sp, #12
	add	r7, sp, #0
	str	r0, [r7, #4]
	str	r1, [r7]
	ldr	r3, [r7, #4]
	ldr	r2, [r3, #384]
	ldr	r3, [r7]
	lsls	r3, r3, #2
	add	r3, r3, r2
	ldr	r3, [r3]
	mov	r0, r3
	adds	r7, r7, #12
	mov	sp, r7
	@ sp needed
	ldr	r7, [sp], #4
	bx	lr
	.size	Read_CVT, .-Read_CVT
	.section	.text.Read_CVT_Stretched,"ax",%progbits
	.align	2
	.thumb
	.thumb_func
	.type	Read_CVT_Stretched, %function
Read_CVT_Stretched:
	@ args = 0, pretend = 0, frame = 8
	@ frame_needed = 1, uses_anonymous_args = 0
	push	{r4, r7, lr}
	sub	sp, sp, #12
	add	r7, sp, #0
	str	r0, [r7, #4]
	str	r1, [r7]
	ldr	r3, [r7, #4]
	ldr	r2, [r3, #384]
	ldr	r3, [r7]
	lsls	r3, r3, #2
	add	r3, r3, r2
	ldr	r4, [r3]
	ldr	r0, [r7, #4]
	bl	Current_Ratio(PLT)
	mov	r3, r0
	mov	r0, r4
	mov	r1, r3
	bl	FT_MulFix_arm(PLT)
	mov	r3, r0
	mov	r0, r3
	adds	r7, r7, #12
	mov	sp, r7
	@ sp needed
	pop	{r4, r7, pc}
	.size	Read_CVT_Stretched, .-Read_CVT_Stretched
	.section	.text.Write_CVT,"ax",%progbits
	.align	2
	.thumb
	.thumb_func
	.type	Write_CVT, %function
Write_CVT:
	@ args = 0, pretend = 0, frame = 16
	@ frame_needed = 1, uses_anonymous_args = 0
	@ link register save eliminated.
	push	{r7}
	sub	sp, sp, #20
	add	r7, sp, #0
	str	r0, [r7, #12]
	str	r1, [r7, #8]
	str	r2, [r7, #4]
	ldr	r3, [r7, #12]
	ldr	r2, [r3, #384]
	ldr	r3, [r7, #8]
	lsls	r3, r3, #2
	add	r3, r3, r2
	ldr	r2, [r7, #4]
	str	r2, [r3]
	adds	r7, r7, #20
	mov	sp, r7
	@ sp needed
	ldr	r7, [sp], #4
	bx	lr
	.size	Write_CVT, .-Write_CVT
	.section	.text.Write_CVT_Stretched,"ax",%progbits
	.align	2
	.thumb
	.thumb_func
	.type	Write_CVT_Stretched, %function
Write_CVT_Stretched:
	@ args = 0, pretend = 0, frame = 16
	@ frame_needed = 1, uses_anonymous_args = 0
	push	{r4, r7, lr}
	sub	sp, sp, #20
	add	r7, sp, #0
	str	r0, [r7, #12]
	str	r1, [r7, #8]
	str	r2, [r7, #4]
	ldr	r3, [r7, #12]
	ldr	r2, [r3, #384]
	ldr	r3, [r7, #8]
	lsls	r3, r3, #2
	adds	r4, r2, r3
	ldr	r0, [r7, #12]
	bl	Current_Ratio(PLT)
	mov	r3, r0
	ldr	r0, [r7, #4]
	mov	r1, r3
	bl	FT_DivFix(PLT)
	mov	r3, r0
	str	r3, [r4]
	adds	r7, r7, #20
	mov	sp, r7
	@ sp needed
	pop	{r4, r7, pc}
	.size	Write_CVT_Stretched, .-Write_CVT_Stretched
	.section	.text.Move_CVT,"ax",%progbits
	.align	2
	.thumb
	.thumb_func
	.type	Move_CVT, %function
Move_CVT:
	@ args = 0, pretend = 0, frame = 16
	@ frame_needed = 1, uses_anonymous_args = 0
	@ link register save eliminated.
	push	{r7}
	sub	sp, sp, #20
	add	r7, sp, #0
	str	r0, [r7, #12]
	str	r1, [r7, #8]
	str	r2, [r7, #4]
	ldr	r3, [r7, #12]
	ldr	r2, [r3, #384]
	ldr	r3, [r7, #8]
	lsls	r3, r3, #2
	add	r3, r3, r2
	ldr	r2, [r7, #12]
	ldr	r1, [r2, #384]
	ldr	r2, [r7, #8]
	lsls	r2, r2, #2
	add	r2, r2, r1
	ldr	r1, [r2]
	ldr	r2, [r7, #4]
	add	r2, r2, r1
	str	r2, [r3]
	adds	r7, r7, #20
	mov	sp, r7
	@ sp needed
	ldr	r7, [sp], #4
	bx	lr
	.size	Move_CVT, .-Move_CVT
	.section	.text.Move_CVT_Stretched,"ax",%progbits
	.align	2
	.thumb
	.thumb_func
	.type	Move_CVT_Stretched, %function
Move_CVT_Stretched:
	@ args = 0, pretend = 0, frame = 16
	@ frame_needed = 1, uses_anonymous_args = 0
	push	{r4, r5, r7, lr}
	sub	sp, sp, #16
	add	r7, sp, #0
	str	r0, [r7, #12]
	str	r1, [r7, #8]
	str	r2, [r7, #4]
	ldr	r3, [r7, #12]
	ldr	r2, [r3, #384]
	ldr	r3, [r7, #8]
	lsls	r3, r3, #2
	adds	r4, r2, r3
	ldr	r3, [r7, #12]
	ldr	r2, [r3, #384]
	ldr	r3, [r7, #8]
	lsls	r3, r3, #2
	add	r3, r3, r2
	ldr	r5, [r3]
	ldr	r0, [r7, #12]
	bl	Current_Ratio(PLT)
	mov	r3, r0
	ldr	r0, [r7, #4]
	mov	r1, r3
	bl	FT_DivFix(PLT)
	mov	r3, r0
	add	r3, r3, r5
	str	r3, [r4]
	adds	r7, r7, #16
	mov	sp, r7
	@ sp needed
	pop	{r4, r5, r7, pc}
	.size	Move_CVT_Stretched, .-Move_CVT_Stretched
	.section	.text.GetShortIns,"ax",%progbits
	.align	2
	.thumb
	.thumb_func
	.type	GetShortIns, %function
GetShortIns:
	@ args = 0, pretend = 0, frame = 8
	@ frame_needed = 1, uses_anonymous_args = 0
	@ link register save eliminated.
	push	{r7}
	sub	sp, sp, #12
	add	r7, sp, #0
	str	r0, [r7, #4]
	ldr	r3, [r7, #4]
	ldr	r3, [r3, #360]
	adds	r2, r3, #2
	ldr	r3, [r7, #4]
	str	r2, [r3, #360]
	ldr	r3, [r7, #4]
	ldr	r2, [r3, #356]
	ldr	r3, [r7, #4]
	ldr	r3, [r3, #360]
	subs	r3, r3, #2
	add	r3, r3, r2
	ldrb	r3, [r3]	@ zero_extendqisi2
	lsls	r3, r3, #8
	uxth	r2, r3
	ldr	r3, [r7, #4]
	ldr	r1, [r3, #356]
	ldr	r3, [r7, #4]
	ldr	r3, [r3, #360]
	subs	r3, r3, #1
	add	r3, r3, r1
	ldrb	r3, [r3]	@ zero_extendqisi2
	add	r3, r3, r2
	uxth	r3, r3
	uxth	r3, r3
	sxth	r3, r3
	mov	r0, r3
	adds	r7, r7, #12
	mov	sp, r7
	@ sp needed
	ldr	r7, [sp], #4
	bx	lr
	.size	GetShortIns, .-GetShortIns
	.section	.text.Ins_Goto_CodeRange,"ax",%progbits
	.align	2
	.thumb
	.thumb_func
	.type	Ins_Goto_CodeRange, %function
Ins_Goto_CodeRange:
	@ args = 0, pretend = 0, frame = 24
	@ frame_needed = 1, uses_anonymous_args = 0
	@ link register save eliminated.
	push	{r7}
	sub	sp, sp, #28
	add	r7, sp, #0
	str	r0, [r7, #12]
	str	r1, [r7, #8]
	str	r2, [r7, #4]
	ldr	r3, [r7, #8]
	cmp	r3, #0
	ble	.L625
	ldr	r3, [r7, #8]
	cmp	r3, #3
	ble	.L626
.L625:
	ldr	r3, [r7, #12]
	movs	r2, #132
	str	r2, [r3, #12]
	movs	r3, #1
	b	.L627
.L626:
	ldr	r3, [r7, #8]
	subs	r3, r3, #1
	adds	r3, r3, #55
	lsls	r3, r3, #3
	ldr	r2, [r7, #12]
	add	r3, r3, r2
	adds	r3, r3, #4
	str	r3, [r7, #20]
	ldr	r3, [r7, #20]
	ldr	r3, [r3]
	cmp	r3, #0
	bne	.L628
	ldr	r3, [r7, #12]
	movs	r2, #138
	str	r2, [r3, #12]
	movs	r3, #1
	b	.L627
.L628:
	ldr	r3, [r7, #20]
	ldr	r2, [r3, #4]
	ldr	r3, [r7, #4]
	cmp	r2, r3
	bge	.L629
	ldr	r3, [r7, #12]
	movs	r2, #131
	str	r2, [r3, #12]
	movs	r3, #1
	b	.L627
.L629:
	ldr	r3, [r7, #20]
	ldr	r2, [r3]
	ldr	r3, [r7, #12]
	str	r2, [r3, #356]
	ldr	r3, [r7, #20]
	ldr	r2, [r3, #4]
	ldr	r3, [r7, #12]
	str	r2, [r3, #364]
	ldr	r3, [r7, #12]
	ldr	r2, [r7, #4]
	str	r2, [r3, #360]
	ldr	r3, [r7, #12]
	ldr	r2, [r7, #8]
	str	r2, [r3, #352]
	movs	r3, #0
.L627:
	mov	r0, r3
	adds	r7, r7, #28
	mov	sp, r7
	@ sp needed
	ldr	r7, [sp], #4
	bx	lr
	.size	Ins_Goto_CodeRange, .-Ins_Goto_CodeRange
	.section	.text.Direct_Move,"ax",%progbits
	.align	2
	.thumb
	.thumb_func
	.type	Direct_Move, %function
Direct_Move:
	@ args = 0, pretend = 0, frame = 24
	@ frame_needed = 1, uses_anonymous_args = 0
	push	{r4, r5, r7, lr}
	sub	sp, sp, #24
	add	r7, sp, #0
	str	r0, [r7, #12]
	str	r1, [r7, #8]
	str	r3, [r7]
	mov	r3, r2	@ movhi
	strh	r3, [r7, #6]	@ movhi
	ldr	r3, [r7, #12]
	ldrh	r3, [r3, #298]
	sxth	r3, r3
	str	r3, [r7, #20]
	ldr	r3, [r7, #20]
	cmp	r3, #0
	beq	.L631
	ldr	r3, [r7, #12]
	ldr	r3, [r3]
	ldr	r3, [r3, #96]
	ldr	r3, [r3, #64]
	cmp	r3, #38
	bne	.L632
	ldr	r3, [r7, #12]
	ldrb	r3, [r3, #617]	@ zero_extendqisi2
	cmp	r3, #0
	beq	.L632
	ldr	r3, [r7, #12]
	ldr	r3, [r3, #632]
	and	r3, r3, #1
	cmp	r3, #0
	beq	.L633
.L632:
	ldr	r3, [r7, #8]
	ldr	r2, [r3, #16]
	ldrh	r3, [r7, #6]
	lsls	r3, r3, #3
	adds	r4, r2, r3
	ldr	r3, [r7, #8]
	ldr	r2, [r3, #16]
	ldrh	r3, [r7, #6]
	lsls	r3, r3, #3
	add	r3, r3, r2
	ldr	r5, [r3]
	ldr	r3, [r7, #12]
	ldr	r3, [r3, #564]
	ldr	r0, [r7]
	ldr	r1, [r7, #20]
	mov	r2, r3
	bl	FT_MulDiv(PLT)
	mov	r3, r0
	add	r3, r3, r5
	str	r3, [r4]
.L633:
	ldr	r3, [r7, #8]
	ldr	r2, [r3, #24]
	ldrh	r3, [r7, #6]
	add	r3, r3, r2
	ldr	r2, [r7, #8]
	ldr	r1, [r2, #24]
	ldrh	r2, [r7, #6]
	add	r2, r2, r1
	ldrb	r2, [r2]	@ zero_extendqisi2
	orr	r2, r2, #8
	uxtb	r2, r2
	strb	r2, [r3]
.L631:
	ldr	r3, [r7, #12]
	ldrh	r3, [r3, #300]
	sxth	r3, r3
	str	r3, [r7, #20]
	ldr	r3, [r7, #20]
	cmp	r3, #0
	beq	.L630
	ldr	r3, [r7, #8]
	ldr	r2, [r3, #16]
	ldrh	r3, [r7, #6]
	lsls	r3, r3, #3
	adds	r4, r2, r3
	ldr	r3, [r7, #8]
	ldr	r2, [r3, #16]
	ldrh	r3, [r7, #6]
	lsls	r3, r3, #3
	add	r3, r3, r2
	ldr	r5, [r3, #4]
	ldr	r3, [r7, #12]
	ldr	r3, [r3, #564]
	ldr	r0, [r7]
	ldr	r1, [r7, #20]
	mov	r2, r3
	bl	FT_MulDiv(PLT)
	mov	r3, r0
	add	r3, r3, r5
	str	r3, [r4, #4]
	ldr	r3, [r7, #8]
	ldr	r2, [r3, #24]
	ldrh	r3, [r7, #6]
	add	r3, r3, r2
	ldr	r2, [r7, #8]
	ldr	r1, [r2, #24]
	ldrh	r2, [r7, #6]
	add	r2, r2, r1
	ldrb	r2, [r2]	@ zero_extendqisi2
	orr	r2, r2, #16
	uxtb	r2, r2
	strb	r2, [r3]
.L630:
	adds	r7, r7, #24
	mov	sp, r7
	@ sp needed
	pop	{r4, r5, r7, pc}
	.size	Direct_Move, .-Direct_Move
	.section	.text.Direct_Move_Orig,"ax",%progbits
	.align	2
	.thumb
	.thumb_func
	.type	Direct_Move_Orig, %function
Direct_Move_Orig:
	@ args = 0, pretend = 0, frame = 24
	@ frame_needed = 1, uses_anonymous_args = 0
	push	{r4, r5, r7, lr}
	sub	sp, sp, #24
	add	r7, sp, #0
	str	r0, [r7, #12]
	str	r1, [r7, #8]
	str	r3, [r7]
	mov	r3, r2	@ movhi
	strh	r3, [r7, #6]	@ movhi
	ldr	r3, [r7, #12]
	ldrh	r3, [r3, #298]
	sxth	r3, r3
	str	r3, [r7, #20]
	ldr	r3, [r7, #20]
	cmp	r3, #0
	beq	.L636
	ldr	r3, [r7, #8]
	ldr	r2, [r3, #12]
	ldrh	r3, [r7, #6]
	lsls	r3, r3, #3
	adds	r4, r2, r3
	ldr	r3, [r7, #8]
	ldr	r2, [r3, #12]
	ldrh	r3, [r7, #6]
	lsls	r3, r3, #3
	add	r3, r3, r2
	ldr	r5, [r3]
	ldr	r3, [r7, #12]
	ldr	r3, [r3, #564]
	ldr	r0, [r7]
	ldr	r1, [r7, #20]
	mov	r2, r3
	bl	FT_MulDiv(PLT)
	mov	r3, r0
	add	r3, r3, r5
	str	r3, [r4]
.L636:
	ldr	r3, [r7, #12]
	ldrh	r3, [r3, #300]
	sxth	r3, r3
	str	r3, [r7, #20]
	ldr	r3, [r7, #20]
	cmp	r3, #0
	beq	.L635
	ldr	r3, [r7, #8]
	ldr	r2, [r3, #12]
	ldrh	r3, [r7, #6]
	lsls	r3, r3, #3
	adds	r4, r2, r3
	ldr	r3, [r7, #8]
	ldr	r2, [r3, #12]
	ldrh	r3, [r7, #6]
	lsls	r3, r3, #3
	add	r3, r3, r2
	ldr	r5, [r3, #4]
	ldr	r3, [r7, #12]
	ldr	r3, [r3, #564]
	ldr	r0, [r7]
	ldr	r1, [r7, #20]
	mov	r2, r3
	bl	FT_MulDiv(PLT)
	mov	r3, r0
	add	r3, r3, r5
	str	r3, [r4, #4]
.L635:
	adds	r7, r7, #24
	mov	sp, r7
	@ sp needed
	pop	{r4, r5, r7, pc}
	.size	Direct_Move_Orig, .-Direct_Move_Orig
	.section	.text.Direct_Move_X,"ax",%progbits
	.align	2
	.thumb
	.thumb_func
	.type	Direct_Move_X, %function
Direct_Move_X:
	@ args = 0, pretend = 0, frame = 16
	@ frame_needed = 1, uses_anonymous_args = 0
	@ link register save eliminated.
	push	{r7}
	sub	sp, sp, #20
	add	r7, sp, #0
	str	r0, [r7, #12]
	str	r1, [r7, #8]
	str	r3, [r7]
	mov	r3, r2	@ movhi
	strh	r3, [r7, #6]	@ movhi
	ldr	r3, [r7, #12]
	ldr	r3, [r3]
	ldr	r3, [r3, #96]
	ldr	r3, [r3, #64]
	cmp	r3, #38
	bne	.L639
	ldr	r3, [r7, #12]
	ldrb	r3, [r3, #617]	@ zero_extendqisi2
	cmp	r3, #0
	bne	.L640
.L639:
	ldr	r3, [r7, #8]
	ldr	r2, [r3, #16]
	ldrh	r3, [r7, #6]
	lsls	r3, r3, #3
	add	r3, r3, r2
	ldr	r2, [r7, #8]
	ldr	r1, [r2, #16]
	ldrh	r2, [r7, #6]
	lsls	r2, r2, #3
	add	r2, r2, r1
	ldr	r1, [r2]
	ldr	r2, [r7]
	add	r2, r2, r1
	str	r2, [r3]
.L640:
	ldr	r3, [r7, #8]
	ldr	r2, [r3, #24]
	ldrh	r3, [r7, #6]
	add	r3, r3, r2
	ldr	r2, [r7, #8]
	ldr	r1, [r2, #24]
	ldrh	r2, [r7, #6]
	add	r2, r2, r1
	ldrb	r2, [r2]	@ zero_extendqisi2
	orr	r2, r2, #8
	uxtb	r2, r2
	strb	r2, [r3]
	adds	r7, r7, #20
	mov	sp, r7
	@ sp needed
	ldr	r7, [sp], #4
	bx	lr
	.size	Direct_Move_X, .-Direct_Move_X
	.section	.text.Direct_Move_Y,"ax",%progbits
	.align	2
	.thumb
	.thumb_func
	.type	Direct_Move_Y, %function
Direct_Move_Y:
	@ args = 0, pretend = 0, frame = 16
	@ frame_needed = 1, uses_anonymous_args = 0
	@ link register save eliminated.
	push	{r7}
	sub	sp, sp, #20
	add	r7, sp, #0
	str	r0, [r7, #12]
	str	r1, [r7, #8]
	str	r3, [r7]
	mov	r3, r2	@ movhi
	strh	r3, [r7, #6]	@ movhi
	ldr	r3, [r7, #8]
	ldr	r2, [r3, #16]
	ldrh	r3, [r7, #6]
	lsls	r3, r3, #3
	add	r3, r3, r2
	ldr	r2, [r7, #8]
	ldr	r1, [r2, #16]
	ldrh	r2, [r7, #6]
	lsls	r2, r2, #3
	add	r2, r2, r1
	ldr	r1, [r2, #4]
	ldr	r2, [r7]
	add	r2, r2, r1
	str	r2, [r3, #4]
	ldr	r3, [r7, #8]
	ldr	r2, [r3, #24]
	ldrh	r3, [r7, #6]
	add	r3, r3, r2
	ldr	r2, [r7, #8]
	ldr	r1, [r2, #24]
	ldrh	r2, [r7, #6]
	add	r2, r2, r1
	ldrb	r2, [r2]	@ zero_extendqisi2
	orr	r2, r2, #16
	uxtb	r2, r2
	strb	r2, [r3]
	adds	r7, r7, #20
	mov	sp, r7
	@ sp needed
	ldr	r7, [sp], #4
	bx	lr
	.size	Direct_Move_Y, .-Direct_Move_Y
	.section	.text.Direct_Move_Orig_X,"ax",%progbits
	.align	2
	.thumb
	.thumb_func
	.type	Direct_Move_Orig_X, %function
Direct_Move_Orig_X:
	@ args = 0, pretend = 0, frame = 16
	@ frame_needed = 1, uses_anonymous_args = 0
	@ link register save eliminated.
	push	{r7}
	sub	sp, sp, #20
	add	r7, sp, #0
	str	r0, [r7, #12]
	str	r1, [r7, #8]
	str	r3, [r7]
	mov	r3, r2	@ movhi
	strh	r3, [r7, #6]	@ movhi
	ldr	r3, [r7, #8]
	ldr	r2, [r3, #12]
	ldrh	r3, [r7, #6]
	lsls	r3, r3, #3
	add	r3, r3, r2
	ldr	r2, [r7, #8]
	ldr	r1, [r2, #12]
	ldrh	r2, [r7, #6]
	lsls	r2, r2, #3
	add	r2, r2, r1
	ldr	r1, [r2]
	ldr	r2, [r7]
	add	r2, r2, r1
	str	r2, [r3]
	adds	r7, r7, #20
	mov	sp, r7
	@ sp needed
	ldr	r7, [sp], #4
	bx	lr
	.size	Direct_Move_Orig_X, .-Direct_Move_Orig_X
	.section	.text.Direct_Move_Orig_Y,"ax",%progbits
	.align	2
	.thumb
	.thumb_func
	.type	Direct_Move_Orig_Y, %function
Direct_Move_Orig_Y:
	@ args = 0, pretend = 0, frame = 16
	@ frame_needed = 1, uses_anonymous_args = 0
	@ link register save eliminated.
	push	{r7}
	sub	sp, sp, #20
	add	r7, sp, #0
	str	r0, [r7, #12]
	str	r1, [r7, #8]
	str	r3, [r7]
	mov	r3, r2	@ movhi
	strh	r3, [r7, #6]	@ movhi
	ldr	r3, [r7, #8]
	ldr	r2, [r3, #12]
	ldrh	r3, [r7, #6]
	lsls	r3, r3, #3
	add	r3, r3, r2
	ldr	r2, [r7, #8]
	ldr	r1, [r2, #12]
	ldrh	r2, [r7, #6]
	lsls	r2, r2, #3
	add	r2, r2, r1
	ldr	r1, [r2, #4]
	ldr	r2, [r7]
	add	r2, r2, r1
	str	r2, [r3, #4]
	adds	r7, r7, #20
	mov	sp, r7
	@ sp needed
	ldr	r7, [sp], #4
	bx	lr
	.size	Direct_Move_Orig_Y, .-Direct_Move_Orig_Y
	.section	.text.Round_None,"ax",%progbits
	.align	2
	.thumb
	.thumb_func
	.type	Round_None, %function
Round_None:
	@ args = 0, pretend = 0, frame = 24
	@ frame_needed = 1, uses_anonymous_args = 0
	@ link register save eliminated.
	push	{r7}
	sub	sp, sp, #28
	add	r7, sp, #0
	str	r0, [r7, #12]
	str	r1, [r7, #8]
	str	r2, [r7, #4]
	ldr	r3, [r7, #8]
	cmp	r3, #0
	blt	.L645
	ldr	r2, [r7, #8]
	ldr	r3, [r7, #4]
	add	r3, r3, r2
	str	r3, [r7, #20]
	ldr	r3, [r7, #20]
	cmp	r3, #0
	bge	.L647
	movs	r3, #0
	str	r3, [r7, #20]
	b	.L647
.L645:
	ldr	r2, [r7, #8]
	ldr	r3, [r7, #4]
	subs	r3, r2, r3
	str	r3, [r7, #20]
	ldr	r3, [r7, #20]
	cmp	r3, #0
	ble	.L647
	movs	r3, #0
	str	r3, [r7, #20]
.L647:
	ldr	r3, [r7, #20]
	mov	r0, r3
	adds	r7, r7, #28
	mov	sp, r7
	@ sp needed
	ldr	r7, [sp], #4
	bx	lr
	.size	Round_None, .-Round_None
	.section	.text.Round_To_Grid,"ax",%progbits
	.align	2
	.thumb
	.thumb_func
	.type	Round_To_Grid, %function
Round_To_Grid:
	@ args = 0, pretend = 0, frame = 24
	@ frame_needed = 1, uses_anonymous_args = 0
	@ link register save eliminated.
	push	{r7}
	sub	sp, sp, #28
	add	r7, sp, #0
	str	r0, [r7, #12]
	str	r1, [r7, #8]
	str	r2, [r7, #4]
	ldr	r3, [r7, #8]
	cmp	r3, #0
	blt	.L650
	ldr	r2, [r7, #8]
	ldr	r3, [r7, #4]
	add	r3, r3, r2
	adds	r3, r3, #32
	bic	r3, r3, #63
	str	r3, [r7, #20]
	ldr	r3, [r7, #20]
	cmp	r3, #0
	bge	.L652
	movs	r3, #0
	str	r3, [r7, #20]
	b	.L652
.L650:
	ldr	r2, [r7, #4]
	ldr	r3, [r7, #8]
	subs	r3, r2, r3
	adds	r3, r3, #32
	bic	r3, r3, #63
	negs	r3, r3
	str	r3, [r7, #20]
	ldr	r3, [r7, #20]
	cmp	r3, #0
	ble	.L652
	movs	r3, #0
	str	r3, [r7, #20]
.L652:
	ldr	r3, [r7, #20]
	mov	r0, r3
	adds	r7, r7, #28
	mov	sp, r7
	@ sp needed
	ldr	r7, [sp], #4
	bx	lr
	.size	Round_To_Grid, .-Round_To_Grid
	.section	.text.Round_To_Half_Grid,"ax",%progbits
	.align	2
	.thumb
	.thumb_func
	.type	Round_To_Half_Grid, %function
Round_To_Half_Grid:
	@ args = 0, pretend = 0, frame = 24
	@ frame_needed = 1, uses_anonymous_args = 0
	@ link register save eliminated.
	push	{r7}
	sub	sp, sp, #28
	add	r7, sp, #0
	str	r0, [r7, #12]
	str	r1, [r7, #8]
	str	r2, [r7, #4]
	ldr	r3, [r7, #8]
	cmp	r3, #0
	blt	.L655
	ldr	r2, [r7, #8]
	ldr	r3, [r7, #4]
	add	r3, r3, r2
	bic	r3, r3, #63
	adds	r3, r3, #32
	str	r3, [r7, #20]
	ldr	r3, [r7, #20]
	cmp	r3, #0
	bge	.L657
	movs	r3, #32
	str	r3, [r7, #20]
	b	.L657
.L655:
	ldr	r2, [r7, #4]
	ldr	r3, [r7, #8]
	subs	r3, r2, r3
	bic	r2, r3, #63
	movw	r3, #65504
	movt	r3, 65535
	subs	r3, r3, r2
	str	r3, [r7, #20]
	ldr	r3, [r7, #20]
	cmp	r3, #0
	ble	.L657
	mvn	r3, #31
	str	r3, [r7, #20]
.L657:
	ldr	r3, [r7, #20]
	mov	r0, r3
	adds	r7, r7, #28
	mov	sp, r7
	@ sp needed
	ldr	r7, [sp], #4
	bx	lr
	.size	Round_To_Half_Grid, .-Round_To_Half_Grid
	.section	.text.Round_Down_To_Grid,"ax",%progbits
	.align	2
	.thumb
	.thumb_func
	.type	Round_Down_To_Grid, %function
Round_Down_To_Grid:
	@ args = 0, pretend = 0, frame = 24
	@ frame_needed = 1, uses_anonymous_args = 0
	@ link register save eliminated.
	push	{r7}
	sub	sp, sp, #28
	add	r7, sp, #0
	str	r0, [r7, #12]
	str	r1, [r7, #8]
	str	r2, [r7, #4]
	ldr	r3, [r7, #8]
	cmp	r3, #0
	blt	.L660
	ldr	r2, [r7, #8]
	ldr	r3, [r7, #4]
	add	r3, r3, r2
	bic	r3, r3, #63
	str	r3, [r7, #20]
	ldr	r3, [r7, #20]
	cmp	r3, #0
	bge	.L662
	movs	r3, #0
	str	r3, [r7, #20]
	b	.L662
.L660:
	ldr	r2, [r7, #4]
	ldr	r3, [r7, #8]
	subs	r3, r2, r3
	bic	r3, r3, #63
	negs	r3, r3
	str	r3, [r7, #20]
	ldr	r3, [r7, #20]
	cmp	r3, #0
	ble	.L662
	movs	r3, #0
	str	r3, [r7, #20]
.L662:
	ldr	r3, [r7, #20]
	mov	r0, r3
	adds	r7, r7, #28
	mov	sp, r7
	@ sp needed
	ldr	r7, [sp], #4
	bx	lr
	.size	Round_Down_To_Grid, .-Round_Down_To_Grid
	.section	.text.Round_Up_To_Grid,"ax",%progbits
	.align	2
	.thumb
	.thumb_func
	.type	Round_Up_To_Grid, %function
Round_Up_To_Grid:
	@ args = 0, pretend = 0, frame = 24
	@ frame_needed = 1, uses_anonymous_args = 0
	@ link register save eliminated.
	push	{r7}
	sub	sp, sp, #28
	add	r7, sp, #0
	str	r0, [r7, #12]
	str	r1, [r7, #8]
	str	r2, [r7, #4]
	ldr	r3, [r7, #8]
	cmp	r3, #0
	blt	.L665
	ldr	r2, [r7, #8]
	ldr	r3, [r7, #4]
	add	r3, r3, r2
	adds	r3, r3, #63
	bic	r3, r3, #63
	str	r3, [r7, #20]
	ldr	r3, [r7, #20]
	cmp	r3, #0
	bge	.L667
	movs	r3, #0
	str	r3, [r7, #20]
	b	.L667
.L665:
	ldr	r2, [r7, #4]
	ldr	r3, [r7, #8]
	subs	r3, r2, r3
	adds	r3, r3, #63
	bic	r3, r3, #63
	negs	r3, r3
	str	r3, [r7, #20]
	ldr	r3, [r7, #20]
	cmp	r3, #0
	ble	.L667
	movs	r3, #0
	str	r3, [r7, #20]
.L667:
	ldr	r3, [r7, #20]
	mov	r0, r3
	adds	r7, r7, #28
	mov	sp, r7
	@ sp needed
	ldr	r7, [sp], #4
	bx	lr
	.size	Round_Up_To_Grid, .-Round_Up_To_Grid
	.section	.text.Round_To_Double_Grid,"ax",%progbits
	.align	2
	.thumb
	.thumb_func
	.type	Round_To_Double_Grid, %function
Round_To_Double_Grid:
	@ args = 0, pretend = 0, frame = 24
	@ frame_needed = 1, uses_anonymous_args = 0
	@ link register save eliminated.
	push	{r7}
	sub	sp, sp, #28
	add	r7, sp, #0
	str	r0, [r7, #12]
	str	r1, [r7, #8]
	str	r2, [r7, #4]
	ldr	r3, [r7, #8]
	cmp	r3, #0
	blt	.L670
	ldr	r2, [r7, #8]
	ldr	r3, [r7, #4]
	add	r3, r3, r2
	adds	r3, r3, #16
	bic	r3, r3, #31
	str	r3, [r7, #20]
	ldr	r3, [r7, #20]
	cmp	r3, #0
	bge	.L672
	movs	r3, #0
	str	r3, [r7, #20]
	b	.L672
.L670:
	ldr	r2, [r7, #4]
	ldr	r3, [r7, #8]
	subs	r3, r2, r3
	adds	r3, r3, #16
	bic	r3, r3, #31
	negs	r3, r3
	str	r3, [r7, #20]
	ldr	r3, [r7, #20]
	cmp	r3, #0
	ble	.L672
	movs	r3, #0
	str	r3, [r7, #20]
.L672:
	ldr	r3, [r7, #20]
	mov	r0, r3
	adds	r7, r7, #28
	mov	sp, r7
	@ sp needed
	ldr	r7, [sp], #4
	bx	lr
	.size	Round_To_Double_Grid, .-Round_To_Double_Grid
	.section	.text.Round_Super,"ax",%progbits
	.align	2
	.thumb
	.thumb_func
	.type	Round_Super, %function
Round_Super:
	@ args = 0, pretend = 0, frame = 24
	@ frame_needed = 1, uses_anonymous_args = 0
	@ link register save eliminated.
	push	{r7}
	sub	sp, sp, #28
	add	r7, sp, #0
	str	r0, [r7, #12]
	str	r1, [r7, #8]
	str	r2, [r7, #4]
	ldr	r3, [r7, #8]
	cmp	r3, #0
	blt	.L675
	ldr	r3, [r7, #12]
	ldr	r3, [r3, #480]
	ldr	r2, [r7, #8]
	subs	r2, r2, r3
	ldr	r3, [r7, #12]
	ldr	r3, [r3, #484]
	add	r2, r2, r3
	ldr	r3, [r7, #4]
	add	r2, r2, r3
	ldr	r3, [r7, #12]
	ldr	r3, [r3, #476]
	negs	r3, r3
	ands	r3, r3, r2
	str	r3, [r7, #20]
	ldr	r3, [r7, #12]
	ldr	r3, [r3, #480]
	ldr	r2, [r7, #20]
	add	r3, r3, r2
	str	r3, [r7, #20]
	ldr	r3, [r7, #20]
	cmp	r3, #0
	bge	.L677
	ldr	r3, [r7, #12]
	ldr	r3, [r3, #480]
	str	r3, [r7, #20]
	b	.L677
.L675:
	ldr	r3, [r7, #12]
	ldr	r2, [r3, #484]
	ldr	r3, [r7, #12]
	ldr	r3, [r3, #480]
	subs	r2, r2, r3
	ldr	r3, [r7, #8]
	subs	r2, r2, r3
	ldr	r3, [r7, #4]
	add	r2, r2, r3
	ldr	r3, [r7, #12]
	ldr	r3, [r3, #476]
	negs	r3, r3
	ands	r3, r3, r2
	negs	r3, r3
	str	r3, [r7, #20]
	ldr	r3, [r7, #12]
	ldr	r3, [r3, #480]
	ldr	r2, [r7, #20]
	subs	r3, r2, r3
	str	r3, [r7, #20]
	ldr	r3, [r7, #20]
	cmp	r3, #0
	ble	.L677
	ldr	r3, [r7, #12]
	ldr	r3, [r3, #480]
	negs	r3, r3
	str	r3, [r7, #20]
.L677:
	ldr	r3, [r7, #20]
	mov	r0, r3
	adds	r7, r7, #28
	mov	sp, r7
	@ sp needed
	ldr	r7, [sp], #4
	bx	lr
	.size	Round_Super, .-Round_Super
	.global	__aeabi_idiv
	.section	.text.Round_Super_45,"ax",%progbits
	.align	2
	.thumb
	.thumb_func
	.type	Round_Super_45, %function
Round_Super_45:
	@ args = 0, pretend = 0, frame = 24
	@ frame_needed = 1, uses_anonymous_args = 0
	push	{r7, lr}
	sub	sp, sp, #24
	add	r7, sp, #0
	str	r0, [r7, #12]
	str	r1, [r7, #8]
	str	r2, [r7, #4]
	ldr	r3, [r7, #8]
	cmp	r3, #0
	blt	.L680
	ldr	r3, [r7, #12]
	ldr	r3, [r3, #480]
	ldr	r2, [r7, #8]
	subs	r2, r2, r3
	ldr	r3, [r7, #12]
	ldr	r3, [r3, #484]
	add	r2, r2, r3
	ldr	r3, [r7, #4]
	add	r2, r2, r3
	ldr	r3, [r7, #12]
	ldr	r3, [r3, #476]
	mov	r0, r2
	mov	r1, r3
	bl	__aeabi_idiv(PLT)
	mov	r3, r0
	ldr	r2, [r7, #12]
	ldr	r2, [r2, #476]
	mul	r3, r2, r3
	str	r3, [r7, #20]
	ldr	r3, [r7, #12]
	ldr	r3, [r3, #480]
	ldr	r2, [r7, #20]
	add	r3, r3, r2
	str	r3, [r7, #20]
	ldr	r3, [r7, #20]
	cmp	r3, #0
	bge	.L682
	ldr	r3, [r7, #12]
	ldr	r3, [r3, #480]
	str	r3, [r7, #20]
	b	.L682
.L680:
	ldr	r3, [r7, #12]
	ldr	r2, [r3, #484]
	ldr	r3, [r7, #12]
	ldr	r3, [r3, #480]
	subs	r2, r2, r3
	ldr	r3, [r7, #8]
	subs	r2, r2, r3
	ldr	r3, [r7, #4]
	add	r2, r2, r3
	ldr	r3, [r7, #12]
	ldr	r3, [r3, #476]
	mov	r0, r2
	mov	r1, r3
	bl	__aeabi_idiv(PLT)
	mov	r3, r0
	ldr	r2, [r7, #12]
	ldr	r2, [r2, #476]
	mul	r3, r2, r3
	negs	r3, r3
	str	r3, [r7, #20]
	ldr	r3, [r7, #12]
	ldr	r3, [r3, #480]
	ldr	r2, [r7, #20]
	subs	r3, r2, r3
	str	r3, [r7, #20]
	ldr	r3, [r7, #20]
	cmp	r3, #0
	ble	.L682
	ldr	r3, [r7, #12]
	ldr	r3, [r3, #480]
	negs	r3, r3
	str	r3, [r7, #20]
.L682:
	ldr	r3, [r7, #20]
	mov	r0, r3
	adds	r7, r7, #24
	mov	sp, r7
	@ sp needed
	pop	{r7, pc}
	.size	Round_Super_45, .-Round_Super_45
	.section	.text.Compute_Round,"ax",%progbits
	.align	2
	.thumb
	.thumb_func
	.type	Compute_Round, %function
Compute_Round:
	@ args = 0, pretend = 0, frame = 8
	@ frame_needed = 1, uses_anonymous_args = 0
	@ link register save eliminated.
	push	{r7}
	sub	sp, sp, #12
	add	r7, sp, #0
	str	r0, [r7, #4]
	mov	r3, r1
	strb	r3, [r7, #3]
	ldrb	r3, [r7, #3]	@ zero_extendqisi2
	cmp	r3, #7
	bhi	.L684
	adr	r1, .L687
	ldr	r2, [r1, r3, lsl #2]
	add	r1, r1, r2
	bx	r1
	.p2align 2
.L687:
	.word	.L686+1-.L687
	.word	.L688+1-.L687
	.word	.L689+1-.L687
	.word	.L690+1-.L687
	.word	.L691+1-.L687
	.word	.L692+1-.L687
	.word	.L693+1-.L687
	.word	.L694+1-.L687
.L692:
	ldr	r3, [r7, #4]
	ldr	r2, .L695
.LPIC22:
	add	r2, pc
	str	r2, [r3, #568]
	b	.L684
.L688:
	ldr	r3, [r7, #4]
	ldr	r2, .L695+4
.LPIC23:
	add	r2, pc
	str	r2, [r3, #568]
	b	.L684
.L691:
	ldr	r3, [r7, #4]
	ldr	r2, .L695+8
.LPIC24:
	add	r2, pc
	str	r2, [r3, #568]
	b	.L684
.L690:
	ldr	r3, [r7, #4]
	ldr	r2, .L695+12
.LPIC25:
	add	r2, pc
	str	r2, [r3, #568]
	b	.L684
.L686:
	ldr	r3, [r7, #4]
	ldr	r2, .L695+16
.LPIC26:
	add	r2, pc
	str	r2, [r3, #568]
	b	.L684
.L689:
	ldr	r3, [r7, #4]
	ldr	r2, .L695+20
.LPIC27:
	add	r2, pc
	str	r2, [r3, #568]
	b	.L684
.L693:
	ldr	r3, [r7, #4]
	ldr	r2, .L695+24
.LPIC28:
	add	r2, pc
	str	r2, [r3, #568]
	b	.L684
.L694:
	ldr	r3, [r7, #4]
	ldr	r2, .L695+28
.LPIC29:
	add	r2, pc
	str	r2, [r3, #568]
	nop
.L684:
	adds	r7, r7, #12
	mov	sp, r7
	@ sp needed
	ldr	r7, [sp], #4
	bx	lr
.L696:
	.align	2
.L695:
	.word	Round_None-(.LPIC22+4)
	.word	Round_To_Grid-(.LPIC23+4)
	.word	Round_Up_To_Grid-(.LPIC24+4)
	.word	Round_Down_To_Grid-(.LPIC25+4)
	.word	Round_To_Half_Grid-(.LPIC26+4)
	.word	Round_To_Double_Grid-(.LPIC27+4)
	.word	Round_Super-(.LPIC28+4)
	.word	Round_Super_45-(.LPIC29+4)
	.size	Compute_Round, .-Compute_Round
	.section	.text.SetSuperRound,"ax",%progbits
	.align	2
	.thumb
	.thumb_func
	.type	SetSuperRound, %function
SetSuperRound:
	@ args = 0, pretend = 0, frame = 16
	@ frame_needed = 1, uses_anonymous_args = 0
	@ link register save eliminated.
	push	{r7}
	sub	sp, sp, #20
	add	r7, sp, #0
	str	r0, [r7, #12]
	mov	r3, r1
	str	r2, [r7, #4]
	strh	r3, [r7, #10]	@ movhi
	ldr	r3, [r7, #4]
	and	r3, r3, #192
	cmp	r3, #64
	beq	.L699
	cmp	r3, #64
	bgt	.L700
	cmp	r3, #0
	beq	.L701
	b	.L698
.L700:
	cmp	r3, #128
	beq	.L702
	cmp	r3, #192
	beq	.L703
	b	.L698
.L701:
	ldrsh	r3, [r7, #10]
	lsrs	r2, r3, #31
	add	r3, r3, r2
	asrs	r3, r3, #1
	uxth	r3, r3
	sxth	r2, r3
	ldr	r3, [r7, #12]
	str	r2, [r3, #476]
	b	.L698
.L699:
	ldrsh	r2, [r7, #10]
	ldr	r3, [r7, #12]
	str	r2, [r3, #476]
	b	.L698
.L702:
	ldrsh	r3, [r7, #10]
	lsls	r2, r3, #1
	ldr	r3, [r7, #12]
	str	r2, [r3, #476]
	b	.L698
.L703:
	ldrsh	r2, [r7, #10]
	ldr	r3, [r7, #12]
	str	r2, [r3, #476]
	nop
.L698:
	ldr	r3, [r7, #4]
	and	r3, r3, #48
	cmp	r3, #16
	beq	.L705
	cmp	r3, #16
	bgt	.L706
	cmp	r3, #0
	beq	.L707
	b	.L704
.L706:
	cmp	r3, #32
	beq	.L708
	cmp	r3, #48
	beq	.L709
	b	.L704
.L707:
	ldr	r3, [r7, #12]
	movs	r2, #0
	str	r2, [r3, #480]
	b	.L704
.L705:
	ldr	r3, [r7, #12]
	ldr	r3, [r3, #476]
	adds	r2, r3, #3
	cmp	r3, #0
	ite	lt
	movlt	r3, r2
	movge	r3, r3
	asrs	r3, r3, #2
	mov	r2, r3
	ldr	r3, [r7, #12]
	str	r2, [r3, #480]
	b	.L704
.L708:
	ldr	r3, [r7, #12]
	ldr	r3, [r3, #476]
	lsrs	r2, r3, #31
	add	r3, r3, r2
	asrs	r3, r3, #1
	mov	r2, r3
	ldr	r3, [r7, #12]
	str	r2, [r3, #480]
	b	.L704
.L709:
	ldr	r3, [r7, #12]
	ldr	r2, [r3, #476]
	mov	r3, r2
	lsls	r3, r3, #1
	add	r3, r3, r2
	adds	r2, r3, #3
	cmp	r3, #0
	ite	lt
	movlt	r3, r2
	movge	r3, r3
	asrs	r3, r3, #2
	mov	r2, r3
	ldr	r3, [r7, #12]
	str	r2, [r3, #480]
	nop
.L704:
	ldr	r3, [r7, #4]
	and	r3, r3, #15
	cmp	r3, #0
	bne	.L710
	ldr	r3, [r7, #12]
	ldr	r3, [r3, #476]
	subs	r2, r3, #1
	ldr	r3, [r7, #12]
	str	r2, [r3, #484]
	b	.L711
.L710:
	ldr	r3, [r7, #4]
	and	r3, r3, #15
	subs	r3, r3, #4
	ldr	r2, [r7, #12]
	ldr	r2, [r2, #476]
	mul	r3, r2, r3
	adds	r2, r3, #7
	cmp	r3, #0
	ite	lt
	movlt	r3, r2
	movge	r3, r3
	asrs	r3, r3, #3
	mov	r2, r3
	ldr	r3, [r7, #12]
	str	r2, [r3, #484]
.L711:
	ldr	r3, [r7, #12]
	ldr	r3, [r3, #476]
	asrs	r2, r3, #8
	ldr	r3, [r7, #12]
	str	r2, [r3, #476]
	ldr	r3, [r7, #12]
	ldr	r3, [r3, #480]
	asrs	r2, r3, #8
	ldr	r3, [r7, #12]
	str	r2, [r3, #480]
	ldr	r3, [r7, #12]
	ldr	r3, [r3, #484]
	asrs	r2, r3, #8
	ldr	r3, [r7, #12]
	str	r2, [r3, #484]
	adds	r7, r7, #20
	mov	sp, r7
	@ sp needed
	ldr	r7, [sp], #4
	bx	lr
	.size	SetSuperRound, .-SetSuperRound
	.section	.text.Project,"ax",%progbits
	.align	2
	.thumb
	.thumb_func
	.type	Project, %function
Project:
	@ args = 0, pretend = 0, frame = 16
	@ frame_needed = 1, uses_anonymous_args = 0
	push	{r7, lr}
	sub	sp, sp, #16
	add	r7, sp, #0
	str	r0, [r7, #12]
	str	r1, [r7, #8]
	str	r2, [r7, #4]
	ldr	r3, [r7, #12]
	ldrh	r3, [r3, #294]
	sxth	r2, r3
	ldr	r3, [r7, #12]
	ldrh	r3, [r3, #296]
	sxth	r3, r3
	ldr	r0, [r7, #8]
	ldr	r1, [r7, #4]
	bl	TT_DotFix14_long_long(PLT)
	mov	r3, r0
	mov	r0, r3
	adds	r7, r7, #16
	mov	sp, r7
	@ sp needed
	pop	{r7, pc}
	.size	Project, .-Project
	.section	.text.Dual_Project,"ax",%progbits
	.align	2
	.thumb
	.thumb_func
	.type	Dual_Project, %function
Dual_Project:
	@ args = 0, pretend = 0, frame = 16
	@ frame_needed = 1, uses_anonymous_args = 0
	push	{r7, lr}
	sub	sp, sp, #16
	add	r7, sp, #0
	str	r0, [r7, #12]
	str	r1, [r7, #8]
	str	r2, [r7, #4]
	ldr	r3, [r7, #12]
	ldrh	r3, [r3, #290]
	sxth	r2, r3
	ldr	r3, [r7, #12]
	ldrh	r3, [r3, #292]
	sxth	r3, r3
	ldr	r0, [r7, #8]
	ldr	r1, [r7, #4]
	bl	TT_DotFix14_long_long(PLT)
	mov	r3, r0
	mov	r0, r3
	adds	r7, r7, #16
	mov	sp, r7
	@ sp needed
	pop	{r7, pc}
	.size	Dual_Project, .-Dual_Project
	.section	.text.Project_x,"ax",%progbits
	.align	2
	.thumb
	.thumb_func
	.type	Project_x, %function
Project_x:
	@ args = 0, pretend = 0, frame = 16
	@ frame_needed = 1, uses_anonymous_args = 0
	@ link register save eliminated.
	push	{r7}
	sub	sp, sp, #20
	add	r7, sp, #0
	str	r0, [r7, #12]
	str	r1, [r7, #8]
	str	r2, [r7, #4]
	ldr	r3, [r7, #8]
	mov	r0, r3
	adds	r7, r7, #20
	mov	sp, r7
	@ sp needed
	ldr	r7, [sp], #4
	bx	lr
	.size	Project_x, .-Project_x
	.section	.text.Project_y,"ax",%progbits
	.align	2
	.thumb
	.thumb_func
	.type	Project_y, %function
Project_y:
	@ args = 0, pretend = 0, frame = 16
	@ frame_needed = 1, uses_anonymous_args = 0
	@ link register save eliminated.
	push	{r7}
	sub	sp, sp, #20
	add	r7, sp, #0
	str	r0, [r7, #12]
	str	r1, [r7, #8]
	str	r2, [r7, #4]
	ldr	r3, [r7, #4]
	mov	r0, r3
	adds	r7, r7, #20
	mov	sp, r7
	@ sp needed
	ldr	r7, [sp], #4
	bx	lr
	.size	Project_y, .-Project_y
	.section	.text.Compute_Funcs,"ax",%progbits
	.align	2
	.thumb
	.thumb_func
	.type	Compute_Funcs, %function
Compute_Funcs:
	@ args = 0, pretend = 0, frame = 8
	@ frame_needed = 1, uses_anonymous_args = 0
	@ link register save eliminated.
	push	{r7}
	sub	sp, sp, #12
	add	r7, sp, #0
	str	r0, [r7, #4]
	ldr	r3, [r7, #4]
	ldrh	r3, [r3, #298]
	sxth	r3, r3
	cmp	r3, #16384
	bne	.L721
	ldr	r3, [r7, #4]
	ldrh	r3, [r3, #294]
	sxth	r2, r3
	ldr	r3, [r7, #4]
	str	r2, [r3, #564]
	b	.L722
.L721:
	ldr	r3, [r7, #4]
	ldrh	r3, [r3, #300]
	sxth	r3, r3
	cmp	r3, #16384
	bne	.L723
	ldr	r3, [r7, #4]
	ldrh	r3, [r3, #296]
	sxth	r2, r3
	ldr	r3, [r7, #4]
	str	r2, [r3, #564]
	b	.L722
.L723:
	ldr	r3, [r7, #4]
	ldrh	r3, [r3, #294]
	sxth	r3, r3
	ldr	r2, [r7, #4]
	ldrh	r2, [r2, #298]
	sxth	r2, r2
	mul	r2, r2, r3
	ldr	r3, [r7, #4]
	ldrh	r3, [r3, #296]
	sxth	r3, r3
	ldr	r1, [r7, #4]
	ldrh	r1, [r1, #300]
	sxth	r1, r1
	mul	r3, r1, r3
	add	r3, r3, r2
	asrs	r2, r3, #14
	ldr	r3, [r7, #4]
	str	r2, [r3, #564]
.L722:
	ldr	r3, [r7, #4]
	ldrh	r3, [r3, #294]
	sxth	r3, r3
	cmp	r3, #16384
	bne	.L724
	ldr	r3, [r7, #4]
	ldr	r2, .L733
.LPIC30:
	add	r2, pc
	str	r2, [r3, #572]
	b	.L725
.L724:
	ldr	r3, [r7, #4]
	ldrh	r3, [r3, #296]
	sxth	r3, r3
	cmp	r3, #16384
	bne	.L726
	ldr	r3, [r7, #4]
	ldr	r2, .L733+4
.LPIC31:
	add	r2, pc
	str	r2, [r3, #572]
	b	.L725
.L726:
	ldr	r3, [r7, #4]
	ldr	r2, .L733+8
.LPIC32:
	add	r2, pc
	str	r2, [r3, #572]
.L725:
	ldr	r3, [r7, #4]
	ldrh	r3, [r3, #290]
	sxth	r3, r3
	cmp	r3, #16384
	bne	.L727
	ldr	r3, [r7, #4]
	ldr	r2, .L733+12
.LPIC33:
	add	r2, pc
	str	r2, [r3, #576]
	b	.L728
.L727:
	ldr	r3, [r7, #4]
	ldrh	r3, [r3, #292]
	sxth	r3, r3
	cmp	r3, #16384
	bne	.L729
	ldr	r3, [r7, #4]
	ldr	r2, .L733+16
.LPIC34:
	add	r2, pc
	str	r2, [r3, #576]
	b	.L728
.L729:
	ldr	r3, [r7, #4]
	ldr	r2, .L733+20
.LPIC35:
	add	r2, pc
	str	r2, [r3, #576]
.L728:
	ldr	r3, [r7, #4]
	ldr	r2, .L733+24
.LPIC36:
	add	r2, pc
	str	r2, [r3, #584]
	ldr	r3, [r7, #4]
	ldr	r2, .L733+28
.LPIC37:
	add	r2, pc
	str	r2, [r3, #588]
	ldr	r3, [r7, #4]
	ldr	r3, [r3, #564]
	cmp	r3, #16384
	bne	.L730
	ldr	r3, [r7, #4]
	ldrh	r3, [r3, #298]
	sxth	r3, r3
	cmp	r3, #16384
	bne	.L731
	ldr	r3, [r7, #4]
	ldr	r2, .L733+32
.LPIC38:
	add	r2, pc
	str	r2, [r3, #584]
	ldr	r3, [r7, #4]
	ldr	r2, .L733+36
.LPIC39:
	add	r2, pc
	str	r2, [r3, #588]
	b	.L730
.L731:
	ldr	r3, [r7, #4]
	ldrh	r3, [r3, #300]
	sxth	r3, r3
	cmp	r3, #16384
	bne	.L730
	ldr	r3, [r7, #4]
	ldr	r2, .L733+40
.LPIC40:
	add	r2, pc
	str	r2, [r3, #584]
	ldr	r3, [r7, #4]
	ldr	r2, .L733+44
.LPIC41:
	add	r2, pc
	str	r2, [r3, #588]
.L730:
	ldr	r3, [r7, #4]
	ldr	r3, [r3, #564]
	cmn	r3, #1024
	ble	.L732
	ldr	r3, [r7, #4]
	ldr	r3, [r3, #564]
	cmp	r3, #1024
	bge	.L732
	ldr	r3, [r7, #4]
	mov	r2, #16384
	str	r2, [r3, #564]
.L732:
	ldr	r3, [r7, #4]
	movs	r2, #0
	str	r2, [r3, #256]
	adds	r7, r7, #12
	mov	sp, r7
	@ sp needed
	ldr	r7, [sp], #4
	bx	lr
.L734:
	.align	2
.L733:
	.word	Project_x-(.LPIC30+4)
	.word	Project_y-(.LPIC31+4)
	.word	Project-(.LPIC32+4)
	.word	Project_x-(.LPIC33+4)
	.word	Project_y-(.LPIC34+4)
	.word	Dual_Project-(.LPIC35+4)
	.word	Direct_Move-(.LPIC36+4)
	.word	Direct_Move_Orig-(.LPIC37+4)
	.word	Direct_Move_X-(.LPIC38+4)
	.word	Direct_Move_Orig_X-(.LPIC39+4)
	.word	Direct_Move_Y-(.LPIC40+4)
	.word	Direct_Move_Orig_Y-(.LPIC41+4)
	.size	Compute_Funcs, .-Compute_Funcs
	.section	.text.Normalize,"ax",%progbits
	.align	2
	.thumb
	.thumb_func
	.type	Normalize, %function
Normalize:
	@ args = 0, pretend = 0, frame = 24
	@ frame_needed = 1, uses_anonymous_args = 0
	push	{r7, lr}
	sub	sp, sp, #24
	add	r7, sp, #0
	str	r0, [r7, #12]
	str	r1, [r7, #8]
	str	r2, [r7, #4]
	ldr	r3, [r7, #12]
	cmp	r3, #0
	bne	.L736
	ldr	r3, [r7, #8]
	cmp	r3, #0
	bne	.L736
	movs	r3, #0
	b	.L738
.L736:
	ldr	r3, [r7, #12]
	str	r3, [r7, #16]
	ldr	r3, [r7, #8]
	str	r3, [r7, #20]
	add	r3, r7, #16
	mov	r0, r3
	bl	FT_Vector_NormLen(PLT)
	ldr	r3, [r7, #16]
	adds	r2, r3, #3
	cmp	r3, #0
	ite	lt
	movlt	r3, r2
	movge	r3, r3
	asrs	r3, r3, #2
	uxth	r2, r3
	ldr	r3, [r7, #4]
	strh	r2, [r3]	@ movhi
	ldr	r3, [r7, #20]
	adds	r2, r3, #3
	cmp	r3, #0
	ite	lt
	movlt	r3, r2
	movge	r3, r3
	asrs	r3, r3, #2
	uxth	r2, r3
	ldr	r3, [r7, #4]
	strh	r2, [r3, #2]	@ movhi
	movs	r3, #0
.L738:
	mov	r0, r3
	adds	r7, r7, #24
	mov	sp, r7
	@ sp needed
	pop	{r7, pc}
	.size	Normalize, .-Normalize
	.section	.text.Ins_MPPEM,"ax",%progbits
	.align	2
	.thumb
	.thumb_func
	.type	Ins_MPPEM, %function
Ins_MPPEM:
	@ args = 0, pretend = 0, frame = 8
	@ frame_needed = 1, uses_anonymous_args = 0
	push	{r7, lr}
	sub	sp, sp, #8
	add	r7, sp, #0
	str	r0, [r7, #4]
	str	r1, [r7]
	ldr	r3, [r7, #4]
	ldr	r3, [r3, #592]
	ldr	r0, [r7, #4]
	blx	r3
	mov	r2, r0
	ldr	r3, [r7]
	str	r2, [r3]
	adds	r7, r7, #8
	mov	sp, r7
	@ sp needed
	pop	{r7, pc}
	.size	Ins_MPPEM, .-Ins_MPPEM
	.section	.text.Ins_MPS,"ax",%progbits
	.align	2
	.thumb
	.thumb_func
	.type	Ins_MPS, %function
Ins_MPS:
	@ args = 0, pretend = 0, frame = 8
	@ frame_needed = 1, uses_anonymous_args = 0
	push	{r7, lr}
	sub	sp, sp, #8
	add	r7, sp, #0
	str	r0, [r7, #4]
	str	r1, [r7]
	ldr	r3, [r7, #4]
	ldr	r3, [r3, #592]
	ldr	r0, [r7, #4]
	blx	r3
	mov	r2, r0
	ldr	r3, [r7]
	str	r2, [r3]
	adds	r7, r7, #8
	mov	sp, r7
	@ sp needed
	pop	{r7, pc}
	.size	Ins_MPS, .-Ins_MPS
	.section	.text.Ins_DUP,"ax",%progbits
	.align	2
	.thumb
	.thumb_func
	.type	Ins_DUP, %function
Ins_DUP:
	@ args = 0, pretend = 0, frame = 8
	@ frame_needed = 1, uses_anonymous_args = 0
	@ link register save eliminated.
	push	{r7}
	sub	sp, sp, #12
	add	r7, sp, #0
	str	r0, [r7, #4]
	ldr	r3, [r7, #4]
	adds	r3, r3, #4
	ldr	r2, [r7, #4]
	ldr	r2, [r2]
	str	r2, [r3]
	adds	r7, r7, #12
	mov	sp, r7
	@ sp needed
	ldr	r7, [sp], #4
	bx	lr
	.size	Ins_DUP, .-Ins_DUP
	.section	.text.Ins_POP,"ax",%progbits
	.align	2
	.thumb
	.thumb_func
	.type	Ins_POP, %function
Ins_POP:
	@ args = 0, pretend = 0, frame = 0
	@ frame_needed = 1, uses_anonymous_args = 0
	@ link register save eliminated.
	push	{r7}
	add	r7, sp, #0
	mov	sp, r7
	@ sp needed
	ldr	r7, [sp], #4
	bx	lr
	.size	Ins_POP, .-Ins_POP
	.section	.text.Ins_CLEAR,"ax",%progbits
	.align	2
	.thumb
	.thumb_func
	.type	Ins_CLEAR, %function
Ins_CLEAR:
	@ args = 0, pretend = 0, frame = 8
	@ frame_needed = 1, uses_anonymous_args = 0
	@ link register save eliminated.
	push	{r7}
	sub	sp, sp, #12
	add	r7, sp, #0
	str	r0, [r7, #4]
	ldr	r3, [r7, #4]
	movs	r2, #0
	str	r2, [r3, #32]
	adds	r7, r7, #12
	mov	sp, r7
	@ sp needed
	ldr	r7, [sp], #4
	bx	lr
	.size	Ins_CLEAR, .-Ins_CLEAR
	.section	.text.Ins_SWAP,"ax",%progbits
	.align	2
	.thumb
	.thumb_func
	.type	Ins_SWAP, %function
Ins_SWAP:
	@ args = 0, pretend = 0, frame = 16
	@ frame_needed = 1, uses_anonymous_args = 0
	@ link register save eliminated.
	push	{r7}
	sub	sp, sp, #20
	add	r7, sp, #0
	str	r0, [r7, #4]
	ldr	r3, [r7, #4]
	ldr	r3, [r3]
	str	r3, [r7, #12]
	ldr	r3, [r7, #4]
	ldr	r2, [r3, #4]
	ldr	r3, [r7, #4]
	str	r2, [r3]
	ldr	r3, [r7, #4]
	adds	r3, r3, #4
	ldr	r2, [r7, #12]
	str	r2, [r3]
	adds	r7, r7, #20
	mov	sp, r7
	@ sp needed
	ldr	r7, [sp], #4
	bx	lr
	.size	Ins_SWAP, .-Ins_SWAP
	.section	.text.Ins_DEPTH,"ax",%progbits
	.align	2
	.thumb
	.thumb_func
	.type	Ins_DEPTH, %function
Ins_DEPTH:
	@ args = 0, pretend = 0, frame = 8
	@ frame_needed = 1, uses_anonymous_args = 0
	@ link register save eliminated.
	push	{r7}
	sub	sp, sp, #12
	add	r7, sp, #0
	str	r0, [r7, #4]
	str	r1, [r7]
	ldr	r3, [r7, #4]
	ldr	r2, [r3, #16]
	ldr	r3, [r7]
	str	r2, [r3]
	adds	r7, r7, #12
	mov	sp, r7
	@ sp needed
	ldr	r7, [sp], #4
	bx	lr
	.size	Ins_DEPTH, .-Ins_DEPTH
	.section	.text.Ins_LT,"ax",%progbits
	.align	2
	.thumb
	.thumb_func
	.type	Ins_LT, %function
Ins_LT:
	@ args = 0, pretend = 0, frame = 8
	@ frame_needed = 1, uses_anonymous_args = 0
	@ link register save eliminated.
	push	{r7}
	sub	sp, sp, #12
	add	r7, sp, #0
	str	r0, [r7, #4]
	ldr	r3, [r7, #4]
	ldr	r2, [r3]
	ldr	r3, [r7, #4]
	adds	r3, r3, #4
	ldr	r3, [r3]
	cmp	r2, r3
	ite	lt
	movlt	r3, #1
	movge	r3, #0
	uxtb	r3, r3
	mov	r2, r3
	ldr	r3, [r7, #4]
	str	r2, [r3]
	adds	r7, r7, #12
	mov	sp, r7
	@ sp needed
	ldr	r7, [sp], #4
	bx	lr
	.size	Ins_LT, .-Ins_LT
	.section	.text.Ins_LTEQ,"ax",%progbits
	.align	2
	.thumb
	.thumb_func
	.type	Ins_LTEQ, %function
Ins_LTEQ:
	@ args = 0, pretend = 0, frame = 8
	@ frame_needed = 1, uses_anonymous_args = 0
	@ link register save eliminated.
	push	{r7}
	sub	sp, sp, #12
	add	r7, sp, #0
	str	r0, [r7, #4]
	ldr	r3, [r7, #4]
	ldr	r2, [r3]
	ldr	r3, [r7, #4]
	adds	r3, r3, #4
	ldr	r3, [r3]
	cmp	r2, r3
	ite	le
	movle	r3, #1
	movgt	r3, #0
	uxtb	r3, r3
	mov	r2, r3
	ldr	r3, [r7, #4]
	str	r2, [r3]
	adds	r7, r7, #12
	mov	sp, r7
	@ sp needed
	ldr	r7, [sp], #4
	bx	lr
	.size	Ins_LTEQ, .-Ins_LTEQ
	.section	.text.Ins_GT,"ax",%progbits
	.align	2
	.thumb
	.thumb_func
	.type	Ins_GT, %function
Ins_GT:
	@ args = 0, pretend = 0, frame = 8
	@ frame_needed = 1, uses_anonymous_args = 0
	@ link register save eliminated.
	push	{r7}
	sub	sp, sp, #12
	add	r7, sp, #0
	str	r0, [r7, #4]
	ldr	r3, [r7, #4]
	ldr	r2, [r3]
	ldr	r3, [r7, #4]
	adds	r3, r3, #4
	ldr	r3, [r3]
	cmp	r2, r3
	ite	gt
	movgt	r3, #1
	movle	r3, #0
	uxtb	r3, r3
	mov	r2, r3
	ldr	r3, [r7, #4]
	str	r2, [r3]
	adds	r7, r7, #12
	mov	sp, r7
	@ sp needed
	ldr	r7, [sp], #4
	bx	lr
	.size	Ins_GT, .-Ins_GT
	.section	.text.Ins_GTEQ,"ax",%progbits
	.align	2
	.thumb
	.thumb_func
	.type	Ins_GTEQ, %function
Ins_GTEQ:
	@ args = 0, pretend = 0, frame = 8
	@ frame_needed = 1, uses_anonymous_args = 0
	@ link register save eliminated.
	push	{r7}
	sub	sp, sp, #12
	add	r7, sp, #0
	str	r0, [r7, #4]
	ldr	r3, [r7, #4]
	ldr	r2, [r3]
	ldr	r3, [r7, #4]
	adds	r3, r3, #4
	ldr	r3, [r3]
	cmp	r2, r3
	ite	ge
	movge	r3, #1
	movlt	r3, #0
	uxtb	r3, r3
	mov	r2, r3
	ldr	r3, [r7, #4]
	str	r2, [r3]
	adds	r7, r7, #12
	mov	sp, r7
	@ sp needed
	ldr	r7, [sp], #4
	bx	lr
	.size	Ins_GTEQ, .-Ins_GTEQ
	.section	.text.Ins_EQ,"ax",%progbits
	.align	2
	.thumb
	.thumb_func
	.type	Ins_EQ, %function
Ins_EQ:
	@ args = 0, pretend = 0, frame = 8
	@ frame_needed = 1, uses_anonymous_args = 0
	@ link register save eliminated.
	push	{r7}
	sub	sp, sp, #12
	add	r7, sp, #0
	str	r0, [r7, #4]
	ldr	r3, [r7, #4]
	ldr	r2, [r3]
	ldr	r3, [r7, #4]
	adds	r3, r3, #4
	ldr	r3, [r3]
	cmp	r2, r3
	ite	eq
	moveq	r3, #1
	movne	r3, #0
	uxtb	r3, r3
	mov	r2, r3
	ldr	r3, [r7, #4]
	str	r2, [r3]
	adds	r7, r7, #12
	mov	sp, r7
	@ sp needed
	ldr	r7, [sp], #4
	bx	lr
	.size	Ins_EQ, .-Ins_EQ
	.section	.text.Ins_NEQ,"ax",%progbits
	.align	2
	.thumb
	.thumb_func
	.type	Ins_NEQ, %function
Ins_NEQ:
	@ args = 0, pretend = 0, frame = 8
	@ frame_needed = 1, uses_anonymous_args = 0
	@ link register save eliminated.
	push	{r7}
	sub	sp, sp, #12
	add	r7, sp, #0
	str	r0, [r7, #4]
	ldr	r3, [r7, #4]
	ldr	r2, [r3]
	ldr	r3, [r7, #4]
	adds	r3, r3, #4
	ldr	r3, [r3]
	cmp	r2, r3
	ite	ne
	movne	r3, #1
	moveq	r3, #0
	uxtb	r3, r3
	mov	r2, r3
	ldr	r3, [r7, #4]
	str	r2, [r3]
	adds	r7, r7, #12
	mov	sp, r7
	@ sp needed
	ldr	r7, [sp], #4
	bx	lr
	.size	Ins_NEQ, .-Ins_NEQ
	.section	.text.Ins_ODD,"ax",%progbits
	.align	2
	.thumb
	.thumb_func
	.type	Ins_ODD, %function
Ins_ODD:
	@ args = 0, pretend = 0, frame = 8
	@ frame_needed = 1, uses_anonymous_args = 0
	push	{r7, lr}
	sub	sp, sp, #8
	add	r7, sp, #0
	str	r0, [r7, #4]
	str	r1, [r7]
	ldr	r3, [r7, #4]
	ldr	r3, [r3, #568]
	ldr	r2, [r7]
	ldr	r2, [r2]
	ldr	r0, [r7, #4]
	mov	r1, r2
	movs	r2, #0
	blx	r3
	mov	r3, r0
	and	r3, r3, #127
	cmp	r3, #64
	ite	eq
	moveq	r3, #1
	movne	r3, #0
	uxtb	r3, r3
	mov	r2, r3
	ldr	r3, [r7]
	str	r2, [r3]
	adds	r7, r7, #8
	mov	sp, r7
	@ sp needed
	pop	{r7, pc}
	.size	Ins_ODD, .-Ins_ODD
	.section	.text.Ins_EVEN,"ax",%progbits
	.align	2
	.thumb
	.thumb_func
	.type	Ins_EVEN, %function
Ins_EVEN:
	@ args = 0, pretend = 0, frame = 8
	@ frame_needed = 1, uses_anonymous_args = 0
	push	{r7, lr}
	sub	sp, sp, #8
	add	r7, sp, #0
	str	r0, [r7, #4]
	str	r1, [r7]
	ldr	r3, [r7, #4]
	ldr	r3, [r3, #568]
	ldr	r2, [r7]
	ldr	r2, [r2]
	ldr	r0, [r7, #4]
	mov	r1, r2
	movs	r2, #0
	blx	r3
	mov	r3, r0
	and	r3, r3, #127
	cmp	r3, #0
	ite	eq
	moveq	r3, #1
	movne	r3, #0
	uxtb	r3, r3
	mov	r2, r3
	ldr	r3, [r7]
	str	r2, [r3]
	adds	r7, r7, #8
	mov	sp, r7
	@ sp needed
	pop	{r7, pc}
	.size	Ins_EVEN, .-Ins_EVEN
	.section	.text.Ins_AND,"ax",%progbits
	.align	2
	.thumb
	.thumb_func
	.type	Ins_AND, %function
Ins_AND:
	@ args = 0, pretend = 0, frame = 8
	@ frame_needed = 1, uses_anonymous_args = 0
	@ link register save eliminated.
	push	{r7}
	sub	sp, sp, #12
	add	r7, sp, #0
	str	r0, [r7, #4]
	ldr	r3, [r7, #4]
	ldr	r3, [r3]
	cmp	r3, #0
	beq	.L755
	ldr	r3, [r7, #4]
	adds	r3, r3, #4
	ldr	r3, [r3]
	cmp	r3, #0
	beq	.L755
	movs	r3, #1
	b	.L756
.L755:
	movs	r3, #0
.L756:
	ldr	r2, [r7, #4]
	str	r3, [r2]
	adds	r7, r7, #12
	mov	sp, r7
	@ sp needed
	ldr	r7, [sp], #4
	bx	lr
	.size	Ins_AND, .-Ins_AND
	.section	.text.Ins_OR,"ax",%progbits
	.align	2
	.thumb
	.thumb_func
	.type	Ins_OR, %function
Ins_OR:
	@ args = 0, pretend = 0, frame = 8
	@ frame_needed = 1, uses_anonymous_args = 0
	@ link register save eliminated.
	push	{r7}
	sub	sp, sp, #12
	add	r7, sp, #0
	str	r0, [r7, #4]
	ldr	r3, [r7, #4]
	ldr	r3, [r3]
	cmp	r3, #0
	bne	.L758
	ldr	r3, [r7, #4]
	adds	r3, r3, #4
	ldr	r3, [r3]
	cmp	r3, #0
	beq	.L759
.L758:
	movs	r3, #1
	b	.L760
.L759:
	movs	r3, #0
.L760:
	ldr	r2, [r7, #4]
	str	r3, [r2]
	adds	r7, r7, #12
	mov	sp, r7
	@ sp needed
	ldr	r7, [sp], #4
	bx	lr
	.size	Ins_OR, .-Ins_OR
	.section	.text.Ins_NOT,"ax",%progbits
	.align	2
	.thumb
	.thumb_func
	.type	Ins_NOT, %function
Ins_NOT:
	@ args = 0, pretend = 0, frame = 8
	@ frame_needed = 1, uses_anonymous_args = 0
	@ link register save eliminated.
	push	{r7}
	sub	sp, sp, #12
	add	r7, sp, #0
	str	r0, [r7, #4]
	ldr	r3, [r7, #4]
	ldr	r3, [r3]
	cmp	r3, #0
	ite	eq
	moveq	r3, #1
	movne	r3, #0
	uxtb	r3, r3
	mov	r2, r3
	ldr	r3, [r7, #4]
	str	r2, [r3]
	adds	r7, r7, #12
	mov	sp, r7
	@ sp needed
	ldr	r7, [sp], #4
	bx	lr
	.size	Ins_NOT, .-Ins_NOT
	.section	.text.Ins_ADD,"ax",%progbits
	.align	2
	.thumb
	.thumb_func
	.type	Ins_ADD, %function
Ins_ADD:
	@ args = 0, pretend = 0, frame = 8
	@ frame_needed = 1, uses_anonymous_args = 0
	@ link register save eliminated.
	push	{r7}
	sub	sp, sp, #12
	add	r7, sp, #0
	str	r0, [r7, #4]
	ldr	r3, [r7, #4]
	ldr	r2, [r3]
	ldr	r3, [r7, #4]
	adds	r3, r3, #4
	ldr	r3, [r3]
	add	r2, r2, r3
	ldr	r3, [r7, #4]
	str	r2, [r3]
	adds	r7, r7, #12
	mov	sp, r7
	@ sp needed
	ldr	r7, [sp], #4
	bx	lr
	.size	Ins_ADD, .-Ins_ADD
	.section	.text.Ins_SUB,"ax",%progbits
	.align	2
	.thumb
	.thumb_func
	.type	Ins_SUB, %function
Ins_SUB:
	@ args = 0, pretend = 0, frame = 8
	@ frame_needed = 1, uses_anonymous_args = 0
	@ link register save eliminated.
	push	{r7}
	sub	sp, sp, #12
	add	r7, sp, #0
	str	r0, [r7, #4]
	ldr	r3, [r7, #4]
	ldr	r2, [r3]
	ldr	r3, [r7, #4]
	adds	r3, r3, #4
	ldr	r3, [r3]
	subs	r2, r2, r3
	ldr	r3, [r7, #4]
	str	r2, [r3]
	adds	r7, r7, #12
	mov	sp, r7
	@ sp needed
	ldr	r7, [sp], #4
	bx	lr
	.size	Ins_SUB, .-Ins_SUB
	.section	.text.Ins_DIV,"ax",%progbits
	.align	2
	.thumb
	.thumb_func
	.type	Ins_DIV, %function
Ins_DIV:
	@ args = 0, pretend = 0, frame = 8
	@ frame_needed = 1, uses_anonymous_args = 0
	push	{r7, lr}
	sub	sp, sp, #8
	add	r7, sp, #0
	str	r0, [r7, #4]
	str	r1, [r7]
	ldr	r3, [r7]
	adds	r3, r3, #4
	ldr	r3, [r3]
	cmp	r3, #0
	bne	.L765
	ldr	r3, [r7, #4]
	movs	r2, #133
	str	r2, [r3, #12]
	b	.L764
.L765:
	ldr	r3, [r7]
	ldr	r2, [r3]
	ldr	r3, [r7]
	adds	r3, r3, #4
	ldr	r3, [r3]
	mov	r0, r2
	movs	r1, #64
	mov	r2, r3
	bl	FT_MulDiv_No_Round(PLT)
	mov	r2, r0
	ldr	r3, [r7]
	str	r2, [r3]
.L764:
	adds	r7, r7, #8
	mov	sp, r7
	@ sp needed
	pop	{r7, pc}
	.size	Ins_DIV, .-Ins_DIV
	.section	.text.Ins_MUL,"ax",%progbits
	.align	2
	.thumb
	.thumb_func
	.type	Ins_MUL, %function
Ins_MUL:
	@ args = 0, pretend = 0, frame = 8
	@ frame_needed = 1, uses_anonymous_args = 0
	push	{r7, lr}
	sub	sp, sp, #8
	add	r7, sp, #0
	str	r0, [r7, #4]
	ldr	r3, [r7, #4]
	ldr	r2, [r3]
	ldr	r3, [r7, #4]
	adds	r3, r3, #4
	ldr	r3, [r3]
	mov	r0, r2
	mov	r1, r3
	movs	r2, #64
	bl	FT_MulDiv(PLT)
	mov	r2, r0
	ldr	r3, [r7, #4]
	str	r2, [r3]
	adds	r7, r7, #8
	mov	sp, r7
	@ sp needed
	pop	{r7, pc}
	.size	Ins_MUL, .-Ins_MUL
	.section	.text.Ins_ABS,"ax",%progbits
	.align	2
	.thumb
	.thumb_func
	.type	Ins_ABS, %function
Ins_ABS:
	@ args = 0, pretend = 0, frame = 8
	@ frame_needed = 1, uses_anonymous_args = 0
	@ link register save eliminated.
	push	{r7}
	sub	sp, sp, #12
	add	r7, sp, #0
	str	r0, [r7, #4]
	ldr	r3, [r7, #4]
	ldr	r3, [r3]
	eor	r2, r3, r3, asr #31
	sub	r2, r2, r3, asr #31
	ldr	r3, [r7, #4]
	str	r2, [r3]
	adds	r7, r7, #12
	mov	sp, r7
	@ sp needed
	ldr	r7, [sp], #4
	bx	lr
	.size	Ins_ABS, .-Ins_ABS
	.section	.text.Ins_NEG,"ax",%progbits
	.align	2
	.thumb
	.thumb_func
	.type	Ins_NEG, %function
Ins_NEG:
	@ args = 0, pretend = 0, frame = 8
	@ frame_needed = 1, uses_anonymous_args = 0
	@ link register save eliminated.
	push	{r7}
	sub	sp, sp, #12
	add	r7, sp, #0
	str	r0, [r7, #4]
	ldr	r3, [r7, #4]
	ldr	r3, [r3]
	negs	r2, r3
	ldr	r3, [r7, #4]
	str	r2, [r3]
	adds	r7, r7, #12
	mov	sp, r7
	@ sp needed
	ldr	r7, [sp], #4
	bx	lr
	.size	Ins_NEG, .-Ins_NEG
	.section	.text.Ins_FLOOR,"ax",%progbits
	.align	2
	.thumb
	.thumb_func
	.type	Ins_FLOOR, %function
Ins_FLOOR:
	@ args = 0, pretend = 0, frame = 8
	@ frame_needed = 1, uses_anonymous_args = 0
	@ link register save eliminated.
	push	{r7}
	sub	sp, sp, #12
	add	r7, sp, #0
	str	r0, [r7, #4]
	ldr	r3, [r7, #4]
	ldr	r3, [r3]
	bic	r2, r3, #63
	ldr	r3, [r7, #4]
	str	r2, [r3]
	adds	r7, r7, #12
	mov	sp, r7
	@ sp needed
	ldr	r7, [sp], #4
	bx	lr
	.size	Ins_FLOOR, .-Ins_FLOOR
	.section	.text.Ins_CEILING,"ax",%progbits
	.align	2
	.thumb
	.thumb_func
	.type	Ins_CEILING, %function
Ins_CEILING:
	@ args = 0, pretend = 0, frame = 8
	@ frame_needed = 1, uses_anonymous_args = 0
	@ link register save eliminated.
	push	{r7}
	sub	sp, sp, #12
	add	r7, sp, #0
	str	r0, [r7, #4]
	ldr	r3, [r7, #4]
	ldr	r3, [r3]
	adds	r3, r3, #63
	bic	r2, r3, #63
	ldr	r3, [r7, #4]
	str	r2, [r3]
	adds	r7, r7, #12
	mov	sp, r7
	@ sp needed
	ldr	r7, [sp], #4
	bx	lr
	.size	Ins_CEILING, .-Ins_CEILING
	.section	.text.Ins_RS,"ax",%progbits
	.align	2
	.thumb
	.thumb_func
	.type	Ins_RS, %function
Ins_RS:
	@ args = 0, pretend = 0, frame = 16
	@ frame_needed = 1, uses_anonymous_args = 0
	@ link register save eliminated.
	push	{r7}
	sub	sp, sp, #20
	add	r7, sp, #0
	str	r0, [r7, #4]
	str	r1, [r7]
	ldr	r3, [r7]
	ldr	r3, [r3]
	str	r3, [r7, #12]
	ldr	r3, [r7, #4]
	ldrh	r3, [r3, #468]
	mov	r2, r3
	ldr	r3, [r7, #12]
	cmp	r2, r3
	bhi	.L773
	ldr	r3, [r7, #4]
	ldrb	r3, [r3, #561]	@ zero_extendqisi2
	cmp	r3, #0
	beq	.L774
	ldr	r3, [r7, #4]
	movs	r2, #134
	str	r2, [r3, #12]
	b	.L772
.L774:
	ldr	r3, [r7]
	movs	r2, #0
	str	r2, [r3]
	b	.L772
.L773:
	ldr	r3, [r7, #4]
	ldr	r3, [r3]
	ldr	r3, [r3, #96]
	ldr	r3, [r3, #64]
	cmp	r3, #38
	bne	.L776
	ldr	r3, [r7, #4]
	ldrb	r3, [r3, #617]	@ zero_extendqisi2
	cmp	r3, #0
	beq	.L776
	ldr	r3, [r7, #12]
	cmp	r3, #24
	bne	.L777
	ldr	r3, [r7, #4]
	ldr	r3, [r3]
	ldr	r3, [r3, #792]
	and	r3, r3, #96
	cmp	r3, #0
	bne	.L778
.L777:
	ldr	r3, [r7, #12]
	cmp	r3, #22
	bne	.L779
	ldr	r3, [r7, #4]
	ldr	r3, [r3, #636]
	and	r3, r3, #128
	cmp	r3, #0
	bne	.L778
.L779:
	ldr	r3, [r7, #12]
	cmp	r3, #8
	bne	.L776
	ldr	r3, [r7, #4]
	ldr	r3, [r3]
	ldr	r3, [r3, #792]
	and	r3, r3, #8
	cmp	r3, #0
	beq	.L776
	ldr	r3, [r7, #4]
	ldrb	r3, [r3, #628]	@ zero_extendqisi2
	cmp	r3, #0
	beq	.L776
.L778:
	ldr	r3, [r7]
	movs	r2, #0
	str	r2, [r3]
	b	.L772
.L776:
	ldr	r3, [r7, #4]
	ldr	r2, [r3, #472]
	ldr	r3, [r7, #12]
	lsls	r3, r3, #2
	add	r3, r3, r2
	ldr	r2, [r3]
	ldr	r3, [r7]
	str	r2, [r3]
.L772:
	adds	r7, r7, #20
	mov	sp, r7
	@ sp needed
	ldr	r7, [sp], #4
	bx	lr
	.size	Ins_RS, .-Ins_RS
	.section	.text.Ins_WS,"ax",%progbits
	.align	2
	.thumb
	.thumb_func
	.type	Ins_WS, %function
Ins_WS:
	@ args = 0, pretend = 0, frame = 16
	@ frame_needed = 1, uses_anonymous_args = 0
	@ link register save eliminated.
	push	{r7}
	sub	sp, sp, #20
	add	r7, sp, #0
	str	r0, [r7, #4]
	str	r1, [r7]
	ldr	r3, [r7]
	ldr	r3, [r3]
	str	r3, [r7, #12]
	ldr	r3, [r7, #4]
	ldrh	r3, [r3, #468]
	mov	r2, r3
	ldr	r3, [r7, #12]
	cmp	r2, r3
	bhi	.L781
	ldr	r3, [r7, #4]
	ldrb	r3, [r3, #561]	@ zero_extendqisi2
	cmp	r3, #0
	beq	.L780
	ldr	r3, [r7, #4]
	movs	r2, #134
	str	r2, [r3, #12]
	b	.L780
.L781:
	ldr	r3, [r7, #4]
	ldr	r2, [r3, #472]
	ldr	r3, [r7, #12]
	lsls	r3, r3, #2
	add	r3, r3, r2
	ldr	r2, [r7]
	ldr	r2, [r2, #4]
	str	r2, [r3]
.L780:
	adds	r7, r7, #20
	mov	sp, r7
	@ sp needed
	ldr	r7, [sp], #4
	bx	lr
	.size	Ins_WS, .-Ins_WS
	.section	.text.Ins_WCVTP,"ax",%progbits
	.align	2
	.thumb
	.thumb_func
	.type	Ins_WCVTP, %function
Ins_WCVTP:
	@ args = 0, pretend = 0, frame = 16
	@ frame_needed = 1, uses_anonymous_args = 0
	push	{r7, lr}
	sub	sp, sp, #16
	add	r7, sp, #0
	str	r0, [r7, #4]
	str	r1, [r7]
	ldr	r3, [r7]
	ldr	r3, [r3]
	str	r3, [r7, #12]
	ldr	r3, [r7, #4]
	ldr	r2, [r3, #380]
	ldr	r3, [r7, #12]
	cmp	r2, r3
	bhi	.L784
	ldr	r3, [r7, #4]
	ldrb	r3, [r3, #561]	@ zero_extendqisi2
	cmp	r3, #0
	beq	.L783
	ldr	r3, [r7, #4]
	movs	r2, #134
	str	r2, [r3, #12]
	b	.L783
.L784:
	ldr	r3, [r7, #4]
	ldr	r3, [r3, #600]
	ldr	r2, [r7]
	adds	r2, r2, #4
	ldr	r2, [r2]
	ldr	r0, [r7, #4]
	ldr	r1, [r7, #12]
	blx	r3
.L783:
	adds	r7, r7, #16
	mov	sp, r7
	@ sp needed
	pop	{r7, pc}
	.size	Ins_WCVTP, .-Ins_WCVTP
	.section	.text.Ins_WCVTF,"ax",%progbits
	.align	2
	.thumb
	.thumb_func
	.type	Ins_WCVTF, %function
Ins_WCVTF:
	@ args = 0, pretend = 0, frame = 16
	@ frame_needed = 1, uses_anonymous_args = 0
	push	{r4, r7, lr}
	sub	sp, sp, #20
	add	r7, sp, #0
	str	r0, [r7, #4]
	str	r1, [r7]
	ldr	r3, [r7]
	ldr	r3, [r3]
	str	r3, [r7, #12]
	ldr	r3, [r7, #4]
	ldr	r2, [r3, #380]
	ldr	r3, [r7, #12]
	cmp	r2, r3
	bhi	.L787
	ldr	r3, [r7, #4]
	ldrb	r3, [r3, #561]	@ zero_extendqisi2
	cmp	r3, #0
	beq	.L786
	ldr	r3, [r7, #4]
	movs	r2, #134
	str	r2, [r3, #12]
	b	.L786
.L787:
	ldr	r3, [r7, #4]
	ldr	r2, [r3, #384]
	ldr	r3, [r7, #12]
	lsls	r3, r3, #2
	adds	r4, r2, r3
	ldr	r3, [r7]
	adds	r3, r3, #4
	ldr	r2, [r3]
	ldr	r3, [r7, #4]
	ldr	r3, [r3, #260]
	mov	r0, r2
	mov	r1, r3
	bl	FT_MulFix_arm(PLT)
	mov	r3, r0
	str	r3, [r4]
.L786:
	adds	r7, r7, #20
	mov	sp, r7
	@ sp needed
	pop	{r4, r7, pc}
	.size	Ins_WCVTF, .-Ins_WCVTF
	.section	.text.Ins_RCVT,"ax",%progbits
	.align	2
	.thumb
	.thumb_func
	.type	Ins_RCVT, %function
Ins_RCVT:
	@ args = 0, pretend = 0, frame = 16
	@ frame_needed = 1, uses_anonymous_args = 0
	push	{r7, lr}
	sub	sp, sp, #16
	add	r7, sp, #0
	str	r0, [r7, #4]
	str	r1, [r7]
	ldr	r3, [r7]
	ldr	r3, [r3]
	str	r3, [r7, #12]
	ldr	r3, [r7, #4]
	ldr	r2, [r3, #380]
	ldr	r3, [r7, #12]
	cmp	r2, r3
	bhi	.L790
	ldr	r3, [r7, #4]
	ldrb	r3, [r3, #561]	@ zero_extendqisi2
	cmp	r3, #0
	beq	.L791
	ldr	r3, [r7, #4]
	movs	r2, #134
	str	r2, [r3, #12]
	b	.L789
.L791:
	ldr	r3, [r7]
	movs	r2, #0
	str	r2, [r3]
	b	.L789
.L790:
	ldr	r3, [r7, #4]
	ldr	r3, [r3, #596]
	ldr	r0, [r7, #4]
	ldr	r1, [r7, #12]
	blx	r3
	mov	r2, r0
	ldr	r3, [r7]
	str	r2, [r3]
.L789:
	adds	r7, r7, #16
	mov	sp, r7
	@ sp needed
	pop	{r7, pc}
	.size	Ins_RCVT, .-Ins_RCVT
	.section	.text.Ins_AA,"ax",%progbits
	.align	2
	.thumb
	.thumb_func
	.type	Ins_AA, %function
Ins_AA:
	@ args = 0, pretend = 0, frame = 0
	@ frame_needed = 1, uses_anonymous_args = 0
	@ link register save eliminated.
	push	{r7}
	add	r7, sp, #0
	mov	sp, r7
	@ sp needed
	ldr	r7, [sp], #4
	bx	lr
	.size	Ins_AA, .-Ins_AA
	.section	.text.Ins_DEBUG,"ax",%progbits
	.align	2
	.thumb
	.thumb_func
	.type	Ins_DEBUG, %function
Ins_DEBUG:
	@ args = 0, pretend = 0, frame = 8
	@ frame_needed = 1, uses_anonymous_args = 0
	@ link register save eliminated.
	push	{r7}
	sub	sp, sp, #12
	add	r7, sp, #0
	str	r0, [r7, #4]
	ldr	r3, [r7, #4]
	movs	r2, #135
	str	r2, [r3, #12]
	adds	r7, r7, #12
	mov	sp, r7
	@ sp needed
	ldr	r7, [sp], #4
	bx	lr
	.size	Ins_DEBUG, .-Ins_DEBUG
	.section	.text.Ins_ROUND,"ax",%progbits
	.align	2
	.thumb
	.thumb_func
	.type	Ins_ROUND, %function
Ins_ROUND:
	@ args = 0, pretend = 0, frame = 8
	@ frame_needed = 1, uses_anonymous_args = 0
	push	{r4, r7, lr}
	sub	sp, sp, #12
	add	r7, sp, #0
	str	r0, [r7, #4]
	str	r1, [r7]
	ldr	r3, [r7, #4]
	ldr	r4, [r3, #568]
	ldr	r3, [r7]
	ldr	r2, [r3]
	ldr	r3, [r7, #4]
	ldrb	r3, [r3, #368]	@ zero_extendqisi2
	subs	r3, r3, #104
	ldr	r1, [r7, #4]
	adds	r3, r3, #64
	lsls	r3, r3, #2
	add	r3, r3, r1
	ldr	r3, [r3, #8]
	ldr	r0, [r7, #4]
	mov	r1, r2
	mov	r2, r3
	blx	r4
	mov	r2, r0
	ldr	r3, [r7]
	str	r2, [r3]
	adds	r7, r7, #12
	mov	sp, r7
	@ sp needed
	pop	{r4, r7, pc}
	.size	Ins_ROUND, .-Ins_ROUND
	.section	.text.Ins_NROUND,"ax",%progbits
	.align	2
	.thumb
	.thumb_func
	.type	Ins_NROUND, %function
Ins_NROUND:
	@ args = 0, pretend = 0, frame = 8
	@ frame_needed = 1, uses_anonymous_args = 0
	push	{r7, lr}
	sub	sp, sp, #8
	add	r7, sp, #0
	str	r0, [r7, #4]
	str	r1, [r7]
	ldr	r3, [r7]
	ldr	r2, [r3]
	ldr	r3, [r7, #4]
	ldrb	r3, [r3, #368]	@ zero_extendqisi2
	subs	r3, r3, #108
	ldr	r1, [r7, #4]
	adds	r3, r3, #64
	lsls	r3, r3, #2
	add	r3, r3, r1
	ldr	r3, [r3, #8]
	ldr	r0, [r7, #4]
	mov	r1, r2
	mov	r2, r3
	bl	Round_None(PLT)
	mov	r2, r0
	ldr	r3, [r7]
	str	r2, [r3]
	adds	r7, r7, #8
	mov	sp, r7
	@ sp needed
	pop	{r7, pc}
	.size	Ins_NROUND, .-Ins_NROUND
	.section	.text.Ins_MAX,"ax",%progbits
	.align	2
	.thumb
	.thumb_func
	.type	Ins_MAX, %function
Ins_MAX:
	@ args = 0, pretend = 0, frame = 8
	@ frame_needed = 1, uses_anonymous_args = 0
	@ link register save eliminated.
	push	{r7}
	sub	sp, sp, #12
	add	r7, sp, #0
	str	r0, [r7, #4]
	ldr	r3, [r7, #4]
	adds	r3, r3, #4
	ldr	r2, [r3]
	ldr	r3, [r7, #4]
	ldr	r3, [r3]
	cmp	r2, r3
	ble	.L797
	ldr	r3, [r7, #4]
	ldr	r2, [r3, #4]
	ldr	r3, [r7, #4]
	str	r2, [r3]
.L797:
	adds	r7, r7, #12
	mov	sp, r7
	@ sp needed
	ldr	r7, [sp], #4
	bx	lr
	.size	Ins_MAX, .-Ins_MAX
	.section	.text.Ins_MIN,"ax",%progbits
	.align	2
	.thumb
	.thumb_func
	.type	Ins_MIN, %function
Ins_MIN:
	@ args = 0, pretend = 0, frame = 8
	@ frame_needed = 1, uses_anonymous_args = 0
	@ link register save eliminated.
	push	{r7}
	sub	sp, sp, #12
	add	r7, sp, #0
	str	r0, [r7, #4]
	ldr	r3, [r7, #4]
	adds	r3, r3, #4
	ldr	r2, [r3]
	ldr	r3, [r7, #4]
	ldr	r3, [r3]
	cmp	r2, r3
	bge	.L799
	ldr	r3, [r7, #4]
	ldr	r2, [r3, #4]
	ldr	r3, [r7, #4]
	str	r2, [r3]
.L799:
	adds	r7, r7, #12
	mov	sp, r7
	@ sp needed
	ldr	r7, [sp], #4
	bx	lr
	.size	Ins_MIN, .-Ins_MIN
	.section	.text.Ins_MINDEX,"ax",%progbits
	.align	2
	.thumb
	.thumb_func
	.type	Ins_MINDEX, %function
Ins_MINDEX:
	@ args = 0, pretend = 0, frame = 16
	@ frame_needed = 1, uses_anonymous_args = 0
	push	{r7, lr}
	sub	sp, sp, #16
	add	r7, sp, #0
	str	r0, [r7, #4]
	str	r1, [r7]
	ldr	r3, [r7]
	ldr	r3, [r3]
	str	r3, [r7, #12]
	ldr	r3, [r7, #12]
	cmp	r3, #0
	ble	.L802
	ldr	r3, [r7, #4]
	ldr	r2, [r3, #28]
	ldr	r3, [r7, #12]
	cmp	r2, r3
	bge	.L803
.L802:
	ldr	r3, [r7, #4]
	ldrb	r3, [r3, #561]	@ zero_extendqisi2
	cmp	r3, #0
	beq	.L804
	ldr	r3, [r7, #4]
	movs	r2, #134
	str	r2, [r3, #12]
	b	.L801
.L804:
	b	.L801
.L803:
	ldr	r3, [r7, #4]
	ldr	r2, [r3, #24]
	ldr	r3, [r7, #4]
	ldr	r1, [r3, #28]
	ldr	r3, [r7, #12]
	subs	r3, r1, r3
	lsls	r3, r3, #2
	add	r3, r3, r2
	ldr	r3, [r3]
	str	r3, [r7, #8]
	ldr	r3, [r7, #4]
	ldr	r2, [r3, #24]
	ldr	r3, [r7, #4]
	ldr	r1, [r3, #28]
	ldr	r3, [r7, #12]
	subs	r3, r1, r3
	lsls	r3, r3, #2
	adds	r1, r2, r3
	ldr	r3, [r7, #4]
	ldr	r2, [r3, #24]
	ldr	r3, [r7, #4]
	ldr	r0, [r3, #28]
	ldr	r3, [r7, #12]
	subs	r3, r0, r3
	adds	r3, r3, #1
	lsls	r3, r3, #2
	add	r2, r2, r3
	ldr	r3, [r7, #12]
	subs	r3, r3, #1
	lsls	r3, r3, #2
	mov	r0, r1
	mov	r1, r2
	mov	r2, r3
	bl	memmove(PLT)
	ldr	r3, [r7, #4]
	ldr	r2, [r3, #24]
	ldr	r3, [r7, #4]
	ldr	r3, [r3, #28]
	add	r3, r3, #1073741824
	subs	r3, r3, #1
	lsls	r3, r3, #2
	add	r3, r3, r2
	ldr	r2, [r7, #8]
	str	r2, [r3]
.L801:
	adds	r7, r7, #16
	mov	sp, r7
	@ sp needed
	pop	{r7, pc}
	.size	Ins_MINDEX, .-Ins_MINDEX
	.section	.text.Ins_CINDEX,"ax",%progbits
	.align	2
	.thumb
	.thumb_func
	.type	Ins_CINDEX, %function
Ins_CINDEX:
	@ args = 0, pretend = 0, frame = 16
	@ frame_needed = 1, uses_anonymous_args = 0
	@ link register save eliminated.
	push	{r7}
	sub	sp, sp, #20
	add	r7, sp, #0
	str	r0, [r7, #4]
	str	r1, [r7]
	ldr	r3, [r7]
	ldr	r3, [r3]
	str	r3, [r7, #12]
	ldr	r3, [r7, #12]
	cmp	r3, #0
	ble	.L807
	ldr	r3, [r7, #4]
	ldr	r2, [r3, #28]
	ldr	r3, [r7, #12]
	cmp	r2, r3
	bge	.L808
.L807:
	ldr	r3, [r7, #4]
	ldrb	r3, [r3, #561]	@ zero_extendqisi2
	cmp	r3, #0
	beq	.L809
	ldr	r3, [r7, #4]
	movs	r2, #134
	str	r2, [r3, #12]
.L809:
	ldr	r3, [r7]
	movs	r2, #0
	str	r2, [r3]
	b	.L806
.L808:
	ldr	r3, [r7, #4]
	ldr	r2, [r3, #24]
	ldr	r3, [r7, #4]
	ldr	r1, [r3, #28]
	ldr	r3, [r7, #12]
	subs	r3, r1, r3
	lsls	r3, r3, #2
	add	r3, r3, r2
	ldr	r2, [r3]
	ldr	r3, [r7]
	str	r2, [r3]
.L806:
	adds	r7, r7, #20
	mov	sp, r7
	@ sp needed
	ldr	r7, [sp], #4
	bx	lr
	.size	Ins_CINDEX, .-Ins_CINDEX
	.section	.text.Ins_ROLL,"ax",%progbits
	.align	2
	.thumb
	.thumb_func
	.type	Ins_ROLL, %function
Ins_ROLL:
	@ args = 0, pretend = 0, frame = 24
	@ frame_needed = 1, uses_anonymous_args = 0
	@ link register save eliminated.
	push	{r7}
	sub	sp, sp, #28
	add	r7, sp, #0
	str	r0, [r7, #4]
	ldr	r3, [r7, #4]
	ldr	r3, [r3, #8]
	str	r3, [r7, #20]
	ldr	r3, [r7, #4]
	ldr	r3, [r3, #4]
	str	r3, [r7, #16]
	ldr	r3, [r7, #4]
	ldr	r3, [r3]
	str	r3, [r7, #12]
	ldr	r3, [r7, #4]
	adds	r3, r3, #8
	ldr	r2, [r7, #12]
	str	r2, [r3]
	ldr	r3, [r7, #4]
	adds	r3, r3, #4
	ldr	r2, [r7, #20]
	str	r2, [r3]
	ldr	r3, [r7, #4]
	ldr	r2, [r7, #16]
	str	r2, [r3]
	adds	r7, r7, #28
	mov	sp, r7
	@ sp needed
	ldr	r7, [sp], #4
	bx	lr
	.size	Ins_ROLL, .-Ins_ROLL
	.section	.text.Ins_SLOOP,"ax",%progbits
	.align	2
	.thumb
	.thumb_func
	.type	Ins_SLOOP, %function
Ins_SLOOP:
	@ args = 0, pretend = 0, frame = 8
	@ frame_needed = 1, uses_anonymous_args = 0
	@ link register save eliminated.
	push	{r7}
	sub	sp, sp, #12
	add	r7, sp, #0
	str	r0, [r7, #4]
	str	r1, [r7]
	ldr	r3, [r7]
	ldr	r3, [r3]
	cmp	r3, #0
	bge	.L813
	ldr	r3, [r7, #4]
	movs	r2, #132
	str	r2, [r3, #12]
	b	.L812
.L813:
	ldr	r3, [r7]
	ldr	r2, [r3]
	ldr	r3, [r7, #4]
	str	r2, [r3, #304]
.L812:
	adds	r7, r7, #12
	mov	sp, r7
	@ sp needed
	ldr	r7, [sp], #4
	bx	lr
	.size	Ins_SLOOP, .-Ins_SLOOP
	.section	.text.SkipCode,"ax",%progbits
	.align	2
	.thumb
	.thumb_func
	.type	SkipCode, %function
SkipCode:
	@ args = 0, pretend = 0, frame = 8
	@ frame_needed = 1, uses_anonymous_args = 0
	@ link register save eliminated.
	push	{r7}
	sub	sp, sp, #12
	add	r7, sp, #0
	str	r0, [r7, #4]
	ldr	r3, [r7, #4]
	ldr	r2, [r3, #360]
	ldr	r3, [r7, #4]
	ldr	r3, [r3, #372]
	add	r2, r2, r3
	ldr	r3, [r7, #4]
	str	r2, [r3, #360]
	ldr	r3, [r7, #4]
	ldr	r2, [r3, #360]
	ldr	r3, [r7, #4]
	ldr	r3, [r3, #364]
	cmp	r2, r3
	bge	.L816
	ldr	r3, [r7, #4]
	ldr	r2, [r3, #356]
	ldr	r3, [r7, #4]
	ldr	r3, [r3, #360]
	add	r3, r3, r2
	ldrb	r2, [r3]	@ zero_extendqisi2
	ldr	r3, [r7, #4]
	strb	r2, [r3, #368]
	ldr	r3, [r7, #4]
	ldrb	r3, [r3, #368]	@ zero_extendqisi2
	ldr	r2, .L820
.LPIC42:
	add	r2, pc
	ldrb	r3, [r2, r3]	@ zero_extendqisi2
	sxtb	r2, r3
	ldr	r3, [r7, #4]
	str	r2, [r3, #372]
	ldr	r3, [r7, #4]
	ldr	r3, [r3, #372]
	cmp	r3, #0
	bge	.L817
	ldr	r3, [r7, #4]
	ldr	r3, [r3, #360]
	adds	r2, r3, #1
	ldr	r3, [r7, #4]
	ldr	r3, [r3, #364]
	cmp	r2, r3
	blt	.L818
	b	.L816
.L818:
	ldr	r3, [r7, #4]
	ldr	r3, [r3, #372]
	ldr	r2, [r7, #4]
	ldr	r1, [r2, #356]
	ldr	r2, [r7, #4]
	ldr	r2, [r2, #360]
	adds	r2, r2, #1
	add	r2, r2, r1
	ldrb	r2, [r2]	@ zero_extendqisi2
	mul	r3, r2, r3
	rsb	r2, r3, #2
	ldr	r3, [r7, #4]
	str	r2, [r3, #372]
.L817:
	ldr	r3, [r7, #4]
	ldr	r2, [r3, #360]
	ldr	r3, [r7, #4]
	ldr	r3, [r3, #372]
	add	r2, r2, r3
	ldr	r3, [r7, #4]
	ldr	r3, [r3, #364]
	cmp	r2, r3
	bgt	.L816
	movs	r3, #0
	b	.L819
.L816:
	ldr	r3, [r7, #4]
	movs	r2, #131
	str	r2, [r3, #12]
	movs	r3, #1
.L819:
	mov	r0, r3
	adds	r7, r7, #12
	mov	sp, r7
	@ sp needed
	ldr	r7, [sp], #4
	bx	lr
.L821:
	.align	2
.L820:
	.word	opcode_length-(.LPIC42+4)
	.size	SkipCode, .-SkipCode
	.section	.text.Ins_IF,"ax",%progbits
	.align	2
	.thumb
	.thumb_func
	.type	Ins_IF, %function
Ins_IF:
	@ args = 0, pretend = 0, frame = 16
	@ frame_needed = 1, uses_anonymous_args = 0
	push	{r7, lr}
	sub	sp, sp, #16
	add	r7, sp, #0
	str	r0, [r7, #4]
	str	r1, [r7]
	ldr	r3, [r7]
	ldr	r3, [r3]
	cmp	r3, #0
	beq	.L823
	b	.L822
.L823:
	movs	r3, #1
	str	r3, [r7, #12]
	movs	r3, #0
	strb	r3, [r7, #11]
.L830:
	ldr	r0, [r7, #4]
	bl	SkipCode(PLT)
	mov	r3, r0
	cmp	r3, #1
	bne	.L825
	b	.L822
.L825:
	ldr	r3, [r7, #4]
	ldrb	r3, [r3, #368]	@ zero_extendqisi2
	cmp	r3, #88
	beq	.L827
	cmp	r3, #89
	beq	.L828
	cmp	r3, #27
